 testserver

 Timestamp is 61e7a2f0 (Tue Jan 18 22:34:40 2022)

 Preferred load address is 0000000140000000

 Start         Length     Name                   Class
 0001:00000000 0003d040H .text$mn                CODE
 0001:0003d040 00000040H .text$mn$00             CODE
 0001:0003d080 0000069dH .text$x                 CODE
 0002:00000000 000002b8H .idata$5                DATA
 0002:000002b8 00000030H .00cfg                  DATA
 0002:000002e8 00000008H .CRT$XCA                DATA
 0002:000002f0 00000008H .CRT$XCAA               DATA
 0002:000002f8 00000008H .CRT$XCZ                DATA
 0002:00000300 00000008H .CRT$XIA                DATA
 0002:00000308 00000008H .CRT$XIAA               DATA
 0002:00000310 00000008H .CRT$XIAC               DATA
 0002:00000318 00000020H .CRT$XIC                DATA
 0002:00000338 00000008H .CRT$XIZ                DATA
 0002:00000340 00000008H .CRT$XPA                DATA
 0002:00000348 00000010H .CRT$XPX                DATA
 0002:00000358 00000008H .CRT$XPXA               DATA
 0002:00000360 00000008H .CRT$XPZ                DATA
 0002:00000368 00000008H .CRT$XTA                DATA
 0002:00000370 00000010H .CRT$XTZ                DATA
 0002:00000378 00000000H .gehcont$y              DATA
 0002:00000378 00000000H .gfids$y                DATA
 0002:00000380 00012780H .rdata                  DATA
 0002:00012b00 00000000H .rdata$CastGuardVftablesA DATA
 0002:00012b00 00000000H .rdata$CastGuardVftablesC DATA
 0002:00012b00 0000016cH .rdata$r                DATA
 0002:00012c6c 00000048H .rdata$voltmd           DATA
 0002:00012cb4 00000344H .rdata$zzzdbg           DATA
 0002:00012ff8 00000008H .rtc$IAA                DATA
 0002:00013000 00000008H .rtc$IZZ                DATA
 0002:00013008 00000008H .rtc$TAA                DATA
 0002:00013010 00000010H .rtc$TZZ                DATA
 0002:00013020 000011b8H .xdata                  DATA
 0002:000141d8 00000084H .xdata$x                DATA
 0002:0001425c 00000000H .edata                  DATA
 0002:0001425c 00000028H .idata$2                DATA
 0002:00014284 00000014H .idata$3                DATA
 0002:00014298 000002b8H .idata$4                DATA
 0002:00014550 00000598H .idata$6                DATA
 0003:00000000 00000ab0H .data                   DATA
 0003:00000ab0 00000050H .data$r                 DATA
 0003:00000b00 00000020H .data$rs                DATA
 0003:00000b20 00001878H .bss                    DATA
 0004:00000000 000031a4H .pdata                  DATA
 0005:00000000 000000f4H _RDATA                  DATA

  Address         Publics by Value              Rva+Base               Lib:Object

 0000:00000000       __arm64x_redirection_metadata 0000000000000000     <absolute>
 0000:00000000       __guard_iat_table          0000000000000000     <absolute>
 0000:00000000       ___safe_se_handler_table   0000000000000000     <absolute>
 0000:00000000       __guard_iat_count          0000000000000000     <absolute>
 0000:00000000       __guard_longjmp_count      0000000000000000     <absolute>
 0000:00000000       __dynamic_value_reloc_table 0000000000000000     <absolute>
 0000:00000000       __guard_longjmp_table      0000000000000000     <absolute>
 0000:00000000       __hybrid_auxiliary_iat     0000000000000000     <absolute>
 0000:00000000       __x64_code_ranges_to_entry_points 0000000000000000     <absolute>
 0000:00000000       __hybrid_auxiliary_iat_copy 0000000000000000     <absolute>
 0000:00000000       __x64_code_ranges_to_entry_points_count 0000000000000000     <absolute>
 0000:00000000       __guard_fids_count         0000000000000000     <absolute>
 0000:00000000       __arm64x_extra_rfe_table   0000000000000000     <absolute>
 0000:00000000       __AbsoluteZero             0000000000000000     <absolute>
 0000:00000000       __hybrid_code_map          0000000000000000     <absolute>
 0000:00000000       __guard_check_icall_a64n_fptr 0000000000000000     <absolute>
 0000:00000000       __arm64x_extra_rfe_table_size 0000000000000000     <absolute>
 0000:00000000       ___safe_se_handler_count   0000000000000000     <absolute>
 0000:00000000       __guard_fids_table         0000000000000000     <absolute>
 0000:00000000       __guard_eh_cont_count      0000000000000000     <absolute>
 0000:00000000       __arm64x_redirection_metadata_count 0000000000000000     <absolute>
 0000:00000000       __enclave_config           0000000000000000     <absolute>
 0000:00000000       __guard_eh_cont_table      0000000000000000     <absolute>
 0000:00000000       __arm64x_native_entrypoint 0000000000000000     <absolute>
 0000:00000000       __hybrid_code_map_count    0000000000000000     <absolute>
 0000:00000100       __guard_flags              0000000000000100     <absolute>
 0000:00000000       __ImageBase                0000000140000000     <linker-defined>
 0001:00000b90       main                       0000000140001b90 f   testserver.obj
 0001:00000c50       ??$sprintf_s@$09@@YAHAEAY09DPEBDZZ 0000000140001c50 f i testserver.obj
 0001:00000c90       __local_stdio_printf_options 0000000140001c90 f i testserver.obj
 0001:00000ca0       _vfprintf_l                0000000140001ca0 f i testserver.obj
 0001:00000cf0       _vsprintf_s_l              0000000140001cf0 f i testserver.obj
 0001:00000d60       fprintf                    0000000140001d60 f i testserver.obj
 0001:00000db0       printf                     0000000140001db0 f i testserver.obj
 0001:00000e10       vsprintf_s                 0000000140001e10 f i testserver.obj
 0001:00000e50       __GSHandlerCheck           0000000140001e50 f   LIBCMTD:gshandler.obj
 0001:00000e90       __GSHandlerCheckCommon     0000000140001e90 f   LIBCMTD:gshandler.obj
 0001:00000fa0       __security_check_cookie    0000000140001fa0 f   LIBCMTD:amdsecgs.obj
 0001:00001270       ?configure_argv@__scrt_narrow_argv_policy@@SAHXZ 0000000140002270 f i LIBCMTD:exe_main.obj
 0001:00001290       ?initialize_environment@__scrt_narrow_environment_policy@@SAHXZ 0000000140002290 f i LIBCMTD:exe_main.obj
 0001:000012e0       ?set_app_type@__scrt_main_policy@@SAXXZ 00000001400022e0 f i LIBCMTD:exe_main.obj
 0001:00001300       ?set_commode@__scrt_file_policy@@SAXXZ 0000000140002300 f i LIBCMTD:exe_main.obj
 0001:00001320       ?set_fmode@__scrt_file_policy@@SAXXZ 0000000140002320 f i LIBCMTD:exe_main.obj
 0001:00001340       mainCRTStartup             0000000140002340 f   LIBCMTD:exe_main.obj
 0001:00001360       __raise_securityfailure    0000000140002360 f   LIBCMTD:gs_report.obj
 0001:000013a0       __report_gsfailure         00000001400023a0 f   LIBCMTD:gs_report.obj
 0001:00001480       __report_rangecheckfailure 0000000140002480 f   LIBCMTD:gs_report.obj
 0001:000014a0       __report_securityfailure   00000001400024a0 f   LIBCMTD:gs_report.obj
 0001:00001800       NtCurrentTeb               0000000140002800 f i LIBCMTD:utility.obj
 0001:00001810       __scrt_acquire_startup_lock 0000000140002810 f   LIBCMTD:utility.obj
 0001:00001880       __scrt_initialize_crt      0000000140002880 f   LIBCMTD:utility.obj
 0001:000018d0       __scrt_initialize_onexit_tables 00000001400028d0 f   LIBCMTD:utility.obj
 0001:000019e0       __scrt_is_nonwritable_in_current_image 00000001400029e0 f   LIBCMTD:utility.obj
 0001:00001a70       __scrt_release_startup_lock 0000000140002a70 f   LIBCMTD:utility.obj
 0001:00001aa0       __scrt_uninitialize_crt    0000000140002aa0 f   LIBCMTD:utility.obj
 0001:00001ae0       _onexit                    0000000140002ae0 f   LIBCMTD:utility.obj
 0001:00001b60       atexit                     0000000140002b60 f   LIBCMTD:utility.obj
 0001:00001c60       __security_init_cookie     0000000140002c60 f   LIBCMTD:gs_support.obj
 0001:00001ce0       _matherr                   0000000140002ce0 f   LIBCMTD:matherr.obj
 0001:00001ce0       ?get_current_state_index@__crt_state_management@@YA_KAEBV__crt_scoped_get_last_error_reset@@@Z 0000000140002ce0 f   libucrtd:per_thread_data.obj
 0001:00001cf0       _get_startup_argv_mode     0000000140002cf0 f   LIBCMTD:argv_mode.obj
 0001:00001d00       __scrt_stub_for_initialize_mta 0000000140002d00 f   LIBCMTD:utility_desktop.obj
 0001:00001d00       ?get_current_state_index@__crt_state_management@@YA_KXZ 0000000140002d00 f   libucrtd:matherr.obj
 0001:00001d00       _get_startup_thread_locale_mode 0000000140002d00 f   LIBCMTD:thread_locale.obj
 0001:00001d00       __scrt_exe_initialize_mta  0000000140002d00 f   LIBCMTD:utility_desktop.obj
 0001:00001d00       __scrt_initialize_winrt    0000000140002d00 f   LIBCMTD:utility_desktop.obj
 0001:00001d00       ?get_invalid_value@__crt_hmodule_traits@@SAPEAUHINSTANCE__@@XZ 0000000140002d00 f   libucrtd:exit.obj
 0001:00001d00       _get_startup_commit_mode   0000000140002d00 f   LIBCMTD:commit_mode.obj
 0001:00001d00       _get_startup_new_mode      0000000140002d00 f   LIBCMTD:new_mode.obj
 0001:00001d10       _get_startup_file_mode     0000000140002d10 f   LIBCMTD:file_mode.obj
 0001:00001d20       ?__scrt_initialize_type_info@@YAXXZ 0000000140002d20 f   LIBCMTD:tncleanup.obj
 0001:00001d40       _should_initialize_environment 0000000140002d40 f   LIBCMTD:env_mode.obj
 0001:00001d50       _initialize_denormal_control 0000000140002d50 f   LIBCMTD:denormal_control.obj
 0001:00001d50       _initialize_invalid_parameter_handler 0000000140002d50 f   LIBCMTD:invalid_parameter_handler.obj
 0001:00001d60       __local_stdio_scanf_options 0000000140002d60 f i LIBCMTD:default_local_stdio_options.obj
 0001:00001d70       __scrt_initialize_default_local_stdio_options 0000000140002d70 f   LIBCMTD:default_local_stdio_options.obj
 0001:00001dc0       __scrt_is_user_matherr_present 0000000140002dc0 f   LIBCMTD:matherr_detection.obj
 0001:00001df0       __scrt_get_dyn_tls_init_callback 0000000140002df0 f   LIBCMTD:dyn_tls_init.obj
 0001:00001e00       __scrt_get_dyn_tls_dtor_callback 0000000140002e00 f   LIBCMTD:dyn_tls_dtor.obj
 0001:00001e10       __crt_debugger_hook        0000000140002e10 f   LIBCMTD:utility_desktop.obj
 0001:00001e20       __scrt_fastfail            0000000140002e20 f   LIBCMTD:utility_desktop.obj
 0001:00001fc0       __scrt_initialize_mta      0000000140002fc0 f   LIBCMTD:utility_desktop.obj
 0001:00001fd0       __scrt_is_managed_app      0000000140002fd0 f   LIBCMTD:utility_desktop.obj
 0001:00002080       __scrt_set_unhandled_exception_filter 0000000140003080 f   LIBCMTD:utility_desktop.obj
 0001:000020a0       __scrt_unhandled_exception_filter 00000001400030a0 f   LIBCMTD:utility_desktop.obj
 0001:00002140       _RTC_Initialize            0000000140003140 f   LIBCMTD:initsect.obj
 0001:00002190       _RTC_Terminate             0000000140003190 f   LIBCMTD:initsect.obj
 0001:000021e0       ??1scoped_global_state_reset@__crt_state_management@@QEAA@XZ 00000001400031e0 f i libucrtd:onexit.obj
 0001:000021e0       _guard_check_icall_nop     00000001400031e0 f i LIBCMTD:guard_support.obj
 0001:000021e0       ??1?$__crt_simd_cleanup_guard@$0A@@@QEAA@XZ 00000001400031e0 f i libucrtd:strnlen.obj
 0001:000021f0       ReadNoFence64              00000001400031f0 f i LIBCMTD:guard_support.obj
 0001:00002210       ReadPointerNoFence         0000000140003210 f i LIBCMTD:guard_support.obj
 0001:00002230       _guard_icall_checks_enforced 0000000140003230 f i LIBCMTD:guard_support.obj
 0001:00002270       __isa_available_init       0000000140003270 f   LIBCMTD:cpu_disp.obj
 0001:00002610       __scrt_is_ucrt_dll_in_use  0000000140003610 f   LIBCMTD:ucrt_detection.obj
 0001:00002640       __C_specific_handler       0000000140003640 f   libvcruntimed:riscchandler.obj
 0001:00002ab0       __vcrt_initialize          0000000140003ab0 f   libvcruntimed:initialization.obj
 0001:00002af0       __vcrt_uninitialize        0000000140003af0 f   libvcruntimed:initialization.obj
 0001:00002b10       ??$?RP6AXXZ@__crt_internal_free_policy@@QEBAXQEBQ6AXXZ@Z 0000000140003b10 f i libucrtd:onexit.obj
 0001:00002b10       ??$?RPEAU__crt_stdio_stream_data@@@__crt_internal_free_policy@@QEBAXQEBQEAU__crt_stdio_stream_data@@@Z 0000000140003b10 f i libucrtd:_file.obj
 0001:00002b10       ??$?RU__crt_lowio_handle_data@@@__crt_internal_free_policy@@QEBAXQEBU__crt_lowio_handle_data@@@Z 0000000140003b10 f i libucrtd:osfinfo.obj
 0001:00002b10       ??$?RU__crt_multibyte_data@@@__crt_internal_free_policy@@QEBAXQEBU__crt_multibyte_data@@@Z 0000000140003b10 f i libucrtd:wsetlocale.obj
 0001:00002b10       ??$?RU__acrt_ptd@@@__crt_internal_free_policy@@QEBAXQEBU__acrt_ptd@@@Z 0000000140003b10 f i libucrtd:per_thread_data.obj
 0001:00002b10       ??$?RPEAD@__crt_internal_free_policy@@QEBAXQEBQEAD@Z 0000000140003b10 f i libucrtd:argv_parsing.obj
 0001:00002b10       ??$?RU__vcrt_ptd@@@__crt_internal_free_policy@@QEBAXQEBU__vcrt_ptd@@@Z 0000000140003b10 f i libvcruntimed:per_thread_data.obj
 0001:00002b10       ??$?RD@__crt_internal_free_policy@@QEBAXQEBD@Z 0000000140003b10 f i libvcruntimed:std_type_info.obj
 0001:00002b10       ??$?RE@__crt_internal_free_policy@@QEBAXQEBE@Z 0000000140003b10 f i libucrtd:argv_parsing.obj
 0001:00002b40       ??0?$__crt_unique_handle_t@U__crt_findfile_traits@@@@QEAA@QEAX@Z 0000000140003b40 f i libucrtd:argv_wildcards.obj
 0001:00002b40       ??0?$__crt_unique_heap_ptr@P6AXXZU__crt_internal_free_policy@@@@QEAA@QEAP6AXXZ@Z 0000000140003b40 f i libucrtd:onexit.obj
 0001:00002b40       ??0?$__crt_unique_heap_ptr@U__vcrt_ptd@@U__crt_internal_free_policy@@@@QEAA@QEAU__vcrt_ptd@@@Z 0000000140003b40 f i libvcruntimed:per_thread_data.obj
 0001:00002b40       ??0?$__crt_unique_heap_ptr@U__crt_lowio_handle_data@@U__crt_internal_free_policy@@@@QEAA@QEAU__crt_lowio_handle_data@@@Z 0000000140003b40 f i libucrtd:osfinfo.obj
 0001:00002b40       ??0?$string_output_adapter@_W@__crt_stdio_output@@QEAA@QEAU?$string_output_adapter_context@_W@1@@Z 0000000140003b40 f i libucrtd:output.obj
 0001:00002b40       ??0?$string_output_adapter@D@__crt_stdio_output@@QEAA@QEAU?$string_output_adapter_context@D@1@@Z 0000000140003b40 f i libucrtd:output.obj
 0001:00002b40       ??0?$__crt_scoped_stack_ptr_tag@_W@@QEAA@QEA_W@Z 0000000140003b40 f i libucrtd:getstringtypea.obj
 0001:00002b40       ??0?$__crt_unique_heap_ptr@DU__crt_public_free_policy@@@@QEAA@QEAD@Z 0000000140003b40 f i libvcruntimed:std_exception.obj
 0001:00002b40       ??0?$__crt_unique_heap_ptr@U__acrt_ptd@@U__crt_internal_free_policy@@@@QEAA@QEAU__acrt_ptd@@@Z 0000000140003b40 f i libucrtd:per_thread_data.obj
 0001:00002b40       ??0?$__crt_unique_heap_ptr@PEAU__crt_stdio_stream_data@@U__crt_internal_free_policy@@@@QEAA@QEAPEAU__crt_stdio_stream_data@@@Z 0000000140003b40 f i libucrtd:_file.obj
 0001:00002b40       ??0?$__crt_unique_heap_ptr@PEADU__crt_internal_free_policy@@@@QEAA@QEAPEAD@Z 0000000140003b40 f i libucrtd:argv_parsing.obj
 0001:00002b40       ??0?$__crt_scoped_stack_ptr@_W@@QEAA@U?$__crt_scoped_stack_ptr_tag@_W@@@Z 0000000140003b40 f i libucrtd:getstringtypea.obj
 0001:00002b40       ??0?$__crt_unique_heap_ptr@U__crt_multibyte_data@@U__crt_internal_free_policy@@@@QEAA@QEAU__crt_multibyte_data@@@Z 0000000140003b40 f i libucrtd:wsetlocale.obj
 0001:00002b40       ??0__crt_stdio_stream@@QEAA@QEAU_iobuf@@@Z 0000000140003b40 f i libucrtd:_file.obj
 0001:00002b40       ??0?$__crt_unique_handle_t@U__crt_hmodule_traits@@@@QEAA@QEAUHINSTANCE__@@@Z 0000000140003b40 f i libucrtd:exit.obj
 0001:00002b40       ??0?$__crt_unique_heap_ptr@EU__crt_internal_free_policy@@@@QEAA@QEAE@Z 0000000140003b40 f i libucrtd:argv_parsing.obj
 0001:00002b40       ??0__crt_stdio_stream@@QEAA@QEAU__crt_stdio_stream_data@@@Z 0000000140003b40 f i libucrtd:closeall.obj
 0001:00002b40       ??0?$__crt_unique_heap_ptr@DU__crt_internal_free_policy@@@@QEAA@QEAD@Z 0000000140003b40 f i libvcruntimed:std_type_info.obj
 0001:00002b60       ??1?$__crt_unique_heap_ptr@P6AXXZU__crt_internal_free_policy@@@@QEAA@XZ 0000000140003b60 f i libucrtd:onexit.obj
 0001:00002b60       ??1?$__crt_unique_heap_ptr@PEADU__crt_internal_free_policy@@@@QEAA@XZ 0000000140003b60 f i libucrtd:argv_parsing.obj
 0001:00002b60       ??1?$__crt_unique_heap_ptr@U__acrt_ptd@@U__crt_internal_free_policy@@@@QEAA@XZ 0000000140003b60 f i libucrtd:per_thread_data.obj
 0001:00002b60       ??1?$__crt_unique_heap_ptr@U__vcrt_ptd@@U__crt_internal_free_policy@@@@QEAA@XZ 0000000140003b60 f i libvcruntimed:per_thread_data.obj
 0001:00002b60       ??1?$__crt_unique_heap_ptr@U__crt_lowio_handle_data@@U__crt_internal_free_policy@@@@QEAA@XZ 0000000140003b60 f i libucrtd:osfinfo.obj
 0001:00002b60       ??1?$__crt_unique_heap_ptr@EU__crt_internal_free_policy@@@@QEAA@XZ 0000000140003b60 f i libucrtd:argv_parsing.obj
 0001:00002b60       ??1?$__crt_unique_heap_ptr@U__crt_multibyte_data@@U__crt_internal_free_policy@@@@QEAA@XZ 0000000140003b60 f i libucrtd:wsetlocale.obj
 0001:00002b60       ??1?$__crt_unique_heap_ptr@PEAU__crt_stdio_stream_data@@U__crt_internal_free_policy@@@@QEAA@XZ 0000000140003b60 f i libucrtd:_file.obj
 0001:00002b60       ??1?$__crt_unique_heap_ptr@DU__crt_internal_free_policy@@@@QEAA@XZ 0000000140003b60 f i libvcruntimed:std_type_info.obj
 0001:00002b80       ??B?$__crt_unique_heap_ptr@U__crt_multibyte_data@@U__crt_internal_free_policy@@@@QEBA_NXZ 0000000140003b80 f i libucrtd:wsetlocale.obj
 0001:00002b80       ??B?$__crt_unique_heap_ptr@U__acrt_ptd@@U__crt_internal_free_policy@@@@QEBA_NXZ 0000000140003b80 f i libucrtd:per_thread_data.obj
 0001:00002b80       ??B?$__crt_unique_heap_ptr@DU__crt_public_free_policy@@@@QEBA_NXZ 0000000140003b80 f i libvcruntimed:std_exception.obj
 0001:00002b80       ??B?$__crt_unique_heap_ptr@DU__crt_internal_free_policy@@@@QEBA_NXZ 0000000140003b80 f i libvcruntimed:std_type_info.obj
 0001:00002b80       ??B?$__crt_unique_heap_ptr@U__vcrt_ptd@@U__crt_internal_free_policy@@@@QEBA_NXZ 0000000140003b80 f i libvcruntimed:per_thread_data.obj
 0001:00002b80       ??B?$__crt_unique_heap_ptr@U__crt_lowio_handle_data@@U__crt_internal_free_policy@@@@QEBA_NXZ 0000000140003b80 f i libucrtd:osfinfo.obj
 0001:00002b80       ??B?$__crt_unique_heap_ptr@EU__crt_internal_free_policy@@@@QEBA_NXZ 0000000140003b80 f i libucrtd:argv_parsing.obj
 0001:00002ba0       ?__crt_interlocked_read_64@@YA_JPED_J@Z 0000000140003ba0 f i libvcruntimed:std_type_info.obj
 0001:00002bc0       ?public_stream@__crt_stdio_stream@@QEBAPEAU_iobuf@@XZ 0000000140003bc0 f i libucrtd:output.obj
 0001:00002bc0       ?get@?$__crt_unique_handle_t@U__crt_hmodule_traits@@@@QEBAPEAUHINSTANCE__@@XZ 0000000140003bc0 f i libucrtd:exit.obj
 0001:00002bc0       ?get@?$__crt_unique_heap_ptr@PEADU__crt_internal_free_policy@@@@QEBAPEAPEADXZ 0000000140003bc0 f i libucrtd:argv_parsing.obj
 0001:00002bc0       ?get@?$__crt_unique_heap_ptr@U__crt_lowio_handle_data@@U__crt_internal_free_policy@@@@QEBAPEAU__crt_lowio_handle_data@@XZ 0000000140003bc0 f i libucrtd:osfinfo.obj
 0001:00002bc0       ?get@?$__crt_unique_heap_ptr@U__crt_multibyte_data@@U__crt_internal_free_policy@@@@QEBAPEAU__crt_multibyte_data@@XZ 0000000140003bc0 f i libucrtd:wsetlocale.obj
 0001:00002bc0       ?get@?$__crt_unique_heap_ptr@U__vcrt_ptd@@U__crt_internal_free_policy@@@@QEBAPEAU__vcrt_ptd@@XZ 0000000140003bc0 f i libvcruntimed:per_thread_data.obj
 0001:00002bc0       ?get@?$__crt_unique_heap_ptr@EU__crt_internal_free_policy@@@@QEBAPEAEXZ 0000000140003bc0 f i libucrtd:argv_parsing.obj
 0001:00002bc0       ?save_state@?$c_string_character_source@_W@__crt_strtox@@QEBAPEB_WXZ 0000000140003bc0 f i libucrtd:atox.obj
 0001:00002bc0       ??C__crt_stdio_stream@@QEBAPEAU__crt_stdio_stream_data@@XZ 0000000140003bc0 f i libucrtd:_file.obj
 0001:00002bc0       ?get@?$__crt_unique_handle_t@U__crt_findfile_traits@@@@QEBAPEAXXZ 0000000140003bc0 f i libucrtd:argv_wildcards.obj
 0001:00002bc0       ?get@?$__crt_unique_heap_ptr@DU__crt_public_free_policy@@@@QEBAPEADXZ 0000000140003bc0 f i libvcruntimed:std_exception.obj
 0001:00002bc0       ?save_state@?$c_string_character_source@D@__crt_strtox@@QEBAPEBDXZ 0000000140003bc0 f i libucrtd:atox.obj
 0001:00002bc0       ?get@?$__crt_unique_heap_ptr@DU__crt_internal_free_policy@@@@QEBAPEADXZ 0000000140003bc0 f i libvcruntimed:std_type_info.obj
 0001:00002bc0       ?get@?$__crt_scoped_stack_ptr@_W@@QEBAPEA_WXZ 0000000140003bc0 f i libucrtd:getstringtypea.obj
 0001:00002bc0       ?get@?$__crt_unique_heap_ptr@U__acrt_ptd@@U__crt_internal_free_policy@@@@QEBAPEAU__acrt_ptd@@XZ 0000000140003bc0 f i libucrtd:per_thread_data.obj
 0001:00002bd0       ?is_valid@?$__crt_unique_heap_ptr@U__crt_lowio_handle_data@@U__crt_internal_free_policy@@@@QEBA_NXZ 0000000140003bd0 f i libucrtd:osfinfo.obj
 0001:00002bd0       ?is_valid@?$__crt_unique_heap_ptr@DU__crt_public_free_policy@@@@QEBA_NXZ 0000000140003bd0 f i libvcruntimed:std_exception.obj
 0001:00002bd0       ?is_valid@?$__crt_unique_heap_ptr@U__crt_multibyte_data@@U__crt_internal_free_policy@@@@QEBA_NXZ 0000000140003bd0 f i libucrtd:wsetlocale.obj
 0001:00002bd0       ?is_valid@?$__crt_unique_heap_ptr@U__acrt_ptd@@U__crt_internal_free_policy@@@@QEBA_NXZ 0000000140003bd0 f i libucrtd:per_thread_data.obj
 0001:00002bd0       ?valid@__crt_stdio_stream@@QEBA_NXZ 0000000140003bd0 f i libucrtd:output.obj
 0001:00002bd0       ?is_valid@?$__crt_unique_heap_ptr@U__vcrt_ptd@@U__crt_internal_free_policy@@@@QEBA_NXZ 0000000140003bd0 f i libvcruntimed:per_thread_data.obj
 0001:00002bd0       ??B?$__crt_scoped_stack_ptr@_W@@QEBA_NXZ 0000000140003bd0 f i libucrtd:lcmapstringa.obj
 0001:00002bd0       ?is_valid@?$__crt_unique_heap_ptr@EU__crt_internal_free_policy@@@@QEBA_NXZ 0000000140003bd0 f i libucrtd:argv_parsing.obj
 0001:00002bd0       ?is_valid@?$__crt_unique_heap_ptr@DU__crt_internal_free_policy@@@@QEBA_NXZ 0000000140003bd0 f i libvcruntimed:std_type_info.obj
 0001:00002c00       ?release@?$__crt_unique_heap_ptr@DU__crt_internal_free_policy@@@@QEAAXXZ 0000000140003c00 f i libvcruntimed:std_type_info.obj
 0001:00002c00       ?release@?$__crt_unique_heap_ptr@U__acrt_ptd@@U__crt_internal_free_policy@@@@QEAAXXZ 0000000140003c00 f i libucrtd:per_thread_data.obj
 0001:00002c00       ?release@?$__crt_unique_heap_ptr@PEADU__crt_internal_free_policy@@@@QEAAXXZ 0000000140003c00 f i libucrtd:argv_parsing.obj
 0001:00002c00       ?release@?$__crt_unique_heap_ptr@U__crt_multibyte_data@@U__crt_internal_free_policy@@@@QEAAXXZ 0000000140003c00 f i libucrtd:wsetlocale.obj
 0001:00002c00       ?release@?$__crt_unique_heap_ptr@EU__crt_internal_free_policy@@@@QEAAXXZ 0000000140003c00 f i libucrtd:argv_parsing.obj
 0001:00002c00       ?release@?$__crt_unique_heap_ptr@P6AXXZU__crt_internal_free_policy@@@@QEAAXXZ 0000000140003c00 f i libucrtd:onexit.obj
 0001:00002c00       ?release@?$__crt_unique_heap_ptr@U__crt_lowio_handle_data@@U__crt_internal_free_policy@@@@QEAAXXZ 0000000140003c00 f i libucrtd:osfinfo.obj
 0001:00002c00       ?release@?$__crt_unique_heap_ptr@PEAU__crt_stdio_stream_data@@U__crt_internal_free_policy@@@@QEAAXXZ 0000000140003c00 f i libucrtd:_file.obj
 0001:00002c00       ?release@?$__crt_unique_heap_ptr@U__vcrt_ptd@@U__crt_internal_free_policy@@@@QEAAXXZ 0000000140003c00 f i libvcruntimed:per_thread_data.obj
 0001:00002c30       __std_type_info_compare    0000000140003c30 f   libvcruntimed:std_type_info.obj
 0001:00002c70       __DestructExceptionObject  0000000140003c70 f   libvcruntimed:ehhelpers.obj
 0001:00002d70       ?_CallMemberFunction0@@YAXQEAX0@Z 0000000140003d70 f i libvcruntimed:ehhelpers.obj
 0001:00002e40       _IsExceptionObjectToBeDestroyed 0000000140003e40 f   libvcruntimed:ehhelpers.obj
 0001:00002e90       __AdjustPointer            0000000140003e90 f   libvcruntimed:ehhelpers.obj
 0001:00002f10       __FrameUnwindFilter        0000000140003f10 f   libvcruntimed:ehhelpers.obj
 0001:00002fc0       __current_exception        0000000140003fc0 f   libvcruntimed:ehhelpers.obj
 0001:00002fe0       __current_exception_context 0000000140003fe0 f   libvcruntimed:ehhelpers.obj
 0001:00003010       _NLG_Notify                0000000140004010 f   libvcruntimed:notify.obj
 0001:00003030       __NLG_Dispatch2            0000000140004030 f   libvcruntimed:notify.obj
 0001:00003040       __NLG_Return2              0000000140004040 f   libvcruntimed:notify.obj
 0001:00003050       __except_validate_context_record 0000000140004050 f   libvcruntimed:jbcxrval.obj
 0001:000030f0       ?detach@?$__crt_unique_heap_ptr@PEAU__crt_stdio_stream_data@@U__crt_internal_free_policy@@@@QEAAPEAPEAU__crt_stdio_stream_data@@XZ 00000001400040f0 f i libucrtd:_file.obj
 0001:000030f0       ?detach@?$__crt_unique_heap_ptr@U__acrt_ptd@@U__crt_internal_free_policy@@@@QEAAPEAU__acrt_ptd@@XZ 00000001400040f0 f i libucrtd:per_thread_data.obj
 0001:000030f0       ?detach@?$__crt_unique_heap_ptr@P6AXXZU__crt_internal_free_policy@@@@QEAAPEAP6AXXZXZ 00000001400040f0 f i libucrtd:onexit.obj
 0001:000030f0       ?detach@?$__crt_unique_heap_ptr@DU__crt_public_free_policy@@@@QEAAPEADXZ 00000001400040f0 f i libvcruntimed:std_exception.obj
 0001:000030f0       ?detach@?$__crt_unique_heap_ptr@U__vcrt_ptd@@U__crt_internal_free_policy@@@@QEAAPEAU__vcrt_ptd@@XZ 00000001400040f0 f i libvcruntimed:per_thread_data.obj
 0001:000030f0       ?detach@?$__crt_unique_heap_ptr@U__crt_multibyte_data@@U__crt_internal_free_policy@@@@QEAAPEAU__crt_multibyte_data@@XZ 00000001400040f0 f i libucrtd:wsetlocale.obj
 0001:000030f0       ?detach@?$__crt_unique_heap_ptr@PEADU__crt_internal_free_policy@@@@QEAAPEAPEADXZ 00000001400040f0 f i libucrtd:argv_parsing.obj
 0001:000030f0       ?detach@?$__crt_unique_heap_ptr@U__crt_lowio_handle_data@@U__crt_internal_free_policy@@@@QEAAPEAU__crt_lowio_handle_data@@XZ 00000001400040f0 f i libucrtd:osfinfo.obj
 0001:000030f0       ?detach@?$__crt_unique_heap_ptr@EU__crt_internal_free_policy@@@@QEAAPEAEXZ 00000001400040f0 f i libucrtd:argv_parsing.obj
 0001:00003160       __vcrt_freefls             0000000140004160 f   libvcruntimed:per_thread_data.obj
 0001:000031a0       __vcrt_getptd              00000001400041a0 f   libvcruntimed:per_thread_data.obj
 0001:000031d0       __vcrt_getptd_noexit       00000001400041d0 f   libvcruntimed:per_thread_data.obj
 0001:00003370       __vcrt_initialize_ptd      0000000140004370 f   libvcruntimed:per_thread_data.obj
 0001:000033c0       __vcrt_uninitialize_ptd    00000001400043c0 f   libvcruntimed:per_thread_data.obj
 0001:000033f0       __vcrt_initialize_locks    00000001400043f0 f   libvcruntimed:locks.obj
 0001:00003460       __vcrt_uninitialize_locks  0000000140004460 f   libvcruntimed:locks.obj
 0001:000034c0       sprintf_s                  00000001400044c0 f i libvcruntimed:undname.obj
 0001:00003520       ??$__crt_interlocked_exchange_pointer@UHINSTANCE__@@PEAU1@@@YAPEAUHINSTANCE__@@PEDSEAU0@QEAU0@@Z 0000000140004520 f i libvcruntimed:winapi_downlevel.obj
 0001:00003520       ??$__crt_interlocked_exchange_pointer@UHINSTANCE__@@PEAX@@YAPEAUHINSTANCE__@@PEDSEAU0@QEAX@Z 0000000140004520 f i libvcruntimed:winapi_downlevel.obj
 0001:00003520       ??$__crt_interlocked_exchange_pointer@XPEAX@@YAPEAXPEDSEAXQEAX@Z 0000000140004520 f i libvcruntimed:winapi_downlevel.obj
 0001:00003540       ??$__crt_interlocked_read_pointer@UHINSTANCE__@@@@YAPEAUHINSTANCE__@@PEDSEAU0@@Z 0000000140004540 f i libvcruntimed:winapi_downlevel.obj
 0001:00003540       ??$__crt_interlocked_read_pointer@X@@YAPEAXPEDSEAX@Z 0000000140004540 f i libvcruntimed:winapi_downlevel.obj
 0001:00003560       ?get_invalid_value@__crt_findfile_traits@@SAPEAXXZ 0000000140004560 f   libucrtd:argv_wildcards.obj
 0001:00003a50       __vcrt_FlsAlloc            0000000140004a50 f   libvcruntimed:winapi_downlevel.obj
 0001:00003aa0       __vcrt_FlsFree             0000000140004aa0 f   libvcruntimed:winapi_downlevel.obj
 0001:00003af0       __vcrt_FlsGetValue         0000000140004af0 f   libvcruntimed:winapi_downlevel.obj
 0001:00003b40       __vcrt_FlsSetValue         0000000140004b40 f   libvcruntimed:winapi_downlevel.obj
 0001:00003ba0       __vcrt_InitializeCriticalSectionEx 0000000140004ba0 f   libvcruntimed:winapi_downlevel.obj
 0001:00003c20       memcpy_repmovs             0000000140004c20 f   libvcruntimed:memcpy.obj
 0001:00003c40       memcpy                     0000000140004c40 f   libvcruntimed:memcpy.obj
 0001:00003c40       memmove                    0000000140004c40 f   libvcruntimed:memcpy.obj
 0001:000042c0       ??$?0AEAViterator@TryBlockMap@__FrameHandler3@@AEAV012@$0A@@?$pair@Viterator@TryBlockMap@__FrameHandler3@@V123@@std@@QEAA@AEAViterator@TryBlockMap@__FrameHandler3@@0@Z 00000001400052c0 f i libvcruntimed:risctrnsctrl.obj
 0001:000043d0       ??$_CallSETranslator@V__FrameHandler3@@@@YAHPEAUEHExceptionRecord@@PEA_KPEAU_CONTEXT@@PEAU_xDISPATCHER_CONTEXT@@PEBU_s_FuncInfo@@K1H@Z 00000001400053d0 f i libvcruntimed:risctrnsctrl.obj
 0001:00004460       ?dangerous_get_state_array@?$dual_state_global@PEAU__crt_multibyte_data@@@__crt_state_management@@QEAAPEAPEAU__crt_multibyte_data@@XZ 0000000140005460 f i libucrtd:mbctype.obj
 0001:00004460       ?debug_info@?$__crt_win32_buffer@DU__crt_win32_buffer_internal_dynamic_resizing@@@@QEBAAEBV__crt_win32_buffer_empty_debug_info@@XZ 0000000140005460 f i libucrtd:argv_wildcards.obj
 0001:00004460       ?dangerous_get_state_array@?$dual_state_global@H@__crt_state_management@@QEAAPEAHXZ 0000000140005460 f i libucrtd:txtmode.obj
 0001:00004460       ?get_address_of@?$__crt_unique_heap_ptr@PEADU__crt_internal_free_policy@@@@QEAAPEAPEAPEADXZ 0000000140005460 f i libucrtd:argv_parsing.obj
 0001:00004460       ?dangerous_get_state_array@?$dual_state_global@PEAU__crt_locale_data@@@__crt_state_management@@QEAAPEAPEAU__crt_locale_data@@XZ 0000000140005460 f i libucrtd:per_thread_data.obj
 0001:00004460       ??$forward@AEAViterator@TryBlockMap@__FrameHandler3@@@std@@YAAEAViterator@TryBlockMap@__FrameHandler3@@AEAV123@@Z 0000000140005460 f i libvcruntimed:risctrnsctrl.obj
 0001:00004460       ?dangerous_get_state_array@?$dual_state_global@P6AXPEB_W00I_K@Z@__crt_state_management@@QEAAPEAP6AXPEB_W00I_K@ZXZ 0000000140005460 f i libucrtd:invalid_parameter.obj
 0001:00004460       ?get_address_of@?$__crt_unique_handle_t@U__crt_hmodule_traits@@@@QEAAPEAPEAUHINSTANCE__@@XZ 0000000140005460 f i libucrtd:exit.obj
 0001:00004460       ?dangerous_get_state_array@?$dual_state_global@PEAE@__crt_state_management@@QEAAPEAPEAEXZ 0000000140005460 f i libucrtd:mbctype.obj
 0001:00004460       ?debug_info@?$__crt_win32_buffer@_WU__crt_win32_buffer_internal_dynamic_resizing@@@@QEBAAEBV__crt_win32_buffer_empty_debug_info@@XZ 0000000140005460 f i libucrtd:argv_wildcards.obj
 0001:00004460       ?debug_info@?$__crt_win32_buffer@DU__crt_win32_buffer_no_resizing@@@@QEBAAEBV__crt_win32_buffer_empty_debug_info@@XZ 0000000140005460 f i libucrtd:getmodulefilenamea.obj
 0001:00004470       ??0iterator@HandlerMap@__FrameHandler3@@QEAA@AEAV12@I@Z 0000000140005470 f i libvcruntimed:frame.obj
 0001:00004470       ??0iterator@TryBlockMap@__FrameHandler3@@QEAA@AEAV12@I@Z 0000000140005470 f i libvcruntimed:risctrnsctrl.obj
 0001:000044a0       ?CatchTryBlock@__FrameHandler3@@SAPEBU_s_TryBlockMapEntry@@PEBU_s_FuncInfo@@H@Z 00000001400054a0 f   libvcruntimed:risctrnsctrl.obj
 0001:00004530       ?ExecutionInCatch@__FrameHandler3@@SA_NPEAU_xDISPATCHER_CONTEXT@@PEBU_s_FuncInfo@@@Z 0000000140005530 f   libvcruntimed:risctrnsctrl.obj
 0001:00004580       ?FrameUnwindToEmptyState@__FrameHandler3@@SAXPEA_KPEAU_xDISPATCHER_CONTEXT@@PEBU_s_FuncInfo@@@Z 0000000140005580 f   libvcruntimed:risctrnsctrl.obj
 0001:00004620       ?GetEstablisherFrame@__FrameHandler3@@SAPEA_KPEA_KPEAU_xDISPATCHER_CONTEXT@@PEBU_s_FuncInfo@@0@Z 0000000140005620 f   libvcruntimed:risctrnsctrl.obj
 0001:00004790       ?GetRangeOfTrysToCheck@__FrameHandler3@@SA?AU?$pair@Viterator@TryBlockMap@__FrameHandler3@@V123@@std@@AEAVTryBlockMap@1@HPEAU_xDISPATCHER_CONTEXT@@PEBU_s_FuncInfo@@H@Z 0000000140005790 f   libvcruntimed:risctrnsctrl.obj
 0001:000049d0       ?UnwindNestedFrames@__FrameHandler3@@SAXPEA_KPEAUEHExceptionRecord@@PEAU_CONTEXT@@0PEAXPEBU_s_FuncInfo@@HHPEBU_s_HandlerType@@PEAU_xDISPATCHER_CONTEXT@@E@Z 00000001400059d0 f   libvcruntimed:risctrnsctrl.obj
 0001:00004b40       _CreateFrameInfo           0000000140005b40 f   libvcruntimed:risctrnsctrl.obj
 0001:00004bb0       _FindAndUnlinkFrame        0000000140005bb0 f   libvcruntimed:risctrnsctrl.obj
 0001:00004c30       _GetImageBase              0000000140005c30 f   libvcruntimed:risctrnsctrl.obj
 0001:00004c50       _GetThrowImageBase         0000000140005c50 f   libvcruntimed:risctrnsctrl.obj
 0001:00004c70       _SetImageBase              0000000140005c70 f   libvcruntimed:risctrnsctrl.obj
 0001:00004c90       _SetThrowImageBase         0000000140005c90 f   libvcruntimed:risctrnsctrl.obj
 0001:00004cb0       __CxxFrameHandler3         0000000140005cb0 f   libvcruntimed:risctrnsctrl.obj
 0001:00004d90       ?GetCurrentState@__FrameHandler3@@SAHPEA_KPEAU_xDISPATCHER_CONTEXT@@PEBU_s_FuncInfo@@@Z 0000000140005d90 f   libvcruntimed:ehstate.obj
 0001:00004df0       ?GetUnwindTryBlock@__FrameHandler3@@SAHPEA_KPEAU_xDISPATCHER_CONTEXT@@PEBU_s_FuncInfo@@@Z 0000000140005df0 f   libvcruntimed:ehstate.obj
 0001:00004e40       ?SetState@__FrameHandler3@@SAXPEA_KPEBU_s_FuncInfo@@H@Z 0000000140005e40 f   libvcruntimed:ehstate.obj
 0001:00004e70       ?SetUnwindTryBlock@__FrameHandler3@@SAXPEA_KPEAU_xDISPATCHER_CONTEXT@@PEBU_s_FuncInfo@@H@Z 0000000140005e70 f   libvcruntimed:ehstate.obj
 0001:00004ee0       ?StateFromControlPc@__FrameHandler3@@SAHPEBU_s_FuncInfo@@PEAU_xDISPATCHER_CONTEXT@@@Z 0000000140005ee0 f   libvcruntimed:ehstate.obj
 0001:00004f20       ?StateFromIp@__FrameHandler3@@SAHPEBU_s_FuncInfo@@PEAU_xDISPATCHER_CONTEXT@@_K@Z 0000000140005f20 f   libvcruntimed:ehstate.obj
 0001:00005010       ?__RVAtoRealOffset@@YA_KPEAU_xDISPATCHER_CONTEXT@@H@Z 0000000140006010 f i libvcruntimed:ehstate.obj
 0001:000061e0       ??$TypeMatchHelper@V__FrameHandler3@@@@YAHPEBU_s_HandlerType@@PEBU_s_CatchableType@@PEBU_s_ThrowInfo@@@Z 00000001400071e0 f i libvcruntimed:frame.obj
 0001:000063e0       ??$__InternalCxxFrameHandler@V__FrameHandler3@@@@YA?AW4_EXCEPTION_DISPOSITION@@PEAUEHExceptionRecord@@PEA_KPEAU_CONTEXT@@PEAU_xDISPATCHER_CONTEXT@@PEBU_s_FuncInfo@@H1E@Z 00000001400073e0 f i libvcruntimed:frame.obj
 0001:00006850       ??0HandlerMap@__FrameHandler3@@QEAA@PEBU_s_TryBlockMapEntry@@_KI@Z 0000000140007850 f i libvcruntimed:frame.obj
 0001:000068a0       ??0TryBlockMap@__FrameHandler3@@QEAA@PEBU_s_FuncInfo@@_K@Z 00000001400078a0 f i libvcruntimed:frame.obj
 0001:000068d0       ??0bad_exception@std@@QEAA@AEBV01@@Z 00000001400078d0 f i libvcruntimed:frame.obj
 0001:00006910       ??0bad_exception@std@@QEAA@XZ 0000000140007910 f i libvcruntimed:frame.obj
 0001:00006950       ??0exception@std@@QEAA@AEBV01@@Z 0000000140007950 f i libvcruntimed:frame.obj
 0001:000069b0       ??0exception@std@@QEAA@QEBDH@Z 00000001400079b0 f i libvcruntimed:frame.obj
 0001:00006a00       ??1bad_exception@std@@UEAA@XZ 0000000140007a00 f i libvcruntimed:frame.obj
 0001:00006a20       ??1exception@std@@UEAA@XZ  0000000140007a20 f i libvcruntimed:frame.obj
 0001:00006a50       ??8iterator@HandlerMap@__FrameHandler3@@QEBA_NAEBV012@@Z 0000000140007a50 f i libvcruntimed:frame.obj
 0001:00006a90       ??8type_info@@QEBA_NAEBV0@@Z 0000000140007a90 f i libvcruntimed:frame.obj
 0001:00006ae0       ??9iterator@HandlerMap@__FrameHandler3@@QEBA_NAEBV012@@Z 0000000140007ae0 f i libvcruntimed:frame.obj
 0001:00006b20       ??Diterator@HandlerMap@__FrameHandler3@@QEAA?BU_s_HandlerType@@XZ 0000000140007b20 f i libvcruntimed:frame.obj
 0001:00006b60       ??Diterator@TryBlockMap@__FrameHandler3@@QEAA?BU_s_TryBlockMapEntry@@XZ 0000000140007b60 f i libvcruntimed:frame.obj
 0001:00006bb0       ??Eiterator@TryBlockMap@__FrameHandler3@@QEAAAEAV012@XZ 0000000140007bb0 f i libvcruntimed:frame.obj
 0001:00006bb0       ??Eiterator@HandlerMap@__FrameHandler3@@QEAAAEAV012@XZ 0000000140007bb0 f i libvcruntimed:frame.obj
 0001:00006bd0       ??Miterator@TryBlockMap@__FrameHandler3@@QEBA_NAEBV012@@Z 0000000140007bd0 f i libvcruntimed:frame.obj
 0001:00006c10       ??_Ebad_exception@std@@UEAAPEAXI@Z 0000000140007c10 f i libvcruntimed:frame.obj
 0001:00006c10       ??_Gbad_exception@std@@UEAAPEAXI@Z 0000000140007c10 f i libvcruntimed:frame.obj
 0001:00006c50       ??_Gexception@std@@UEAAPEAXI@Z 0000000140007c50 f i libvcruntimed:frame.obj
 0001:00006c50       ??_Eexception@std@@UEAAPEAXI@Z 0000000140007c50 f i libvcruntimed:frame.obj
 0001:00006c90       ?BuildCatchObject@__FrameHandler3@@SAXPEAUEHExceptionRecord@@PEAXPEBU_s_HandlerType@@PEBU_s_CatchableType@@@Z 0000000140007c90 f   libvcruntimed:frame.obj
 0001:00006cd0       ?CxxCallCatchBlock@__FrameHandler3@@SAPEAXPEAU_EXCEPTION_RECORD@@@Z 0000000140007cd0 f   libvcruntimed:frame.obj
 0001:00007030       ?FrameUnwindToState@__FrameHandler3@@SAXPEA_KPEAU_xDISPATCHER_CONTEXT@@PEBU_s_FuncInfo@@H@Z 0000000140008030 f   libvcruntimed:frame.obj
 0001:00007280       ?GetHandlerSearchState@__FrameHandler3@@SAHPEA_KPEAU_xDISPATCHER_CONTEXT@@PEBU_s_FuncInfo@@@Z 0000000140008280 f i libvcruntimed:frame.obj
 0001:00007330       ?GetMaxState@__FrameHandler3@@SAHPEAU_xDISPATCHER_CONTEXT@@PEBU_s_FuncInfo@@@Z 0000000140008330 f i libvcruntimed:frame.obj
 0001:00007530       ?TypeMatch@__FrameHandler3@@SAHPEBU_s_HandlerType@@PEBU_s_CatchableType@@PEBU_s_ThrowInfo@@@Z 0000000140008530 f   libvcruntimed:frame.obj
 0001:00007530       __TypeMatch                0000000140008530 f   libvcruntimed:frame.obj
 0001:00007560       ?_CallMemberFunction1@@YAXQEAX00@Z 0000000140008560 f i libvcruntimed:frame.obj
 0001:000075a0       ?_CallMemberFunction2@@YAXQEAX00H@Z 00000001400085a0 f i libvcruntimed:frame.obj
 0001:00007630       ?begin@HandlerMap@__FrameHandler3@@QEAA?AViterator@12@XZ 0000000140008630 f i libvcruntimed:frame.obj
 0001:00007660       ?end@HandlerMap@__FrameHandler3@@QEAA?AViterator@12@XZ 0000000140008660 f i libvcruntimed:frame.obj
 0001:00007690       ?getESTypes@__FrameHandler3@@SAPEBU_s_ESTypeList@@PEBU_s_FuncInfo@@@Z 0000000140008690 f i libvcruntimed:frame.obj
 0001:000076d0       ?getLastEntry@HandlerMap@__FrameHandler3@@QEAAPEBU_s_HandlerType@@XZ 00000001400086d0 f i libvcruntimed:frame.obj
 0001:000076f0       ?getMagicNum@__FrameHandler3@@SAIPEBU_s_FuncInfo@@@Z 00000001400086f0 f i libvcruntimed:frame.obj
 0001:00007710       ?getNumTryBlocks@TryBlockMap@__FrameHandler3@@QEAAIXZ 0000000140008710 f i libvcruntimed:frame.obj
 0001:00007730       ?isEHs@__FrameHandler3@@SA_NPEBU_s_FuncInfo@@@Z 0000000140008730 f i libvcruntimed:frame.obj
 0001:00007770       ?isNoExcept@__FrameHandler3@@SA_NPEBU_s_FuncInfo@@@Z 0000000140008770 f i libvcruntimed:frame.obj
 0001:000077b0       ?what@exception@std@@UEBAPEBDXZ 00000001400087b0 f i libvcruntimed:frame.obj
 0001:000077f0       __vcrt_EncodePointer       00000001400087f0 f i libvcruntimed:frame.obj
 0001:00007820       memset_repmovs             0000000140008820 f   libvcruntimed:memset.obj
 0001:00007840       memset                     0000000140008840 f   libvcruntimed:memset.obj
 0001:000079e0       _CallSettingFrame          00000001400089e0 f   libvcruntimed:handlers.obj
 0001:00007a30       _CallSettingFrame_LookupContinuationIndex 0000000140008a30 f   libvcruntimed:handlers.obj
 0001:00007a60       _CallSettingFrame_NotifyContinuationAddr 0000000140008a60 f   libvcruntimed:handlers.obj
 0001:00007a90       _CallSettingFrameEncoded   0000000140008a90 f   libvcruntimed:handlers.obj
 0001:00007ae0       ??$?RD@__crt_public_free_policy@@QEBAXQEBD@Z 0000000140008ae0 f i libvcruntimed:std_exception.obj
 0001:00007b00       ??1?$__crt_unique_heap_ptr@DU__crt_public_free_policy@@@@QEAA@XZ 0000000140008b00 f i libvcruntimed:std_exception.obj
 0001:00007b20       ?release@?$__crt_unique_heap_ptr@DU__crt_public_free_policy@@@@QEAAXXZ 0000000140008b20 f i libvcruntimed:std_exception.obj
 0001:00007b50       __std_exception_copy       0000000140008b50 f   libvcruntimed:std_exception.obj
 0001:00007c90       __std_exception_destroy    0000000140008c90 f   libvcruntimed:std_exception.obj
 0001:00007cd0       _CxxThrowException         0000000140008cd0 f   libvcruntimed:throw.obj
 0001:00007e00       __acrt_errno_from_os_error 0000000140008e00 f   libucrtd:errno.obj
 0001:00007e90       __acrt_errno_map_os_error  0000000140008e90 f   libucrtd:errno.obj
 0001:00007ec0       __doserrno                 0000000140008ec0 f   libucrtd:errno.obj
 0001:00007ef0       _errno                     0000000140008ef0 f   libucrtd:errno.obj
 0001:00007f20       malloc                     0000000140008f20 f   libucrtd:malloc.obj
 0001:00007f50       ??$?BP6AXXZ@__crt_fast_encoded_nullptr_t@@QEBAPEAP6AXXZXZ 0000000140008f50 f i libucrtd:onexit.obj
 0001:00007f50       ??$?B$$A6AXXZ@__crt_fast_encoded_nullptr_t@@QEBAP6AXXZXZ 0000000140008f50 f i libucrtd:onexit.obj
 0001:00007f50       ??$?B$$A6AXH@Z@__crt_fast_encoded_nullptr_t@@QEBAP6AXH@ZXZ 0000000140008f50 f i libucrtd:signal.obj
 0001:00007f50       ??$?BX@__crt_fast_encoded_nullptr_t@@QEBAPEAXXZ 0000000140008f50 f i libucrtd:initialization.obj
 0001:00007f50       ??$?B$$A6AXPEAXK0@Z@__crt_fast_encoded_nullptr_t@@QEBAP6AXPEAXK0@ZXZ 0000000140008f50 f i libucrtd:exit.obj
 0001:00008000       ??$__crt_fast_decode_pointer@P6AH_K@Z@@YAP6AH_K@ZQ6AH0@Z@Z 0000000140009000 f i libucrtd:new_handler.obj
 0001:00008000       ??$__crt_fast_decode_pointer@PEAP6AXXZ@@YAPEAP6AXXZQEAP6AXXZ@Z 0000000140009000 f i libucrtd:onexit.obj
 0001:00008000       ??$__crt_fast_decode_pointer@P6AXPEAXK0@Z@@YAP6AXPEAXK0@ZQ6AX0K0@Z@Z 0000000140009000 f i libucrtd:exit.obj
 0001:00008000       ??$__crt_fast_decode_pointer@P6AXH@Z@@YAP6AXH@ZQ6AXH@Z@Z 0000000140009000 f i libucrtd:signal.obj
 0001:00008000       ??$__crt_fast_decode_pointer@P6AHPEAU_exception@@@Z@@YAP6AHPEAU_exception@@@ZQ6AH0@Z@Z 0000000140009000 f i libucrtd:matherr.obj
 0001:00008000       ??$__crt_fast_decode_pointer@P6AXXZ@@YAP6AXXZQ6AXXZ@Z 0000000140009000 f i libucrtd:onexit.obj
 0001:00008000       ??$__crt_fast_decode_pointer@P6AXPEB_W00I_K@Z@@YAP6AXPEB_W00I_K@ZQ6AX000I1@Z@Z 0000000140009000 f i libucrtd:invalid_parameter.obj
 0001:00008000       ??$__crt_fast_decode_pointer@PEAX@@YAPEAXQEAX@Z 0000000140009000 f i libucrtd:winapi_thunks.obj
 0001:00008040       ??$__crt_fast_encode_pointer@P6AXH@Z@@YAP6AXH@ZQ6AXH@Z@Z 0000000140009040 f i libucrtd:signal.obj
 0001:00008040       ??$__crt_fast_encode_pointer@PEAX@@YAPEAXQEAX@Z 0000000140009040 f i libucrtd:initialization.obj
 0001:00008040       ??$__crt_fast_encode_pointer@P6AHXZ@@YAP6AHXZQ6AHXZ@Z 0000000140009040 f i libucrtd:onexit.obj
 0001:00008040       ??$__crt_fast_encode_pointer@PEAP6AXXZ@@YAPEAP6AXXZQEAP6AXXZ@Z 0000000140009040 f i libucrtd:onexit.obj
 0001:00008040       ??$__crt_fast_encode_pointer@P6AHPEAU_exception@@@Z@@YAP6AHPEAU_exception@@@ZQ6AH0@Z@Z 0000000140009040 f i libucrtd:matherr.obj
 0001:00008040       ??$__crt_fast_encode_pointer@P6AXXZ@@YAP6AXXZQ6AXXZ@Z 0000000140009040 f i libucrtd:onexit.obj
 0001:00008040       ??$__crt_fast_encode_pointer@P6AXPEAXK0@Z@@YAP6AXPEAXK0@ZQ6AX0K0@Z@Z 0000000140009040 f i libucrtd:exit.obj
 0001:00008080       ??$__crt_get_proc_address@P6AXI@Z@@YAP6AXI@ZQEAUHINSTANCE__@@QEBD@Z 0000000140009080 f i libucrtd:exit.obj
 0001:000080b0       ??$__crt_interlocked_read@J@@YAJPEDJ@Z 00000001400090b0 f i libucrtd:exit.obj
 0001:00008140       ??1?$__crt_unique_handle_t@U__crt_hmodule_traits@@@@QEAA@XZ 0000000140009140 f i libucrtd:exit.obj
 0001:000082a0       ?__acrt_select_exit_lock@@YA?AW4__acrt_lock_id@@XZ 00000001400092a0 f i libucrtd:exit.obj
 0001:000082b0       ?__crt_fast_encode_pointer@@YA?AU__crt_fast_encoded_nullptr_t@@$$T@Z 00000001400092b0 f i libucrtd:exit.obj
 0001:000082d0       ?__crt_interlocked_read_32@@YAHPEDH@Z 00000001400092d0 f i libucrtd:exit.obj
 0001:000082f0       ?__crt_rotate_pointer_value@@YA_K_KH@Z 00000001400092f0 f i libucrtd:exit.obj
 0001:00008330       ?close@?$__crt_unique_handle_t@U__crt_hmodule_traits@@@@QEAAXXZ 0000000140009330 f i libucrtd:exit.obj
 0001:00008370       ?close@__crt_hmodule_traits@@SA_NPEAUHINSTANCE__@@@Z 0000000140009370 f i libucrtd:exit.obj
 0001:00008630       __acrt_initialize_thread_local_exit_callback 0000000140009630 f   libucrtd:exit.obj
 0001:00008650       _c_exit                    0000000140009650 f   libucrtd:exit.obj
 0001:00008670       _cexit                     0000000140009670 f   libucrtd:exit.obj
 0001:00008690       _exit                      0000000140009690 f   libucrtd:exit.obj
 0001:000086b0       _register_thread_local_exe_atexit_callback 00000001400096b0 f   libucrtd:exit.obj
 0001:00008700       exit                       0000000140009700 f   libucrtd:exit.obj
 0001:00008720       ??$is_overflow_condition@K@__crt_strtox@@YA_NIK@Z 0000000140009720 f i libucrtd:atox.obj
 0001:00008790       ??$make_c_string_character_source@_WPEAPEA_W@__crt_strtox@@YA?AV?$c_string_character_source@_W@0@QEB_WQEAPEA_W@Z 0000000140009790 f i libucrtd:strtox.obj
 0001:00008790       ??$make_c_string_character_source@DPEAPEAD@__crt_strtox@@YA?AV?$c_string_character_source@D@0@QEBDQEAPEAD@Z 0000000140009790 f i libucrtd:strtox.obj
 0001:00008790       ??$make_c_string_character_source@D$$T@__crt_strtox@@YA?AV?$c_string_character_source@D@0@QEBD$$T@Z 0000000140009790 f i libucrtd:atox.obj
 0001:000087d0       ??$parse_integer@KV?$c_string_character_source@D@__crt_strtox@@@__crt_strtox@@YAKQEAU__crt_locale_pointers@@V?$c_string_character_source@D@0@H_N@Z 00000001400097d0 f i libucrtd:atox.obj
 0001:00008c60       ??$parse_integer@KV?$c_string_character_source@_W@__crt_strtox@@@__crt_strtox@@YAKQEAU__crt_locale_pointers@@V?$c_string_character_source@_W@0@H_N@Z 0000000140009c60 f i libucrtd:atox.obj
 0001:00009110       ??$parse_integer_from_string@JD$$T@__crt_strtox@@YAJQEBD$$THQEAU__crt_locale_pointers@@@Z 000000014000a110 f i libucrtd:atox.obj
 0001:00009110       ??$parse_integer_from_string@JDPEAPEAD@__crt_strtox@@YAJQEBDQEAPEADHQEAU__crt_locale_pointers@@@Z 000000014000a110 f i libucrtd:strtox.obj
 0001:00009160       ??0?$c_string_character_source@_W@__crt_strtox@@QEAA@QEB_WQEAPEB_W@Z 000000014000a160 f i libucrtd:atox.obj
 0001:00009160       ??0?$c_string_character_source@D@__crt_strtox@@QEAA@QEBDQEAPEBD@Z 000000014000a160 f i libucrtd:atox.obj
 0001:000091b0       ??0_LocaleUpdate@@QEAA@QEAU__crt_locale_pointers@@@Z 000000014000a1b0 f i libucrtd:atox.obj
 0001:000092d0       ??1?$c_string_character_source@D@__crt_strtox@@QEAA@XZ 000000014000a2d0 f i libucrtd:atox.obj
 0001:000092d0       ??1?$c_string_character_source@_W@__crt_strtox@@QEAA@XZ 000000014000a2d0 f i libucrtd:atox.obj
 0001:00009300       ??1_LocaleUpdate@@QEAA@XZ  000000014000a300 f i libucrtd:atox.obj
 0001:00009330       ?GetLocaleT@_LocaleUpdate@@QEAAPEAU__crt_locale_pointers@@XZ 000000014000a330 f i libucrtd:atox.obj
 0001:00009340       ?get@?$c_string_character_source@D@__crt_strtox@@QEAADXZ 000000014000a340 f i libucrtd:atox.obj
 0001:00009380       ?get@?$c_string_character_source@_W@__crt_strtox@@QEAA_WXZ 000000014000a380 f i libucrtd:atox.obj
 0001:000093c0       ?is_space@__crt_strtox@@YA_NDQEAU__crt_locale_pointers@@@Z 000000014000a3c0 f i libucrtd:atox.obj
 0001:00009410       ?is_space@__crt_strtox@@YA_N_WPEAU__crt_locale_pointers@@@Z 000000014000a410 f i libucrtd:atox.obj
 0001:00009450       ?maximum_signed_value@__crt_strtox@@YAJK@Z 000000014000a450 f i libucrtd:atox.obj
 0001:00009460       ?minimum_signed_value@__crt_strtox@@YAJK@Z 000000014000a460 f i libucrtd:atox.obj
 0001:00009470       ?parse_digit@__crt_strtox@@YAID@Z 000000014000a470 f i libucrtd:atox.obj
 0001:000094e0       ?parse_digit@__crt_strtox@@YAI_W@Z 000000014000a4e0 f i libucrtd:atox.obj
 0001:00009530       ?restore_state@?$c_string_character_source@D@__crt_strtox@@QEAA_NQEBD@Z 000000014000a530 f i libucrtd:atox.obj
 0001:00009530       ?restore_state@?$c_string_character_source@_W@__crt_strtox@@QEAA_NQEB_W@Z 000000014000a530 f i libucrtd:atox.obj
 0001:00009550       ?unget@?$c_string_character_source@D@__crt_strtox@@QEAAXD@Z 000000014000a550 f i libucrtd:atox.obj
 0001:00009630       ?unget@?$c_string_character_source@_W@__crt_strtox@@QEAAX_W@Z 000000014000a630 f i libucrtd:atox.obj
 0001:00009710       ?validate@?$c_string_character_source@D@__crt_strtox@@QEBA_NXZ 000000014000a710 f i libucrtd:atox.obj
 0001:000097d0       ?validate@?$c_string_character_source@_W@__crt_strtox@@QEBA_NXZ 000000014000a7d0 f i libucrtd:atox.obj
 0001:00009890       ?wide_character_to_digit@__crt_strtox@@YAH_W@Z 000000014000a890 f i libucrtd:atox.obj
 0001:00009c00       __acrt_disable_global_locale_sync 000000014000ac00 f i libucrtd:atox.obj
 0001:00009c30       __acrt_enable_global_locale_sync 000000014000ac30 f i libucrtd:atox.obj
 0001:00009c60       __acrt_get_locale_data_prefix 000000014000ac60 f i libucrtd:atox.obj
 0001:00009c80       __acrt_locale_changed      000000014000ac80 f i libucrtd:atox.obj
 0001:00009cb0       __ascii_iswalpha           000000014000acb0 f i libucrtd:atox.obj
 0001:00009cf0       __ascii_toupper            000000014000acf0 f i libucrtd:atox.obj
 0001:00009d10       __ascii_towupper           000000014000ad10 f i libucrtd:atox.obj
 0001:00009d30       _chvalidchk_l              000000014000ad30 f i libucrtd:atox.obj
 0001:00009d60       _ischartype_l              000000014000ad60 f i libucrtd:atox.obj
 0001:00009df0       atoi                       000000014000adf0 f   libucrtd:atox.obj
 0001:00009e20       __acrt_initialize_stdio    000000014000ae20 f   libucrtd:_file.obj
 0001:0000a010       __acrt_iob_func            000000014000b010 f   libucrtd:_file.obj
 0001:0000a030       __acrt_uninitialize_stdio  000000014000b030 f   libucrtd:_file.obj
 0001:0000a0c0       _lock_file                 000000014000b0c0 f   libucrtd:_file.obj
 0001:0000a100       _unlock_file               000000014000b100 f   libucrtd:_file.obj
 0001:0000a140       ??$?0AEBV?$stream_output_adapter@D@__crt_stdio_output@@AEB_KAEBQEBDAEBQEAU__crt_locale_pointers@@AEBQEAD@?$standard_base@DV?$stream_output_adapter@D@__crt_stdio_output@@@__crt_stdio_output@@IEAA@AEBV?$stream_output_adapter@D@1@AEB_KAEBQEBDAEBQEAU__crt_locale_pointers@@AEBQEAD@Z 000000014000b140 f i libucrtd:output.obj
 0001:0000a140       ??$?0AEBV?$string_output_adapter@D@__crt_stdio_output@@AEB_KAEBQEBDAEBQEAU__crt_locale_pointers@@AEBQEAD@?$standard_base@DV?$string_output_adapter@D@__crt_stdio_output@@@__crt_stdio_output@@IEAA@AEBV?$string_output_adapter@D@1@AEB_KAEBQEBDAEBQEAU__crt_locale_pointers@@AEBQEAD@Z 000000014000b140 f i libucrtd:output.obj
 0001:0000a1b0       ??$?0AEBV?$string_output_adapter@D@__crt_stdio_output@@AEB_KAEBQEBDAEBQEAU__crt_locale_pointers@@AEBQEAD@?$format_validation_base@DV?$string_output_adapter@D@__crt_stdio_output@@@__crt_stdio_output@@IEAA@AEBV?$string_output_adapter@D@1@AEB_KAEBQEBDAEBQEAU__crt_locale_pointers@@AEBQEAD@Z 000000014000b1b0 f i libucrtd:output.obj
 0001:0000a200       ??$?0AEBV?$string_output_adapter@_W@__crt_stdio_output@@AEB_KAEBQEB_WAEBQEAU__crt_locale_pointers@@AEBQEAD@?$format_validation_base@_WV?$string_output_adapter@_W@__crt_stdio_output@@@__crt_stdio_output@@IEAA@AEBV?$string_output_adapter@_W@1@AEB_KAEBQEB_WAEBQEAU__crt_locale_pointers@@AEBQEAD@Z 000000014000b200 f i libucrtd:output.obj
 0001:0000a250       ??$?0AEBV?$string_output_adapter@_W@__crt_stdio_output@@AEB_KAEBQEB_WAEBQEAU__crt_locale_pointers@@AEBQEAD@?$standard_base@_WV?$string_output_adapter@_W@__crt_stdio_output@@@__crt_stdio_output@@IEAA@AEBV?$string_output_adapter@_W@1@AEB_KAEBQEB_WAEBQEAU__crt_locale_pointers@@AEBQEAD@Z 000000014000b250 f i libucrtd:output.obj
 0001:0000be30       ??$count@D@formatting_buffer@__crt_stdio_output@@QEBA_KXZ 000000014000ce30 f i libucrtd:output.obj
 0001:0000be80       ??$count@_W@formatting_buffer@__crt_stdio_output@@QEBA_KXZ 000000014000ce80 f i libucrtd:output.obj
 0001:0000bed0       ??$data@D@formatting_buffer@__crt_stdio_output@@QEAAPEADXZ 000000014000ced0 f i libucrtd:output.obj
 0001:0000bed0       ??$data@_W@formatting_buffer@__crt_stdio_output@@QEAAPEA_WXZ 000000014000ced0 f i libucrtd:output.obj
 0001:0000bf20       ??$ensure_buffer_is_big_enough@D@formatting_buffer@__crt_stdio_output@@QEAA_N_K@Z 000000014000cf20 f i libucrtd:output.obj
 0001:0000c050       ??$ensure_buffer_is_big_enough@_W@formatting_buffer@__crt_stdio_output@@QEAA_N_K@Z 000000014000d050 f i libucrtd:output.obj
 0001:0000c180       ??$extract_argument_from_va_list@C_J@?$standard_base@DV?$string_output_adapter@D@__crt_stdio_output@@@__crt_stdio_output@@IEAA_NAEA_J@Z 000000014000d180 f i libucrtd:output.obj
 0001:0000c180       ??$extract_argument_from_va_list@C_J@?$standard_base@DV?$stream_output_adapter@D@__crt_stdio_output@@@__crt_stdio_output@@IEAA_NAEA_J@Z 000000014000d180 f i libucrtd:output.obj
 0001:0000c180       ??$extract_argument_from_va_list@C_J@?$standard_base@_WV?$string_output_adapter@_W@__crt_stdio_output@@@__crt_stdio_output@@IEAA_NAEA_J@Z 000000014000d180 f i libucrtd:output.obj
 0001:0000c1c0       ??$extract_argument_from_va_list@E_J@?$standard_base@DV?$stream_output_adapter@D@__crt_stdio_output@@@__crt_stdio_output@@IEAA_NAEA_J@Z 000000014000d1c0 f i libucrtd:output.obj
 0001:0000c1c0       ??$extract_argument_from_va_list@E_J@?$standard_base@_WV?$string_output_adapter@_W@__crt_stdio_output@@@__crt_stdio_output@@IEAA_NAEA_J@Z 000000014000d1c0 f i libucrtd:output.obj
 0001:0000c1c0       ??$extract_argument_from_va_list@E_J@?$standard_base@DV?$string_output_adapter@D@__crt_stdio_output@@@__crt_stdio_output@@IEAA_NAEA_J@Z 000000014000d1c0 f i libucrtd:output.obj
 0001:0000c200       ??$extract_argument_from_va_list@F_J@?$standard_base@DV?$stream_output_adapter@D@__crt_stdio_output@@@__crt_stdio_output@@IEAA_NAEA_J@Z 000000014000d200 f i libucrtd:output.obj
 0001:0000c200       ??$extract_argument_from_va_list@F_J@?$standard_base@_WV?$string_output_adapter@_W@__crt_stdio_output@@@__crt_stdio_output@@IEAA_NAEA_J@Z 000000014000d200 f i libucrtd:output.obj
 0001:0000c200       ??$extract_argument_from_va_list@F_J@?$standard_base@DV?$string_output_adapter@D@__crt_stdio_output@@@__crt_stdio_output@@IEAA_NAEA_J@Z 000000014000d200 f i libucrtd:output.obj
 0001:0000c240       ??$extract_argument_from_va_list@GD@?$standard_base@DV?$stream_output_adapter@D@__crt_stdio_output@@@__crt_stdio_output@@IEAA_NAEAD@Z 000000014000d240 f i libucrtd:output.obj
 0001:0000c240       ??$extract_argument_from_va_list@GD@?$standard_base@DV?$string_output_adapter@D@__crt_stdio_output@@@__crt_stdio_output@@IEAA_NAEAD@Z 000000014000d240 f i libucrtd:output.obj
 0001:0000c270       ??$extract_argument_from_va_list@G_J@?$standard_base@_WV?$string_output_adapter@_W@__crt_stdio_output@@@__crt_stdio_output@@IEAA_NAEA_J@Z 000000014000d270 f i libucrtd:output.obj
 0001:0000c270       ??$extract_argument_from_va_list@G_J@?$standard_base@DV?$string_output_adapter@D@__crt_stdio_output@@@__crt_stdio_output@@IEAA_NAEA_J@Z 000000014000d270 f i libucrtd:output.obj
 0001:0000c270       ??$extract_argument_from_va_list@G_J@?$standard_base@DV?$stream_output_adapter@D@__crt_stdio_output@@@__crt_stdio_output@@IEAA_NAEA_J@Z 000000014000d270 f i libucrtd:output.obj
 0001:0000c2b0       ??$extract_argument_from_va_list@H_J@?$standard_base@DV?$stream_output_adapter@D@__crt_stdio_output@@@__crt_stdio_output@@IEAA_NAEA_J@Z 000000014000d2b0 f i libucrtd:output.obj
 0001:0000c2b0       ??$extract_argument_from_va_list@H_J@?$standard_base@_WV?$string_output_adapter@_W@__crt_stdio_output@@@__crt_stdio_output@@IEAA_NAEA_J@Z 000000014000d2b0 f i libucrtd:output.obj
 0001:0000c2b0       ??$extract_argument_from_va_list@H_J@?$standard_base@DV?$string_output_adapter@D@__crt_stdio_output@@@__crt_stdio_output@@IEAA_NAEA_J@Z 000000014000d2b0 f i libucrtd:output.obj
 0001:0000c2e0       ??$extract_argument_from_va_list@I_J@?$standard_base@DV?$stream_output_adapter@D@__crt_stdio_output@@@__crt_stdio_output@@IEAA_NAEA_J@Z 000000014000d2e0 f i libucrtd:output.obj
 0001:0000c2e0       ??$extract_argument_from_va_list@I_J@?$standard_base@DV?$string_output_adapter@D@__crt_stdio_output@@@__crt_stdio_output@@IEAA_NAEA_J@Z 000000014000d2e0 f i libucrtd:output.obj
 0001:0000c2e0       ??$extract_argument_from_va_list@I_J@?$standard_base@_WV?$string_output_adapter@_W@__crt_stdio_output@@@__crt_stdio_output@@IEAA_NAEA_J@Z 000000014000d2e0 f i libucrtd:output.obj
 0001:0000c310       ??$extract_argument_from_va_list@PEAXPEAX@?$standard_base@DV?$stream_output_adapter@D@__crt_stdio_output@@@__crt_stdio_output@@IEAA_NAEAPEAX@Z 000000014000d310 f i libucrtd:output.obj
 0001:0000c310       ??$extract_argument_from_va_list@PEAUansi_string@?1??type_case_Z@?$output_processor@_WV?$string_output_adapter@_W@__crt_stdio_output@@V?$format_validation_base@_WV?$string_output_adapter@_W@__crt_stdio_output@@@2@@__crt_stdio_output@@AEAA_NXZ@PEAU1?1??234@AEAA_NXZ@@?$standard_base@_WV?$string_output_adapter@_W@__crt_stdio_output@@@__crt_stdio_output@@IEAA_NAEAPEAUansi_string@?1??type_case_Z@?$output_processor@_WV?$string_output_adapter@_W@__crt_stdio_output@@V?$format_validation_base@_WV?$string_output_adapter@_W@__crt_stdio_output@@@2@@1@AEAA_NXZ@@Z 000000014000d310 f i libucrtd:output.obj
 0001:0000c310       ??$extract_argument_from_va_list@PEADPEAD@?$standard_base@_WV?$string_output_adapter@_W@__crt_stdio_output@@@__crt_stdio_output@@IEAA_NAEAPEAD@Z 000000014000d310 f i libucrtd:output.obj
 0001:0000c310       ??$extract_argument_from_va_list@PEADPEAD@?$standard_base@DV?$string_output_adapter@D@__crt_stdio_output@@@__crt_stdio_output@@IEAA_NAEAPEAD@Z 000000014000d310 f i libucrtd:output.obj
 0001:0000c310       ??$extract_argument_from_va_list@_K_J@?$standard_base@DV?$string_output_adapter@D@__crt_stdio_output@@@__crt_stdio_output@@IEAA_NAEA_J@Z 000000014000d310 f i libucrtd:output.obj
 0001:0000c310       ??$extract_argument_from_va_list@_K_J@?$standard_base@DV?$stream_output_adapter@D@__crt_stdio_output@@@__crt_stdio_output@@IEAA_NAEA_J@Z 000000014000d310 f i libucrtd:output.obj
 0001:0000c310       ??$extract_argument_from_va_list@PEAXPEAX@?$standard_base@_WV?$string_output_adapter@_W@__crt_stdio_output@@@__crt_stdio_output@@IEAA_NAEAPEAX@Z 000000014000d310 f i libucrtd:output.obj
 0001:0000c310       ??$extract_argument_from_va_list@PEAXPEAX@?$standard_base@DV?$string_output_adapter@D@__crt_stdio_output@@@__crt_stdio_output@@IEAA_NAEAPEAX@Z 000000014000d310 f i libucrtd:output.obj
 0001:0000c310       ??$extract_argument_from_va_list@_J_J@?$standard_base@DV?$stream_output_adapter@D@__crt_stdio_output@@@__crt_stdio_output@@IEAA_NAEA_J@Z 000000014000d310 f i libucrtd:output.obj
 0001:0000c310       ??$extract_argument_from_va_list@_J_J@?$standard_base@DV?$string_output_adapter@D@__crt_stdio_output@@@__crt_stdio_output@@IEAA_NAEA_J@Z 000000014000d310 f i libucrtd:output.obj
 0001:0000c310       ??$extract_argument_from_va_list@PEADPEAD@?$standard_base@DV?$stream_output_adapter@D@__crt_stdio_output@@@__crt_stdio_output@@IEAA_NAEAPEAD@Z 000000014000d310 f i libucrtd:output.obj
 0001:0000c310       ??$extract_argument_from_va_list@PEAUansi_string@?1??type_case_Z@?$output_processor@DV?$string_output_adapter@D@__crt_stdio_output@@V?$format_validation_base@DV?$string_output_adapter@D@__crt_stdio_output@@@2@@__crt_stdio_output@@AEAA_NXZ@PEAU1?1??234@AEAA_NXZ@@?$standard_base@DV?$string_output_adapter@D@__crt_stdio_output@@@__crt_stdio_output@@IEAA_NAEAPEAUansi_string@?1??type_case_Z@?$output_processor@DV?$string_output_adapter@D@__crt_stdio_output@@V?$format_validation_base@DV?$string_output_adapter@D@__crt_stdio_output@@@2@@1@AEAA_NXZ@@Z 000000014000d310 f i libucrtd:output.obj
 0001:0000c310       ??$extract_argument_from_va_list@_J_J@?$standard_base@_WV?$string_output_adapter@_W@__crt_stdio_output@@@__crt_stdio_output@@IEAA_NAEA_J@Z 000000014000d310 f i libucrtd:output.obj
 0001:0000c310       ??$extract_argument_from_va_list@_K_J@?$standard_base@_WV?$string_output_adapter@_W@__crt_stdio_output@@@__crt_stdio_output@@IEAA_NAEA_J@Z 000000014000d310 f i libucrtd:output.obj
 0001:0000c310       ??$extract_argument_from_va_list@PEAUansi_string@?1??type_case_Z@?$output_processor@DV?$stream_output_adapter@D@__crt_stdio_output@@V?$standard_base@DV?$stream_output_adapter@D@__crt_stdio_output@@@2@@__crt_stdio_output@@AEAA_NXZ@PEAU1?1??234@AEAA_NXZ@@?$standard_base@DV?$stream_output_adapter@D@__crt_stdio_output@@@__crt_stdio_output@@IEAA_NAEAPEAUansi_string@?1??type_case_Z@?$output_processor@DV?$stream_output_adapter@D@__crt_stdio_output@@V?$standard_base@DV?$stream_output_adapter@D@__crt_stdio_output@@@2@@1@AEAA_NXZ@@Z 000000014000d310 f i libucrtd:output.obj
 0001:0000c340       ??$extract_argument_from_va_list@U_CRT_DOUBLE@@U1@@?$standard_base@DV?$stream_output_adapter@D@__crt_stdio_output@@@__crt_stdio_output@@IEAA_NAEAU_CRT_DOUBLE@@@Z 000000014000d340 f i libucrtd:output.obj
 0001:0000c340       ??$extract_argument_from_va_list@U_CRT_DOUBLE@@U1@@?$standard_base@DV?$string_output_adapter@D@__crt_stdio_output@@@__crt_stdio_output@@IEAA_NAEAU_CRT_DOUBLE@@@Z 000000014000d340 f i libucrtd:output.obj
 0001:0000c340       ??$extract_argument_from_va_list@U_CRT_DOUBLE@@U1@@?$standard_base@_WV?$string_output_adapter@_W@__crt_stdio_output@@@__crt_stdio_output@@IEAA_NAEAU_CRT_DOUBLE@@@Z 000000014000d340 f i libucrtd:output.obj
 0001:0000c390       ??$extract_argument_from_va_list@_W_W@?$standard_base@DV?$stream_output_adapter@D@__crt_stdio_output@@@__crt_stdio_output@@IEAA_NAEA_W@Z 000000014000d390 f i libucrtd:output.obj
 0001:0000c390       ??$extract_argument_from_va_list@_W_W@?$standard_base@DV?$string_output_adapter@D@__crt_stdio_output@@@__crt_stdio_output@@IEAA_NAEA_W@Z 000000014000d390 f i libucrtd:output.obj
 0001:0000c390       ??$extract_argument_from_va_list@_W_W@?$standard_base@_WV?$string_output_adapter@_W@__crt_stdio_output@@@__crt_stdio_output@@IEAA_NAEA_W@Z 000000014000d390 f i libucrtd:output.obj
 0001:0000c3c0       ??$is_wide_character_specifier@D@__crt_stdio_output@@YA_N_KDW4length_modifier@0@@Z 000000014000d3c0 f i libucrtd:output.obj
 0001:0000c460       ??$is_wide_character_specifier@_W@__crt_stdio_output@@YA_N_K_WW4length_modifier@0@@Z 000000014000d460 f i libucrtd:output.obj
 0001:0000c530       ??$puttc_nolock@AEBDPEAU_iobuf@@@?$__crt_char_traits@D@@SAHAEBD$$QEAPEAU_iobuf@@@Z 000000014000d530 f i libucrtd:output.obj
 0001:0000c560       ??$read_va_arg@C@__crt_stdio_output@@YACAEAPEAD@Z 000000014000d560 f i libucrtd:output.obj
 0001:0000c560       ??$read_va_arg@E@__crt_stdio_output@@YAEAEAPEAD@Z 000000014000d560 f i libucrtd:output.obj
 0001:0000c5d0       ??$read_va_arg@F@__crt_stdio_output@@YAFAEAPEAD@Z 000000014000d5d0 f i libucrtd:output.obj
 0001:0000c5d0       ??$read_va_arg@_W@__crt_stdio_output@@YA_WAEAPEAD@Z 000000014000d5d0 f i libucrtd:output.obj
 0001:0000c5d0       ??$read_va_arg@G@__crt_stdio_output@@YAGAEAPEAD@Z 000000014000d5d0 f i libucrtd:output.obj
 0001:0000c640       ??$read_va_arg@I@__crt_stdio_output@@YAIAEAPEAD@Z 000000014000d640 f i libucrtd:output.obj
 0001:0000c640       ??$read_va_arg@H@__crt_stdio_output@@YAHAEAPEAD@Z 000000014000d640 f i libucrtd:output.obj
 0001:0000c6a0       ??$read_va_arg@PEAUansi_string@?1??type_case_Z@?$output_processor@DV?$stream_output_adapter@D@__crt_stdio_output@@V?$standard_base@DV?$stream_output_adapter@D@__crt_stdio_output@@@2@@__crt_stdio_output@@AEAA_NXZ@@__crt_stdio_output@@YAPEAUansi_string@?1??type_case_Z@?$output_processor@DV?$stream_output_adapter@D@__crt_stdio_output@@V?$standard_base@DV?$stream_output_adapter@D@__crt_stdio_output@@@2@@0@AEAA_NXZ@AEAPEAD@Z 000000014000d6a0 f i libucrtd:output.obj
 0001:0000c6a0       ??$read_va_arg@PEAX@__crt_stdio_output@@YAPEAXAEAPEAD@Z 000000014000d6a0 f i libucrtd:output.obj
 0001:0000c6a0       ??$read_va_arg@U_CRT_DOUBLE@@@__crt_stdio_output@@YA?AU_CRT_DOUBLE@@AEAPEAD@Z 000000014000d6a0 f i libucrtd:output.obj
 0001:0000c6a0       ??$read_va_arg@PEAD@__crt_stdio_output@@YAPEADAEAPEAD@Z 000000014000d6a0 f i libucrtd:output.obj
 0001:0000c6a0       ??$read_va_arg@PEAUansi_string@?1??type_case_Z@?$output_processor@_WV?$string_output_adapter@_W@__crt_stdio_output@@V?$format_validation_base@_WV?$string_output_adapter@_W@__crt_stdio_output@@@2@@__crt_stdio_output@@AEAA_NXZ@@__crt_stdio_output@@YAPEAUansi_string@?1??type_case_Z@?$output_processor@_WV?$string_output_adapter@_W@__crt_stdio_output@@V?$format_validation_base@_WV?$string_output_adapter@_W@__crt_stdio_output@@@2@@0@AEAA_NXZ@AEAPEAD@Z 000000014000d6a0 f i libucrtd:output.obj
 0001:0000c6a0       ??$read_va_arg@_J@__crt_stdio_output@@YA_JAEAPEAD@Z 000000014000d6a0 f i libucrtd:output.obj
 0001:0000c6a0       ??$read_va_arg@_K@__crt_stdio_output@@YA_KAEAPEAD@Z 000000014000d6a0 f i libucrtd:output.obj
 0001:0000c6a0       ??$read_va_arg@PEAUansi_string@?1??type_case_Z@?$output_processor@DV?$string_output_adapter@D@__crt_stdio_output@@V?$format_validation_base@DV?$string_output_adapter@D@__crt_stdio_output@@@2@@__crt_stdio_output@@AEAA_NXZ@@__crt_stdio_output@@YAPEAUansi_string@?1??type_case_Z@?$output_processor@DV?$string_output_adapter@D@__crt_stdio_output@@V?$format_validation_base@DV?$string_output_adapter@D@__crt_stdio_output@@@2@@0@AEAA_NXZ@AEAPEAD@Z 000000014000d6a0 f i libucrtd:output.obj
 0001:0000c710       ??$scratch_count@D@formatting_buffer@__crt_stdio_output@@QEBA_KXZ 000000014000d710 f i libucrtd:output.obj
 0001:0000c730       ??$scratch_data@D@formatting_buffer@__crt_stdio_output@@QEAAPEADXZ 000000014000d730 f i libucrtd:output.obj
 0001:0000c7a0       ??$tcstol@PEBDPEAPEADH@?$__crt_char_traits@D@@SAJ$$QEAPEBD$$QEAPEAPEAD$$QEAH@Z 000000014000d7a0 f i libucrtd:output.obj
 0001:0000c7e0       ??$tcstol@PEB_WPEAPEA_WH@?$__crt_char_traits@_W@@SAJ$$QEAPEB_W$$QEAPEAPEA_W$$QEAH@Z 000000014000d7e0 f i libucrtd:output.obj
 0001:0000c820       ??$type_case_integer_parse_into_buffer@I@?$output_processor@DV?$string_output_adapter@D@__crt_stdio_output@@V?$format_validation_base@DV?$string_output_adapter@D@__crt_stdio_output@@@2@@__crt_stdio_output@@AEAAXII_N@Z 000000014000d820 f i libucrtd:output.obj
 0001:0000c820       ??$type_case_integer_parse_into_buffer@I@?$output_processor@DV?$stream_output_adapter@D@__crt_stdio_output@@V?$standard_base@DV?$stream_output_adapter@D@__crt_stdio_output@@@2@@__crt_stdio_output@@AEAAXII_N@Z 000000014000d820 f i libucrtd:output.obj
 0001:0000c950       ??$type_case_integer_parse_into_buffer@I@?$output_processor@_WV?$string_output_adapter@_W@__crt_stdio_output@@V?$format_validation_base@_WV?$string_output_adapter@_W@__crt_stdio_output@@@2@@__crt_stdio_output@@AEAAXII_N@Z 000000014000d950 f i libucrtd:output.obj
 0001:0000ca90       ??$type_case_integer_parse_into_buffer@_K@?$output_processor@DV?$stream_output_adapter@D@__crt_stdio_output@@V?$standard_base@DV?$stream_output_adapter@D@__crt_stdio_output@@@2@@__crt_stdio_output@@AEAAX_KI_N@Z 000000014000da90 f i libucrtd:output.obj
 0001:0000ca90       ??$type_case_integer_parse_into_buffer@_K@?$output_processor@DV?$string_output_adapter@D@__crt_stdio_output@@V?$format_validation_base@DV?$string_output_adapter@D@__crt_stdio_output@@@2@@__crt_stdio_output@@AEAAX_KI_N@Z 000000014000da90 f i libucrtd:output.obj
 0001:0000cbe0       ??$type_case_integer_parse_into_buffer@_K@?$output_processor@_WV?$string_output_adapter@_W@__crt_stdio_output@@V?$format_validation_base@_WV?$string_output_adapter@_W@__crt_stdio_output@@@2@@__crt_stdio_output@@AEAAX_KI_N@Z 000000014000dbe0 f i libucrtd:output.obj
 0001:0000cd40       ??$write_multiple_characters@V?$stream_output_adapter@D@__crt_stdio_output@@D@__crt_stdio_output@@YAXAEBV?$stream_output_adapter@D@0@DHQEAH@Z 000000014000dd40 f i libucrtd:output.obj
 0001:0000cda0       ??$write_multiple_characters@V?$string_output_adapter@D@__crt_stdio_output@@D@__crt_stdio_output@@YAXAEBV?$string_output_adapter@D@0@DHQEAH@Z 000000014000dda0 f i libucrtd:output.obj
 0001:0000ce00       ??$write_multiple_characters@V?$string_output_adapter@_W@__crt_stdio_output@@D@__crt_stdio_output@@YAXAEBV?$string_output_adapter@_W@0@DHQEAH@Z 000000014000de00 f i libucrtd:output.obj
 0001:0000cee0       ??0?$common_data@D@__crt_stdio_output@@IEAA@XZ 000000014000dee0 f i libucrtd:output.obj
 0001:0000cfb0       ??0?$common_data@_W@__crt_stdio_output@@IEAA@XZ 000000014000dfb0 f i libucrtd:output.obj
 0001:0000d080       ??0?$output_adapter_data@DV?$string_output_adapter@D@__crt_stdio_output@@@__crt_stdio_output@@IEAA@AEBV?$string_output_adapter@D@1@_KQEBDQEAU__crt_locale_pointers@@QEAD@Z 000000014000e080 f i libucrtd:output.obj
 0001:0000d080       ??0?$output_adapter_data@DV?$stream_output_adapter@D@__crt_stdio_output@@@__crt_stdio_output@@IEAA@AEBV?$stream_output_adapter@D@1@_KQEBDQEAU__crt_locale_pointers@@QEAD@Z 000000014000e080 f i libucrtd:output.obj
 0001:0000d100       ??0?$output_adapter_data@_WV?$string_output_adapter@_W@__crt_stdio_output@@@__crt_stdio_output@@IEAA@AEBV?$string_output_adapter@_W@1@_KQEB_WQEAU__crt_locale_pointers@@QEAD@Z 000000014000e100 f i libucrtd:output.obj
 0001:0000d180       ??0?$output_processor@DV?$stream_output_adapter@D@__crt_stdio_output@@V?$standard_base@DV?$stream_output_adapter@D@__crt_stdio_output@@@2@@__crt_stdio_output@@QEAA@AEBV?$stream_output_adapter@D@1@_KQEBDQEAU__crt_locale_pointers@@QEAD@Z 000000014000e180 f i libucrtd:output.obj
 0001:0000d1d0       ??0?$output_processor@DV?$string_output_adapter@D@__crt_stdio_output@@V?$format_validation_base@DV?$string_output_adapter@D@__crt_stdio_output@@@2@@__crt_stdio_output@@QEAA@AEBV?$string_output_adapter@D@1@_KQEBDQEAU__crt_locale_pointers@@QEAD@Z 000000014000e1d0 f i libucrtd:output.obj
 0001:0000d220       ??0?$output_processor@_WV?$string_output_adapter@_W@__crt_stdio_output@@V?$format_validation_base@_WV?$string_output_adapter@_W@__crt_stdio_output@@@2@@__crt_stdio_output@@QEAA@AEBV?$string_output_adapter@_W@1@_KQEB_WQEAU__crt_locale_pointers@@QEAD@Z 000000014000e220 f i libucrtd:output.obj
 0001:0000d270       ??0?$stream_output_adapter@D@__crt_stdio_output@@QEAA@QEAU_iobuf@@@Z 000000014000e270 f i libucrtd:output.obj
 0001:0000d2a0       ??0__acrt_stdio_temporary_buffering_guard@@QEAA@QEAU_iobuf@@@Z 000000014000e2a0 f i libucrtd:output.obj
 0001:0000d2e0       ??0__crt_deferred_errno_cache@@QEAA@XZ 000000014000e2e0 f i libucrtd:output.obj
 0001:0000d300       ??0__crt_errno_guard@@QEAA@QEAH@Z 000000014000e300 f i libucrtd:output.obj
 0001:0000d340       ??0formatting_buffer@__crt_stdio_output@@QEAA@XZ 000000014000e340 f i libucrtd:output.obj
 0001:0000d380       ??1?$common_data@_W@__crt_stdio_output@@QEAA@XZ 000000014000e380 f i libucrtd:output.obj
 0001:0000d380       ??1?$common_data@D@__crt_stdio_output@@QEAA@XZ 000000014000e380 f i libucrtd:output.obj
 0001:0000d3a0       ??1?$output_processor@DV?$stream_output_adapter@D@__crt_stdio_output@@V?$standard_base@DV?$stream_output_adapter@D@__crt_stdio_output@@@2@@__crt_stdio_output@@QEAA@XZ 000000014000e3a0 f i libucrtd:output.obj
 0001:0000d3a0       ??1?$format_validation_base@DV?$string_output_adapter@D@__crt_stdio_output@@@__crt_stdio_output@@QEAA@XZ 000000014000e3a0 f i libucrtd:output.obj
 0001:0000d3a0       ??1?$format_validation_base@_WV?$string_output_adapter@_W@__crt_stdio_output@@@__crt_stdio_output@@QEAA@XZ 000000014000e3a0 f i libucrtd:output.obj
 0001:0000d3c0       ??1?$output_adapter_data@DV?$stream_output_adapter@D@__crt_stdio_output@@@__crt_stdio_output@@QEAA@XZ 000000014000e3c0 f i libucrtd:output.obj
 0001:0000d3c0       ??1?$output_adapter_data@_WV?$string_output_adapter@_W@__crt_stdio_output@@@__crt_stdio_output@@QEAA@XZ 000000014000e3c0 f i libucrtd:output.obj
 0001:0000d3c0       ??1?$output_adapter_data@DV?$string_output_adapter@D@__crt_stdio_output@@@__crt_stdio_output@@QEAA@XZ 000000014000e3c0 f i libucrtd:output.obj
 0001:0000d3e0       ??1?$output_processor@DV?$string_output_adapter@D@__crt_stdio_output@@V?$format_validation_base@DV?$string_output_adapter@D@__crt_stdio_output@@@2@@__crt_stdio_output@@QEAA@XZ 000000014000e3e0 f i libucrtd:output.obj
 0001:0000d3e0       ??1?$output_processor@_WV?$string_output_adapter@_W@__crt_stdio_output@@V?$format_validation_base@_WV?$string_output_adapter@_W@__crt_stdio_output@@@2@@__crt_stdio_output@@QEAA@XZ 000000014000e3e0 f i libucrtd:output.obj
 0001:0000d400       ??1?$standard_base@DV?$stream_output_adapter@D@__crt_stdio_output@@@__crt_stdio_output@@QEAA@XZ 000000014000e400 f i libucrtd:output.obj
 0001:0000d400       ??1?$standard_base@DV?$string_output_adapter@D@__crt_stdio_output@@@__crt_stdio_output@@QEAA@XZ 000000014000e400 f i libucrtd:output.obj
 0001:0000d400       ??1?$standard_base@_WV?$string_output_adapter@_W@__crt_stdio_output@@@__crt_stdio_output@@QEAA@XZ 000000014000e400 f i libucrtd:output.obj
 0001:0000d420       ??1__acrt_stdio_temporary_buffering_guard@@QEAA@XZ 000000014000e420 f i libucrtd:output.obj
 0001:0000d450       ??1__crt_errno_guard@@QEAA@XZ 000000014000e450 f i libucrtd:output.obj
 0001:0000d480       ??1formatting_buffer@__crt_stdio_output@@QEAA@XZ 000000014000e480 f i libucrtd:output.obj
 0001:0000d4b0       ??4?$__crt_unique_heap_ptr@DU__crt_internal_free_policy@@@@QEAAAEAV0@$$QEAV0@@Z 000000014000e4b0 f i libucrtd:output.obj
 0001:0000d4f0       ??A?$spectre_mitigated_lookup_table@Ustate_transition_pair@__crt_stdio_output@@$0IA@@__crt_stdio_output@@QEBAAEBUstate_transition_pair@1@_K@Z 000000014000e4f0 f i libucrtd:output.obj
 0001:0000d680       ?adjust_hexit@?$output_processor@DV?$stream_output_adapter@D@__crt_stdio_output@@V?$standard_base@DV?$stream_output_adapter@D@__crt_stdio_output@@@2@@__crt_stdio_output@@CADH_N@Z 000000014000e680 f i libucrtd:output.obj
 0001:0000d680       ?adjust_hexit@?$output_processor@DV?$string_output_adapter@D@__crt_stdio_output@@V?$format_validation_base@DV?$string_output_adapter@D@__crt_stdio_output@@@2@@__crt_stdio_output@@CADH_N@Z 000000014000e680 f i libucrtd:output.obj
 0001:0000d680       ?adjust_hexit@?$output_processor@_WV?$string_output_adapter@_W@__crt_stdio_output@@V?$format_validation_base@_WV?$string_output_adapter@_W@__crt_stdio_output@@@2@@__crt_stdio_output@@CADH_N@Z 000000014000e680 f i libucrtd:output.obj
 0001:0000d6d0       ?advance_to_next_pass@?$standard_base@DV?$stream_output_adapter@D@__crt_stdio_output@@@__crt_stdio_output@@IEAA_NXZ 000000014000e6d0 f i libucrtd:output.obj
 0001:0000d6d0       ?advance_to_next_pass@?$standard_base@_WV?$string_output_adapter@_W@__crt_stdio_output@@@__crt_stdio_output@@IEAA_NXZ 000000014000e6d0 f i libucrtd:output.obj
 0001:0000d6d0       ?advance_to_next_pass@?$standard_base@DV?$string_output_adapter@D@__crt_stdio_output@@@__crt_stdio_output@@IEAA_NXZ 000000014000e6d0 f i libucrtd:output.obj
 0001:0000d720       ?crop_zeroes@__crt_stdio_output@@YAXPEADQEAU__crt_locale_pointers@@@Z 000000014000e720 f i libucrtd:output.obj
 0001:0000d860       ?find_next_state@?$output_processor@DV?$stream_output_adapter@D@__crt_stdio_output@@V?$standard_base@DV?$stream_output_adapter@D@__crt_stdio_output@@@2@@__crt_stdio_output@@AEBA?AW4state@2@DW432@@Z 000000014000e860 f i libucrtd:output.obj
 0001:0000d8f0       ?find_next_state@?$output_processor@DV?$string_output_adapter@D@__crt_stdio_output@@V?$format_validation_base@DV?$string_output_adapter@D@__crt_stdio_output@@@2@@__crt_stdio_output@@AEBA?AW4state@2@DW432@@Z 000000014000e8f0 f i libucrtd:output.obj
 0001:0000d980       ?find_next_state@?$output_processor@_WV?$string_output_adapter@_W@__crt_stdio_output@@V?$format_validation_base@_WV?$string_output_adapter@_W@__crt_stdio_output@@@2@@__crt_stdio_output@@AEBA?AW4state@2@_WW432@@Z 000000014000e980 f i libucrtd:output.obj
 0001:0000da10       ?force_decimal_point@__crt_stdio_output@@YAXPEADQEAU__crt_locale_pointers@@@Z 000000014000ea10 f i libucrtd:output.obj
 0001:0000db10       ?get@__crt_deferred_errno_cache@@QEAAAEAHXZ 000000014000eb10 f i libucrtd:output.obj
 0001:0000db40       ?get_flags@__crt_stdio_stream@@QEBAJXZ 000000014000eb40 f i libucrtd:output.obj
 0001:0000db70       ?has_flag@?$output_processor@DV?$string_output_adapter@D@__crt_stdio_output@@V?$format_validation_base@DV?$string_output_adapter@D@__crt_stdio_output@@@2@@__crt_stdio_output@@AEBA_NI@Z 000000014000eb70 f i libucrtd:output.obj
 0001:0000db70       ?has_flag@?$output_processor@DV?$stream_output_adapter@D@__crt_stdio_output@@V?$standard_base@DV?$stream_output_adapter@D@__crt_stdio_output@@@2@@__crt_stdio_output@@AEBA_NI@Z 000000014000eb70 f i libucrtd:output.obj
 0001:0000db70       ?has_flag@?$output_processor@_WV?$string_output_adapter@_W@__crt_stdio_output@@V?$format_validation_base@_WV?$string_output_adapter@_W@__crt_stdio_output@@@2@@__crt_stdio_output@@AEBA_NI@Z 000000014000eb70 f i libucrtd:output.obj
 0001:0000dbb0       ?is_string_backed@__crt_stdio_stream@@QEBA_NXZ 000000014000ebb0 f i libucrtd:output.obj
 0001:0000dbf0       ?narrow_null_string@?$output_processor@DV?$stream_output_adapter@D@__crt_stdio_output@@V?$standard_base@DV?$stream_output_adapter@D@__crt_stdio_output@@@2@@__crt_stdio_output@@CAPEADXZ 000000014000ebf0 f i libucrtd:output.obj
 0001:0000dbf0       ?narrow_null_string@?$output_processor@DV?$string_output_adapter@D@__crt_stdio_output@@V?$format_validation_base@DV?$string_output_adapter@D@__crt_stdio_output@@@2@@__crt_stdio_output@@CAPEADXZ 000000014000ebf0 f i libucrtd:output.obj
 0001:0000dbf0       ?narrow_null_string@?$output_processor@_WV?$string_output_adapter@_W@__crt_stdio_output@@V?$format_validation_base@_WV?$string_output_adapter@_W@__crt_stdio_output@@@2@@__crt_stdio_output@@CAPEADXZ 000000014000ebf0 f i libucrtd:output.obj
 0001:0000dc00       ?parse_int_from_format_string@?$output_processor@DV?$string_output_adapter@D@__crt_stdio_output@@V?$format_validation_base@DV?$string_output_adapter@D@__crt_stdio_output@@@2@@__crt_stdio_output@@AEAA_NQEAH@Z 000000014000ec00 f i libucrtd:output.obj
 0001:0000dc00       ?parse_int_from_format_string@?$output_processor@DV?$stream_output_adapter@D@__crt_stdio_output@@V?$standard_base@DV?$stream_output_adapter@D@__crt_stdio_output@@@2@@__crt_stdio_output@@AEAA_NQEAH@Z 000000014000ec00 f i libucrtd:output.obj
 0001:0000dcf0       ?parse_int_from_format_string@?$output_processor@_WV?$string_output_adapter@_W@__crt_stdio_output@@V?$format_validation_base@_WV?$string_output_adapter@_W@__crt_stdio_output@@@2@@__crt_stdio_output@@AEAA_NQEAH@Z 000000014000ecf0 f i libucrtd:output.obj
 0001:0000dde0       ?process@?$output_processor@DV?$stream_output_adapter@D@__crt_stdio_output@@V?$standard_base@DV?$stream_output_adapter@D@__crt_stdio_output@@@2@@__crt_stdio_output@@QEAAHXZ 000000014000ede0 f i libucrtd:output.obj
 0001:0000e140       ?process@?$output_processor@DV?$string_output_adapter@D@__crt_stdio_output@@V?$format_validation_base@DV?$string_output_adapter@D@__crt_stdio_output@@@2@@__crt_stdio_output@@QEAAHXZ 000000014000f140 f i libucrtd:output.obj
 0001:0000e4a0       ?process@?$output_processor@_WV?$string_output_adapter@_W@__crt_stdio_output@@V?$format_validation_base@_WV?$string_output_adapter@_W@__crt_stdio_output@@@2@@__crt_stdio_output@@QEAAHXZ 000000014000f4a0 f i libucrtd:output.obj
 0001:0000e800       ?set_flag@?$output_processor@DV?$stream_output_adapter@D@__crt_stdio_output@@V?$standard_base@DV?$stream_output_adapter@D@__crt_stdio_output@@@2@@__crt_stdio_output@@AEAAXI@Z 000000014000f800 f i libucrtd:output.obj
 0001:0000e800       ?set_flag@?$output_processor@_WV?$string_output_adapter@_W@__crt_stdio_output@@V?$format_validation_base@_WV?$string_output_adapter@_W@__crt_stdio_output@@@2@@__crt_stdio_output@@AEAAXI@Z 000000014000f800 f i libucrtd:output.obj
 0001:0000e800       ?set_flag@?$output_processor@DV?$string_output_adapter@D@__crt_stdio_output@@V?$format_validation_base@DV?$string_output_adapter@D@__crt_stdio_output@@@2@@__crt_stdio_output@@AEAAXI@Z 000000014000f800 f i libucrtd:output.obj
 0001:0000e820       ?validate_and_update_state_at_beginning_of_format_character@?$standard_base@DV?$stream_output_adapter@D@__crt_stdio_output@@@__crt_stdio_output@@IEAA_NXZ 000000014000f820 f i libucrtd:output.obj
 0001:0000e820       ?validate_state_for_type_case_a@?$standard_base@DV?$stream_output_adapter@D@__crt_stdio_output@@@__crt_stdio_output@@IEBA_NXZ 000000014000f820 f i libucrtd:output.obj
 0001:0000e820       ?should_format@?$standard_base@DV?$stream_output_adapter@D@__crt_stdio_output@@@__crt_stdio_output@@IEAA_NXZ 000000014000f820 f i libucrtd:output.obj
 0001:0000e820       ?should_format@?$standard_base@_WV?$string_output_adapter@_W@__crt_stdio_output@@@__crt_stdio_output@@IEAA_NXZ 000000014000f820 f i libucrtd:output.obj
 0001:0000e820       ?validate_state_for_type_case_a@?$standard_base@_WV?$string_output_adapter@_W@__crt_stdio_output@@@__crt_stdio_output@@IEBA_NXZ 000000014000f820 f i libucrtd:output.obj
 0001:0000e820       ?should_format@?$standard_base@DV?$string_output_adapter@D@__crt_stdio_output@@@__crt_stdio_output@@IEAA_NXZ 000000014000f820 f i libucrtd:output.obj
 0001:0000e820       ?validate_and_update_state_at_end_of_format_string@?$standard_base@DV?$stream_output_adapter@D@__crt_stdio_output@@@__crt_stdio_output@@IEBA_NXZ 000000014000f820 f i libucrtd:output.obj
 0001:0000e820       ?validate_and_update_state_at_beginning_of_format_character@?$standard_base@DV?$string_output_adapter@D@__crt_stdio_output@@@__crt_stdio_output@@IEAA_NXZ 000000014000f820 f i libucrtd:output.obj
 0001:0000e820       ?validate_and_update_state_at_beginning_of_format_character@?$standard_base@_WV?$string_output_adapter@_W@__crt_stdio_output@@@__crt_stdio_output@@IEAA_NXZ 000000014000f820 f i libucrtd:output.obj
 0001:0000e820       ?validate_state_for_type_case_a@?$standard_base@DV?$string_output_adapter@D@__crt_stdio_output@@@__crt_stdio_output@@IEBA_NXZ 000000014000f820 f i libucrtd:output.obj
 0001:0000e830       ?should_skip_type_state_output@?$standard_base@_WV?$string_output_adapter@_W@__crt_stdio_output@@@__crt_stdio_output@@IEBA_NXZ 000000014000f830 f i libucrtd:output.obj
 0001:0000e830       ?should_skip_normal_state_processing@?$standard_base@DV?$stream_output_adapter@D@__crt_stdio_output@@@__crt_stdio_output@@IEAA_NXZ 000000014000f830 f i libucrtd:output.obj
 0001:0000e830       ?should_skip_type_state_output@?$standard_base@DV?$string_output_adapter@D@__crt_stdio_output@@@__crt_stdio_output@@IEBA_NXZ 000000014000f830 f i libucrtd:output.obj
 0001:0000e830       ?should_skip_normal_state_processing@?$standard_base@_WV?$string_output_adapter@_W@__crt_stdio_output@@@__crt_stdio_output@@IEAA_NXZ 000000014000f830 f i libucrtd:output.obj
 0001:0000e830       ?should_skip_normal_state_processing@?$standard_base@DV?$string_output_adapter@D@__crt_stdio_output@@@__crt_stdio_output@@IEAA_NXZ 000000014000f830 f i libucrtd:output.obj
 0001:0000e830       ?should_skip_type_state_output@?$standard_base@DV?$stream_output_adapter@D@__crt_stdio_output@@@__crt_stdio_output@@IEBA_NXZ 000000014000f830 f i libucrtd:output.obj
 0001:0000e840       ?state_case_dot@?$output_processor@_WV?$string_output_adapter@_W@__crt_stdio_output@@V?$format_validation_base@_WV?$string_output_adapter@_W@__crt_stdio_output@@@2@@__crt_stdio_output@@AEAA_NXZ 000000014000f840 f i libucrtd:output.obj
 0001:0000e840       ?state_case_dot@?$output_processor@DV?$stream_output_adapter@D@__crt_stdio_output@@V?$standard_base@DV?$stream_output_adapter@D@__crt_stdio_output@@@2@@__crt_stdio_output@@AEAA_NXZ 000000014000f840 f i libucrtd:output.obj
 0001:0000e840       ?state_case_dot@?$output_processor@DV?$string_output_adapter@D@__crt_stdio_output@@V?$format_validation_base@DV?$string_output_adapter@D@__crt_stdio_output@@@2@@__crt_stdio_output@@AEAA_NXZ 000000014000f840 f i libucrtd:output.obj
 0001:0000e860       ?state_case_flag@?$output_processor@DV?$stream_output_adapter@D@__crt_stdio_output@@V?$standard_base@DV?$stream_output_adapter@D@__crt_stdio_output@@@2@@__crt_stdio_output@@AEAA_NXZ 000000014000f860 f i libucrtd:output.obj
 0001:0000e860       ?state_case_flag@?$output_processor@DV?$string_output_adapter@D@__crt_stdio_output@@V?$format_validation_base@DV?$string_output_adapter@D@__crt_stdio_output@@@2@@__crt_stdio_output@@AEAA_NXZ 000000014000f860 f i libucrtd:output.obj
 0001:0000e900       ?state_case_flag@?$output_processor@_WV?$string_output_adapter@_W@__crt_stdio_output@@V?$format_validation_base@_WV?$string_output_adapter@_W@__crt_stdio_output@@@2@@__crt_stdio_output@@AEAA_NXZ 000000014000f900 f i libucrtd:output.obj
 0001:0000e9a0       ?state_case_normal@?$output_processor@DV?$stream_output_adapter@D@__crt_stdio_output@@V?$standard_base@DV?$stream_output_adapter@D@__crt_stdio_output@@@2@@__crt_stdio_output@@AEAA_NXZ 000000014000f9a0 f i libucrtd:output.obj
 0001:0000ea80       ?state_case_normal@?$output_processor@DV?$string_output_adapter@D@__crt_stdio_output@@V?$format_validation_base@DV?$string_output_adapter@D@__crt_stdio_output@@@2@@__crt_stdio_output@@AEAA_NXZ 000000014000fa80 f i libucrtd:output.obj
 0001:0000eb60       ?state_case_normal@?$output_processor@_WV?$string_output_adapter@_W@__crt_stdio_output@@V?$format_validation_base@_WV?$string_output_adapter@_W@__crt_stdio_output@@@2@@__crt_stdio_output@@AEAA_NXZ 000000014000fb60 f i libucrtd:output.obj
 0001:0000ec40       ?state_case_normal_common@?$output_processor@DV?$stream_output_adapter@D@__crt_stdio_output@@V?$standard_base@DV?$stream_output_adapter@D@__crt_stdio_output@@@2@@__crt_stdio_output@@AEAA_NXZ 000000014000fc40 f i libucrtd:output.obj
 0001:0000ec90       ?state_case_normal_common@?$output_processor@DV?$string_output_adapter@D@__crt_stdio_output@@V?$format_validation_base@DV?$string_output_adapter@D@__crt_stdio_output@@@2@@__crt_stdio_output@@AEAA_NXZ 000000014000fc90 f i libucrtd:output.obj
 0001:0000ece0       ?state_case_normal_common@?$output_processor@_WV?$string_output_adapter@_W@__crt_stdio_output@@V?$format_validation_base@_WV?$string_output_adapter@_W@__crt_stdio_output@@@2@@__crt_stdio_output@@AEAA_NXZ 000000014000fce0 f i libucrtd:output.obj
 0001:0000ed30       ?state_case_normal_tchar@?$output_processor@DV?$stream_output_adapter@D@__crt_stdio_output@@V?$standard_base@DV?$stream_output_adapter@D@__crt_stdio_output@@@2@@__crt_stdio_output@@AEAA_ND@Z 000000014000fd30 f i libucrtd:output.obj
 0001:0000ee70       ?state_case_normal_tchar@?$output_processor@DV?$string_output_adapter@D@__crt_stdio_output@@V?$format_validation_base@DV?$string_output_adapter@D@__crt_stdio_output@@@2@@__crt_stdio_output@@AEAA_ND@Z 000000014000fe70 f i libucrtd:output.obj
 0001:0000efb0       ?state_case_normal_tchar@?$output_processor@_WV?$string_output_adapter@_W@__crt_stdio_output@@V?$format_validation_base@_WV?$string_output_adapter@_W@__crt_stdio_output@@@2@@__crt_stdio_output@@AEAA_N_W@Z 000000014000ffb0 f i libucrtd:output.obj
 0001:0000efd0       ?state_case_percent@?$output_processor@DV?$string_output_adapter@D@__crt_stdio_output@@V?$format_validation_base@DV?$string_output_adapter@D@__crt_stdio_output@@@2@@__crt_stdio_output@@AEAA_NXZ 000000014000ffd0 f i libucrtd:output.obj
 0001:0000efd0       ?state_case_percent@?$output_processor@_WV?$string_output_adapter@_W@__crt_stdio_output@@V?$format_validation_base@_WV?$string_output_adapter@_W@__crt_stdio_output@@@2@@__crt_stdio_output@@AEAA_NXZ 000000014000ffd0 f i libucrtd:output.obj
 0001:0000efd0       ?state_case_percent@?$output_processor@DV?$stream_output_adapter@D@__crt_stdio_output@@V?$standard_base@DV?$stream_output_adapter@D@__crt_stdio_output@@@2@@__crt_stdio_output@@AEAA_NXZ 000000014000ffd0 f i libucrtd:output.obj
 0001:0000f020       ?state_case_precision@?$output_processor@DV?$string_output_adapter@D@__crt_stdio_output@@V?$format_validation_base@DV?$string_output_adapter@D@__crt_stdio_output@@@2@@__crt_stdio_output@@AEAA_NXZ 0000000140010020 f i libucrtd:output.obj
 0001:0000f020       ?state_case_precision@?$output_processor@DV?$stream_output_adapter@D@__crt_stdio_output@@V?$standard_base@DV?$stream_output_adapter@D@__crt_stdio_output@@@2@@__crt_stdio_output@@AEAA_NXZ 0000000140010020 f i libucrtd:output.obj
 0001:0000f0a0       ?state_case_precision@?$output_processor@_WV?$string_output_adapter@_W@__crt_stdio_output@@V?$format_validation_base@_WV?$string_output_adapter@_W@__crt_stdio_output@@@2@@__crt_stdio_output@@AEAA_NXZ 00000001400100a0 f i libucrtd:output.obj
 0001:0000f120       ?state_case_size@?$output_processor@DV?$stream_output_adapter@D@__crt_stdio_output@@V?$standard_base@DV?$stream_output_adapter@D@__crt_stdio_output@@@2@@__crt_stdio_output@@AEAA_NXZ 0000000140010120 f i libucrtd:output.obj
 0001:0000f5a0       ?state_case_size@?$output_processor@DV?$string_output_adapter@D@__crt_stdio_output@@V?$format_validation_base@DV?$string_output_adapter@D@__crt_stdio_output@@@2@@__crt_stdio_output@@AEAA_NXZ 00000001400105a0 f i libucrtd:output.obj
 0001:0000fa20       ?state_case_size@?$output_processor@_WV?$string_output_adapter@_W@__crt_stdio_output@@V?$format_validation_base@_WV?$string_output_adapter@_W@__crt_stdio_output@@@2@@__crt_stdio_output@@AEAA_NXZ 0000000140010a20 f i libucrtd:output.obj
 0001:0000fea0       ?state_case_type@?$output_processor@DV?$stream_output_adapter@D@__crt_stdio_output@@V?$standard_base@DV?$stream_output_adapter@D@__crt_stdio_output@@@2@@__crt_stdio_output@@AEAA_NXZ 0000000140010ea0 f i libucrtd:output.obj
 0001:00010340       ?state_case_type@?$output_processor@DV?$string_output_adapter@D@__crt_stdio_output@@V?$format_validation_base@DV?$string_output_adapter@D@__crt_stdio_output@@@2@@__crt_stdio_output@@AEAA_NXZ 0000000140011340 f i libucrtd:output.obj
 0001:000107e0       ?state_case_type@?$output_processor@_WV?$string_output_adapter@_W@__crt_stdio_output@@V?$format_validation_base@_WV?$string_output_adapter@_W@__crt_stdio_output@@@2@@__crt_stdio_output@@AEAA_NXZ 00000001400117e0 f i libucrtd:output.obj
 0001:00010d40       ?state_case_width@?$output_processor@DV?$stream_output_adapter@D@__crt_stdio_output@@V?$standard_base@DV?$stream_output_adapter@D@__crt_stdio_output@@@2@@__crt_stdio_output@@AEAA_NXZ 0000000140011d40 f i libucrtd:output.obj
 0001:00010d40       ?state_case_width@?$output_processor@DV?$string_output_adapter@D@__crt_stdio_output@@V?$format_validation_base@DV?$string_output_adapter@D@__crt_stdio_output@@@2@@__crt_stdio_output@@AEAA_NXZ 0000000140011d40 f i libucrtd:output.obj
 0001:00010dd0       ?state_case_width@?$output_processor@_WV?$string_output_adapter@_W@__crt_stdio_output@@V?$format_validation_base@_WV?$string_output_adapter@_W@__crt_stdio_output@@@2@@__crt_stdio_output@@AEAA_NXZ 0000000140011dd0 f i libucrtd:output.obj
 0001:00010e60       ?state_count@?$format_validation_base@_WV?$string_output_adapter@_W@__crt_stdio_output@@@__crt_stdio_output@@KAIXZ 0000000140011e60 f i libucrtd:output.obj
 0001:00010e60       ?state_count@?$format_validation_base@DV?$string_output_adapter@D@__crt_stdio_output@@@__crt_stdio_output@@KAIXZ 0000000140011e60 f i libucrtd:output.obj
 0001:00010e70       ?state_count@?$standard_base@DV?$stream_output_adapter@D@__crt_stdio_output@@@__crt_stdio_output@@KAIXZ 0000000140011e70 f i libucrtd:output.obj
 0001:00010e80       ?state_transition_table@?$format_validation_base@DV?$string_output_adapter@D@__crt_stdio_output@@@__crt_stdio_output@@KAAEBV?$spectre_mitigated_lookup_table@Ustate_transition_pair@__crt_stdio_output@@$0IA@@2@XZ 0000000140011e80 f i libucrtd:output.obj
 0001:00010e80       ?state_transition_table@?$format_validation_base@_WV?$string_output_adapter@_W@__crt_stdio_output@@@__crt_stdio_output@@KAAEBV?$spectre_mitigated_lookup_table@Ustate_transition_pair@__crt_stdio_output@@$0IA@@2@XZ 0000000140011e80 f i libucrtd:output.obj
 0001:00010e90       ?state_transition_table@?$standard_base@DV?$stream_output_adapter@D@__crt_stdio_output@@@__crt_stdio_output@@KAAEBV?$spectre_mitigated_lookup_table@Ustate_transition_pair@__crt_stdio_output@@$0IA@@2@XZ 0000000140011e90 f i libucrtd:output.obj
 0001:00010ea0       ?tchar_string@?$common_data@D@__crt_stdio_output@@IEAAAEAPEADD@Z 0000000140011ea0 f i libucrtd:output.obj
 0001:00010ec0       ?tchar_string@?$common_data@D@__crt_stdio_output@@IEAAAEAPEADXZ 0000000140011ec0 f i libucrtd:output.obj
 0001:00010ee0       ?tchar_string@?$common_data@_W@__crt_stdio_output@@IEAAAEAPEA_WXZ 0000000140011ee0 f i libucrtd:output.obj
 0001:00010f00       ?tchar_string@?$common_data@_W@__crt_stdio_output@@IEAAAEAPEA_W_W@Z 0000000140011f00 f i libucrtd:output.obj
 0001:00010f20       ?to_integer_size@__crt_stdio_output@@YA_KW4length_modifier@1@@Z 0000000140011f20 f i libucrtd:output.obj
 0001:00010fd0       ?type_case_X@?$output_processor@DV?$stream_output_adapter@D@__crt_stdio_output@@V?$standard_base@DV?$stream_output_adapter@D@__crt_stdio_output@@@2@@__crt_stdio_output@@AEAA_NXZ 0000000140011fd0 f i libucrtd:output.obj
 0001:00010ff0       ?type_case_X@?$output_processor@DV?$string_output_adapter@D@__crt_stdio_output@@V?$format_validation_base@DV?$string_output_adapter@D@__crt_stdio_output@@@2@@__crt_stdio_output@@AEAA_NXZ 0000000140011ff0 f i libucrtd:output.obj
 0001:00011010       ?type_case_X@?$output_processor@_WV?$string_output_adapter@_W@__crt_stdio_output@@V?$format_validation_base@_WV?$string_output_adapter@_W@__crt_stdio_output@@@2@@__crt_stdio_output@@AEAA_NXZ 0000000140012010 f i libucrtd:output.obj
 0001:00011030       ?type_case_Z@?$output_processor@DV?$stream_output_adapter@D@__crt_stdio_output@@V?$standard_base@DV?$stream_output_adapter@D@__crt_stdio_output@@@2@@__crt_stdio_output@@AEAA_NXZ 0000000140012030 f i libucrtd:output.obj
 0001:00011030       ?type_case_Z@?$output_processor@DV?$string_output_adapter@D@__crt_stdio_output@@V?$format_validation_base@DV?$string_output_adapter@D@__crt_stdio_output@@@2@@__crt_stdio_output@@AEAA_NXZ 0000000140012030 f i libucrtd:output.obj
 0001:00011150       ?type_case_Z@?$output_processor@_WV?$string_output_adapter@_W@__crt_stdio_output@@V?$format_validation_base@_WV?$string_output_adapter@_W@__crt_stdio_output@@@2@@__crt_stdio_output@@AEAA_NXZ 0000000140012150 f i libucrtd:output.obj
 0001:00011270       ?type_case_a@?$output_processor@DV?$string_output_adapter@D@__crt_stdio_output@@V?$format_validation_base@DV?$string_output_adapter@D@__crt_stdio_output@@@2@@__crt_stdio_output@@AEAA_NXZ 0000000140012270 f i libucrtd:output.obj
 0001:00011270       ?type_case_a@?$output_processor@DV?$stream_output_adapter@D@__crt_stdio_output@@V?$standard_base@DV?$stream_output_adapter@D@__crt_stdio_output@@@2@@__crt_stdio_output@@AEAA_NXZ 0000000140012270 f i libucrtd:output.obj
 0001:00011640       ?type_case_a@?$output_processor@_WV?$string_output_adapter@_W@__crt_stdio_output@@V?$format_validation_base@_WV?$string_output_adapter@_W@__crt_stdio_output@@@2@@__crt_stdio_output@@AEAA_NXZ 0000000140012640 f i libucrtd:output.obj
 0001:00011a10       ?type_case_c@?$output_processor@DV?$string_output_adapter@D@__crt_stdio_output@@V?$format_validation_base@DV?$string_output_adapter@D@__crt_stdio_output@@@2@@__crt_stdio_output@@AEAA_NXZ 0000000140012a10 f i libucrtd:output.obj
 0001:00011a10       ?type_case_c@?$output_processor@DV?$stream_output_adapter@D@__crt_stdio_output@@V?$standard_base@DV?$stream_output_adapter@D@__crt_stdio_output@@@2@@__crt_stdio_output@@AEAA_NXZ 0000000140012a10 f i libucrtd:output.obj
 0001:00011a30       ?type_case_c@?$output_processor@_WV?$string_output_adapter@_W@__crt_stdio_output@@V?$format_validation_base@_WV?$string_output_adapter@_W@__crt_stdio_output@@@2@@__crt_stdio_output@@AEAA_NXZ 0000000140012a30 f i libucrtd:output.obj
 0001:00011a50       ?type_case_c_tchar@?$output_processor@DV?$string_output_adapter@D@__crt_stdio_output@@V?$format_validation_base@DV?$string_output_adapter@D@__crt_stdio_output@@@2@@__crt_stdio_output@@AEAA_ND@Z 0000000140012a50 f i libucrtd:output.obj
 0001:00011a50       ?type_case_c_tchar@?$output_processor@DV?$stream_output_adapter@D@__crt_stdio_output@@V?$standard_base@DV?$stream_output_adapter@D@__crt_stdio_output@@@2@@__crt_stdio_output@@AEAA_ND@Z 0000000140012a50 f i libucrtd:output.obj
 0001:00011bb0       ?type_case_c_tchar@?$output_processor@_WV?$string_output_adapter@_W@__crt_stdio_output@@V?$format_validation_base@_WV?$string_output_adapter@_W@__crt_stdio_output@@@2@@__crt_stdio_output@@AEAA_N_W@Z 0000000140012bb0 f i libucrtd:output.obj
 0001:00011ce0       ?type_case_d@?$output_processor@DV?$stream_output_adapter@D@__crt_stdio_output@@V?$standard_base@DV?$stream_output_adapter@D@__crt_stdio_output@@@2@@__crt_stdio_output@@AEAA_NXZ 0000000140012ce0 f i libucrtd:output.obj
 0001:00011d10       ?type_case_d@?$output_processor@DV?$string_output_adapter@D@__crt_stdio_output@@V?$format_validation_base@DV?$string_output_adapter@D@__crt_stdio_output@@@2@@__crt_stdio_output@@AEAA_NXZ 0000000140012d10 f i libucrtd:output.obj
 0001:00011d40       ?type_case_d@?$output_processor@_WV?$string_output_adapter@_W@__crt_stdio_output@@V?$format_validation_base@_WV?$string_output_adapter@_W@__crt_stdio_output@@@2@@__crt_stdio_output@@AEAA_NXZ 0000000140012d40 f i libucrtd:output.obj
 0001:00011d70       ?type_case_integer@?$output_processor@DV?$stream_output_adapter@D@__crt_stdio_output@@V?$standard_base@DV?$stream_output_adapter@D@__crt_stdio_output@@@2@@__crt_stdio_output@@AEAA_NI_N@Z 0000000140012d70 f i libucrtd:output.obj
 0001:000121c0       ?type_case_integer@?$output_processor@DV?$string_output_adapter@D@__crt_stdio_output@@V?$format_validation_base@DV?$string_output_adapter@D@__crt_stdio_output@@@2@@__crt_stdio_output@@AEAA_NI_N@Z 00000001400131c0 f i libucrtd:output.obj
 0001:00012610       ?type_case_integer@?$output_processor@_WV?$string_output_adapter@_W@__crt_stdio_output@@V?$format_validation_base@_WV?$string_output_adapter@_W@__crt_stdio_output@@@2@@__crt_stdio_output@@AEAA_NI_N@Z 0000000140013610 f i libucrtd:output.obj
 0001:00012a60       ?type_case_n@?$output_processor@DV?$stream_output_adapter@D@__crt_stdio_output@@V?$standard_base@DV?$stream_output_adapter@D@__crt_stdio_output@@@2@@__crt_stdio_output@@AEAA_NXZ 0000000140013a60 f i libucrtd:output.obj
 0001:00012ca0       ?type_case_n@?$output_processor@DV?$string_output_adapter@D@__crt_stdio_output@@V?$format_validation_base@DV?$string_output_adapter@D@__crt_stdio_output@@@2@@__crt_stdio_output@@AEAA_NXZ 0000000140013ca0 f i libucrtd:output.obj
 0001:00012ee0       ?type_case_n@?$output_processor@_WV?$string_output_adapter@_W@__crt_stdio_output@@V?$format_validation_base@_WV?$string_output_adapter@_W@__crt_stdio_output@@@2@@__crt_stdio_output@@AEAA_NXZ 0000000140013ee0 f i libucrtd:output.obj
 0001:00013120       ?type_case_o@?$output_processor@DV?$stream_output_adapter@D@__crt_stdio_output@@V?$standard_base@DV?$stream_output_adapter@D@__crt_stdio_output@@@2@@__crt_stdio_output@@AEAA_NXZ 0000000140014120 f i libucrtd:output.obj
 0001:00013170       ?type_case_o@?$output_processor@DV?$string_output_adapter@D@__crt_stdio_output@@V?$format_validation_base@DV?$string_output_adapter@D@__crt_stdio_output@@@2@@__crt_stdio_output@@AEAA_NXZ 0000000140014170 f i libucrtd:output.obj
 0001:000131c0       ?type_case_o@?$output_processor@_WV?$string_output_adapter@_W@__crt_stdio_output@@V?$format_validation_base@_WV?$string_output_adapter@_W@__crt_stdio_output@@@2@@__crt_stdio_output@@AEAA_NXZ 00000001400141c0 f i libucrtd:output.obj
 0001:00013210       ?type_case_p@?$output_processor@DV?$stream_output_adapter@D@__crt_stdio_output@@V?$standard_base@DV?$stream_output_adapter@D@__crt_stdio_output@@@2@@__crt_stdio_output@@AEAA_NXZ 0000000140014210 f i libucrtd:output.obj
 0001:00013250       ?type_case_p@?$output_processor@DV?$string_output_adapter@D@__crt_stdio_output@@V?$format_validation_base@DV?$string_output_adapter@D@__crt_stdio_output@@@2@@__crt_stdio_output@@AEAA_NXZ 0000000140014250 f i libucrtd:output.obj
 0001:00013290       ?type_case_p@?$output_processor@_WV?$string_output_adapter@_W@__crt_stdio_output@@V?$format_validation_base@_WV?$string_output_adapter@_W@__crt_stdio_output@@@2@@__crt_stdio_output@@AEAA_NXZ 0000000140014290 f i libucrtd:output.obj
 0001:000132d0       ?type_case_s@?$output_processor@DV?$stream_output_adapter@D@__crt_stdio_output@@V?$standard_base@DV?$stream_output_adapter@D@__crt_stdio_output@@@2@@__crt_stdio_output@@AEAA_NXZ 00000001400142d0 f i libucrtd:output.obj
 0001:000132d0       ?type_case_s@?$output_processor@DV?$string_output_adapter@D@__crt_stdio_output@@V?$format_validation_base@DV?$string_output_adapter@D@__crt_stdio_output@@@2@@__crt_stdio_output@@AEAA_NXZ 00000001400142d0 f i libucrtd:output.obj
 0001:000133f0       ?type_case_s@?$output_processor@_WV?$string_output_adapter@_W@__crt_stdio_output@@V?$format_validation_base@_WV?$string_output_adapter@_W@__crt_stdio_output@@@2@@__crt_stdio_output@@AEAA_NXZ 00000001400143f0 f i libucrtd:output.obj
 0001:00013510       ?type_case_s_compute_narrow_string_length@?$output_processor@DV?$string_output_adapter@D@__crt_stdio_output@@V?$format_validation_base@DV?$string_output_adapter@D@__crt_stdio_output@@@2@@__crt_stdio_output@@AEBAHHD@Z 0000000140014510 f i libucrtd:output.obj
 0001:00013510       ?type_case_s_compute_narrow_string_length@?$output_processor@DV?$stream_output_adapter@D@__crt_stdio_output@@V?$standard_base@DV?$stream_output_adapter@D@__crt_stdio_output@@@2@@__crt_stdio_output@@AEBAHHD@Z 0000000140014510 f i libucrtd:output.obj
 0001:00013540       ?type_case_s_compute_narrow_string_length@?$output_processor@_WV?$string_output_adapter@_W@__crt_stdio_output@@V?$format_validation_base@_WV?$string_output_adapter@_W@__crt_stdio_output@@@2@@__crt_stdio_output@@AEBAHH_W@Z 0000000140014540 f i libucrtd:output.obj
 0001:000135d0       ?type_case_u@?$output_processor@DV?$stream_output_adapter@D@__crt_stdio_output@@V?$standard_base@DV?$stream_output_adapter@D@__crt_stdio_output@@@2@@__crt_stdio_output@@AEAA_NXZ 00000001400145d0 f i libucrtd:output.obj
 0001:000135f0       ?type_case_u@?$output_processor@DV?$string_output_adapter@D@__crt_stdio_output@@V?$format_validation_base@DV?$string_output_adapter@D@__crt_stdio_output@@@2@@__crt_stdio_output@@AEAA_NXZ 00000001400145f0 f i libucrtd:output.obj
 0001:00013610       ?type_case_u@?$output_processor@_WV?$string_output_adapter@_W@__crt_stdio_output@@V?$format_validation_base@_WV?$string_output_adapter@_W@__crt_stdio_output@@@2@@__crt_stdio_output@@AEAA_NXZ 0000000140014610 f i libucrtd:output.obj
 0001:00013630       ?type_case_x@?$output_processor@DV?$stream_output_adapter@D@__crt_stdio_output@@V?$standard_base@DV?$stream_output_adapter@D@__crt_stdio_output@@@2@@__crt_stdio_output@@AEAA_NXZ 0000000140014630 f i libucrtd:output.obj
 0001:00013650       ?type_case_x@?$output_processor@DV?$string_output_adapter@D@__crt_stdio_output@@V?$format_validation_base@DV?$string_output_adapter@D@__crt_stdio_output@@@2@@__crt_stdio_output@@AEAA_NXZ 0000000140014650 f i libucrtd:output.obj
 0001:00013670       ?type_case_x@?$output_processor@_WV?$string_output_adapter@_W@__crt_stdio_output@@V?$format_validation_base@_WV?$string_output_adapter@_W@__crt_stdio_output@@@2@@__crt_stdio_output@@AEAA_NXZ 0000000140014670 f i libucrtd:output.obj
 0001:00013690       ?unset_flag@?$output_processor@DV?$string_output_adapter@D@__crt_stdio_output@@V?$format_validation_base@DV?$string_output_adapter@D@__crt_stdio_output@@@2@@__crt_stdio_output@@AEAAXI@Z 0000000140014690 f i libucrtd:output.obj
 0001:00013690       ?unset_flag@?$output_processor@DV?$stream_output_adapter@D@__crt_stdio_output@@V?$standard_base@DV?$stream_output_adapter@D@__crt_stdio_output@@@2@@__crt_stdio_output@@AEAAXI@Z 0000000140014690 f i libucrtd:output.obj
 0001:00013690       ?unset_flag@?$output_processor@_WV?$string_output_adapter@_W@__crt_stdio_output@@V?$format_validation_base@_WV?$string_output_adapter@_W@__crt_stdio_output@@@2@@__crt_stdio_output@@AEAAXI@Z 0000000140014690 f i libucrtd:output.obj
 0001:000136c0       ?update_field_width@?$standard_base@DV?$stream_output_adapter@D@__crt_stdio_output@@@__crt_stdio_output@@IEAA_NXZ 00000001400146c0 f i libucrtd:output.obj
 0001:000136c0       ?update_field_width@?$standard_base@DV?$string_output_adapter@D@__crt_stdio_output@@@__crt_stdio_output@@IEAA_NXZ 00000001400146c0 f i libucrtd:output.obj
 0001:000136c0       ?update_field_width@?$standard_base@_WV?$string_output_adapter@_W@__crt_stdio_output@@@__crt_stdio_output@@IEAA_NXZ 00000001400146c0 f i libucrtd:output.obj
 0001:000136f0       ?update_precision@?$standard_base@DV?$stream_output_adapter@D@__crt_stdio_output@@@__crt_stdio_output@@IEAA_NXZ 00000001400146f0 f i libucrtd:output.obj
 0001:000136f0       ?update_precision@?$standard_base@DV?$string_output_adapter@D@__crt_stdio_output@@@__crt_stdio_output@@IEAA_NXZ 00000001400146f0 f i libucrtd:output.obj
 0001:000136f0       ?update_precision@?$standard_base@_WV?$string_output_adapter@_W@__crt_stdio_output@@@__crt_stdio_output@@IEAA_NXZ 00000001400146f0 f i libucrtd:output.obj
 0001:00013720       ?validate@?$stream_output_adapter@D@__crt_stdio_output@@QEBA_NXZ 0000000140014720 f i libucrtd:output.obj
 0001:00013800       ?validate@?$string_output_adapter@D@__crt_stdio_output@@QEBA_NXZ 0000000140014800 f i libucrtd:output.obj
 0001:000138c0       ?validate@?$string_output_adapter@_W@__crt_stdio_output@@QEBA_NXZ 00000001400148c0 f i libucrtd:output.obj
 0001:00013980       ?validate_and_update_state_at_end_of_format_string@?$format_validation_base@DV?$string_output_adapter@D@__crt_stdio_output@@@__crt_stdio_output@@IEBA_NXZ 0000000140014980 f i libucrtd:output.obj
 0001:00013a40       ?validate_and_update_state_at_end_of_format_string@?$format_validation_base@_WV?$string_output_adapter@_W@__crt_stdio_output@@@__crt_stdio_output@@IEBA_NXZ 0000000140014a40 f i libucrtd:output.obj
 0001:00013b00       ?validate_stream_is_ansi_if_required@?$__acrt_stdio_char_traits@D@@SA_NQEAU_iobuf@@@Z 0000000140014b00 f i libucrtd:output.obj
 0001:00013c90       ?wide_null_string@?$output_processor@_WV?$string_output_adapter@_W@__crt_stdio_output@@V?$format_validation_base@_WV?$string_output_adapter@_W@__crt_stdio_output@@@2@@__crt_stdio_output@@CAPEA_WXZ 0000000140014c90 f i libucrtd:output.obj
 0001:00013c90       ?wide_null_string@?$output_processor@DV?$string_output_adapter@D@__crt_stdio_output@@V?$format_validation_base@DV?$string_output_adapter@D@__crt_stdio_output@@@2@@__crt_stdio_output@@CAPEA_WXZ 0000000140014c90 f i libucrtd:output.obj
 0001:00013c90       ?wide_null_string@?$output_processor@DV?$stream_output_adapter@D@__crt_stdio_output@@V?$standard_base@DV?$stream_output_adapter@D@__crt_stdio_output@@@2@@__crt_stdio_output@@CAPEA_WXZ 0000000140014c90 f i libucrtd:output.obj
 0001:00013ca0       ?write_character@?$output_adapter_common@DV?$stream_output_adapter@D@__crt_stdio_output@@@__crt_stdio_output@@QEBAXDQEAH@Z 0000000140014ca0 f i libucrtd:output.obj
 0001:00013cf0       ?write_character@?$string_output_adapter@D@__crt_stdio_output@@QEBA_NDQEAH@Z 0000000140014cf0 f i libucrtd:output.obj
 0001:00013db0       ?write_character@?$string_output_adapter@_W@__crt_stdio_output@@QEBA_N_WQEAH@Z 0000000140014db0 f i libucrtd:output.obj
 0001:00013e70       ?write_character_without_count_update@?$stream_output_adapter@D@__crt_stdio_output@@QEBA_ND@Z 0000000140014e70 f i libucrtd:output.obj
 0001:00013ef0       ?write_stored_string_tchar@?$output_processor@DV?$stream_output_adapter@D@__crt_stdio_output@@V?$standard_base@DV?$stream_output_adapter@D@__crt_stdio_output@@@2@@__crt_stdio_output@@AEAA_ND@Z 0000000140014ef0 f i libucrtd:output.obj
 0001:000140b0       ?write_stored_string_tchar@?$output_processor@DV?$string_output_adapter@D@__crt_stdio_output@@V?$format_validation_base@DV?$string_output_adapter@D@__crt_stdio_output@@@2@@__crt_stdio_output@@AEAA_ND@Z 00000001400150b0 f i libucrtd:output.obj
 0001:00014270       ?write_stored_string_tchar@?$output_processor@_WV?$string_output_adapter@_W@__crt_stdio_output@@V?$format_validation_base@_WV?$string_output_adapter@_W@__crt_stdio_output@@@2@@__crt_stdio_output@@AEAA_N_W@Z 0000000140015270 f i libucrtd:output.obj
 0001:000143c0       ?write_string@?$stream_output_adapter@D@__crt_stdio_output@@QEBAXQEBDHQEAHAEAV__crt_deferred_errno_cache@@@Z 00000001400153c0 f i libucrtd:output.obj
 0001:00014440       ?write_string@?$string_output_adapter@D@__crt_stdio_output@@QEBAXQEBDHQEAHAEAV__crt_deferred_errno_cache@@@Z 0000000140015440 f i libucrtd:output.obj
 0001:000145b0       ?write_string@?$string_output_adapter@_W@__crt_stdio_output@@QEBAXQEB_WHQEAHAEAV__crt_deferred_errno_cache@@@Z 00000001400155b0 f i libucrtd:output.obj
 0001:00014720       ?write_string_impl@?$output_adapter_common@DV?$stream_output_adapter@D@__crt_stdio_output@@@__crt_stdio_output@@IEBAXQEBDHQEAHAEAV__crt_deferred_errno_cache@@@Z 0000000140015720 f i libucrtd:output.obj
 0001:00014800       __acrt_isleadbyte_l_noupdate 0000000140015800 f i libucrtd:output.obj
 0001:00014830       __acrt_locale_get_ctype_array_value 0000000140015830 f i libucrtd:output.obj
 0001:00014870       __stdio_common_vfprintf    0000000140015870 f   libucrtd:output.obj
 0001:000148b0       __stdio_common_vsnprintf_s 00000001400158b0 f   libucrtd:output.obj
 0001:00014910       __stdio_common_vsnwprintf_s 0000000140015910 f   libucrtd:output.obj
 0001:00014970       __stdio_common_vsprintf_s  0000000140015970 f   libucrtd:output.obj
 0001:000149c0       _ctype_fast_check_internal 00000001400159c0 f i libucrtd:output.obj
 0001:000149f0       _isdigit_fast_internal     00000001400159f0 f i libucrtd:output.obj
 0001:00014a20       _tolower_fast_internal     0000000140015a20 f i libucrtd:output.obj
 0001:00014ac0       _seh_filter_exe            0000000140015ac0 f   libucrtd:exception_filter.obj
 0001:00014f30       __acrt_report_runtime_error 0000000140015f30 f   libucrtd:report_runtime_error.obj
 0001:000151b0       _invoke_watson_if_error    00000001400161b0 f i libucrtd:report_runtime_error.obj
 0001:00015200       _query_app_type            0000000140016200 f   libucrtd:report_runtime_error.obj
 0001:00015210       _set_app_type              0000000140016210 f   libucrtd:report_runtime_error.obj
 0001:00015220       ?initialize@?$dual_state_global@P6AHPEAU_exception@@@Z@__crt_state_management@@QEAAXQ6AHPEAU_exception@@@Z@Z 0000000140016220 f i libucrtd:matherr.obj
 0001:00015220       ?initialize@?$dual_state_global@P6AXH@Z@__crt_state_management@@QEAAXQ6AXH@Z@Z 0000000140016220 f i libucrtd:signal.obj
 0001:00015220       ?initialize@?$dual_state_global@P6AH_K@Z@__crt_state_management@@QEAAXQ6AH_K@Z@Z 0000000140016220 f i libucrtd:new_handler.obj
 0001:00015220       ?initialize@?$dual_state_global@PEAU__crt_multibyte_data@@@__crt_state_management@@QEAAXQEAU__crt_multibyte_data@@@Z 0000000140016220 f i libucrtd:mbctype.obj
 0001:00015220       ?initialize@?$dual_state_global@PEAU__crt_locale_data@@@__crt_state_management@@QEAAXQEAU__crt_locale_data@@@Z 0000000140016220 f i libucrtd:initialization.obj
 0001:00015270       ?value@?$dual_state_global@PEAU__crt_multibyte_data@@@__crt_state_management@@QEAAAEAPEAU__crt_multibyte_data@@XZ 0000000140016270 f i libucrtd:locale_update.obj
 0001:00015270       ?value@?$dual_state_global@P6AXPEB_W00I_K@Z@__crt_state_management@@QEAAAEAP6AXPEB_W00I_K@ZXZ 0000000140016270 f i libucrtd:invalid_parameter.obj
 0001:00015270       ?value@?$dual_state_global@P6AXH@Z@__crt_state_management@@QEAAAEAP6AXH@ZXZ 0000000140016270 f i libucrtd:signal.obj
 0001:00015270       ?value@?$dual_state_global@PEAE@__crt_state_management@@QEAAAEAPEAEXZ 0000000140016270 f i libucrtd:mbctype.obj
 0001:00015270       ?value@?$dual_state_global@PEAU__crt_locale_data@@@__crt_state_management@@QEAAAEAPEAU__crt_locale_data@@XZ 0000000140016270 f i libucrtd:wsetlocale.obj
 0001:00015270       ?value@?$dual_state_global@P6AH_K@Z@__crt_state_management@@QEAAAEAP6AH_K@ZXZ 0000000140016270 f i libucrtd:new_handler.obj
 0001:00015270       ?value@?$dual_state_global@P6AHPEAU_exception@@@Z@__crt_state_management@@QEAAAEAP6AHPEAU_exception@@@ZXZ 0000000140016270 f i libucrtd:matherr.obj
 0001:00015290       __acrt_has_user_matherr    0000000140016290 f   libucrtd:matherr.obj
 0001:000152d0       __acrt_initialize_user_matherr 00000001400162d0 f   libucrtd:matherr.obj
 0001:000152f0       __acrt_invoke_user_matherr 00000001400162f0 f   libucrtd:matherr.obj
 0001:00015340       __setusermatherr           0000000140016340 f   libucrtd:matherr.obj
 0001:00015710       ??$get_module_file_name@AEAPEAUHINSTANCE__@@AEAY0BAF@DK@?$__crt_char_traits@D@@SAKAEAPEAUHINSTANCE__@@AEAY0BAF@D$$QEAK@Z 0000000140016710 f i libucrtd:dbgrpt.obj
 0001:00015710       ??$get_module_file_name@$$TAEAY0BAF@DH@?$__crt_char_traits@D@@SAK$$QEA$$TAEAY0BAF@D$$QEAH@Z 0000000140016710 f i libucrtd:argv_parsing.obj
 0001:00015be0       ??$set_program_name@PEAD@?$__crt_char_traits@D@@SAX$$QEAPEAD@Z 0000000140016be0 f i libucrtd:argv_parsing.obj
 0001:00015d10       __acrt_allocate_buffer_for_argv 0000000140016d10 f   libucrtd:argv_parsing.obj
 0001:00015e30       _configure_narrow_argv     0000000140016e30 f   libucrtd:argv_parsing.obj
 0001:00015e50       _set_pgmptr                0000000140016e50 f i libucrtd:argv_parsing.obj
 0001:00016170       ??$tcslen@AEAPEAD@?$__crt_char_traits@D@@SA_KAEAPEAD@Z 0000000140017170 f i libucrtd:environment_initialization.obj
 0001:000161bc       ??B?$__crt_unique_heap_ptr@PEADU__crt_internal_free_policy@@@@QEBA_NXZ 00000001400171bc f i libucrtd:environment_initialization.obj
 0001:000161c4       ?detach@?$__crt_unique_heap_ptr@DU__crt_internal_free_policy@@@@QEAAPEADXZ 00000001400171c4 f i libucrtd:environment_initialization.obj
 0001:000161cc       __dcrt_get_or_create_narrow_environment_nolock 00000001400171cc f   libucrtd:environment_initialization.obj
 0001:00016208       __dcrt_uninitialize_environments_nolock 0000000140017208 f   libucrtd:environment_initialization.obj
 0001:00016240       _get_initial_narrow_environment 0000000140017240 f   libucrtd:environment_initialization.obj
 0001:00016290       _initialize_narrow_environment 0000000140017290 f   libucrtd:environment_initialization.obj
 0001:000162a0       _initterm                  00000001400172a0 f   libucrtd:initterm.obj
 0001:00016300       _initterm_e                0000000140017300 f   libucrtd:initterm.obj
 0001:00016380       ?value@?$dual_state_global@H@__crt_state_management@@QEAAAEAHXZ 0000000140017380 f i libucrtd:setmode.obj
 0001:00016380       ?value@?$dual_state_global@J@__crt_state_management@@QEAAAEAJXZ 0000000140017380 f i libucrtd:new_mode.obj
 0001:000163a0       _set_fmode                 00000001400173a0 f   libucrtd:setmode.obj
 0001:00016480       __acrt_initialize_command_line 0000000140017480 f   libucrtd:argv_data.obj
 0001:000164b0       __acrt_uninitialize_command_line 00000001400174b0 f   libucrtd:argv_data.obj
 0001:000164c0       __p___argc                 00000001400174c0 f   libucrtd:argv_data.obj
 0001:000164d0       __p___argv                 00000001400174d0 f   libucrtd:argv_data.obj
 0001:00016640       __acrt_set_locale_changed  0000000140017640 f   libucrtd:wsetlocale.obj
 0001:00016650       __acrt_uninitialize_locale 0000000140017650 f   libucrtd:wsetlocale.obj
 0001:00016680       __ascii_tolower            0000000140017680 f i libucrtd:wsetlocale.obj
 0001:000166a0       __ascii_towlower           00000001400176a0 f i libucrtd:wsetlocale.obj
 0001:000166c0       _configthreadlocale        00000001400176c0 f   libucrtd:wsetlocale.obj
 0001:00016820       _query_new_mode            0000000140017820 f   libucrtd:new_mode.obj
 0001:00016840       _set_new_mode              0000000140017840 f   libucrtd:new_mode.obj
 0001:00016910       __p__commode               0000000140017910 f   libucrtd:ncommode.obj
 0001:00016fa0       _crt_atexit                0000000140017fa0 f   libucrtd:onexit.obj
 0001:00016fc0       _execute_onexit_table      0000000140017fc0 f   libucrtd:onexit.obj
 0001:00017000       _initialize_onexit_table   0000000140018000 f   libucrtd:onexit.obj
 0001:00017080       _register_onexit_function  0000000140018080 f   libucrtd:onexit.obj
 0001:00017360       __acrt_initialize          0000000140018360 f   libucrtd:initialization.obj
 0001:00017390       __acrt_uninitialize        0000000140018390 f   libucrtd:initialization.obj
 0001:000173c0       terminate                  00000001400183c0 f   libucrtd:terminate.obj
 0001:000193d0       _CrtCheckMemory            000000014001a3d0 f   libucrtd:debug_heap.obj
 0001:00019560       _CrtDumpMemoryLeaks        000000014001a560 f   libucrtd:debug_heap.obj
 0001:00019620       _CrtIsValidHeapPointer     000000014001a620 f   libucrtd:debug_heap.obj
 0001:00019660       _CrtIsValidPointer         000000014001a660 f   libucrtd:debug_heap.obj
 0001:000196a0       _CrtMemCheckpoint          000000014001a6a0 f   libucrtd:debug_heap.obj
 0001:00019920       _CrtMemDumpAllObjectsSince 000000014001a920 f   libucrtd:debug_heap.obj
 0001:00019980       _CrtSetDbgFlag             000000014001a980 f   libucrtd:debug_heap.obj
 0001:00019ae0       _CrtSetDumpClient          000000014001aae0 f   libucrtd:debug_heap.obj
 0001:00019b10       _calloc_dbg                000000014001ab10 f   libucrtd:debug_heap.obj
 0001:00019bb0       _free_dbg                  000000014001abb0 f   libucrtd:debug_heap.obj
 0001:00019c20       _invoke_watson_if_oneof    000000014001ac20 f i libucrtd:debug_heap.obj
 0001:00019c80       _malloc_dbg                000000014001ac80 f   libucrtd:debug_heap.obj
 0001:00019cc0       _msize_dbg                 000000014001acc0 f   libucrtd:debug_heap.obj
 0001:00019e60       _realloc_dbg               000000014001ae60 f   libucrtd:debug_heap.obj
 0001:00019ed0       _recalloc_dbg              000000014001aed0 f   libucrtd:debug_heap.obj
 0001:0001a4a0       strcpy_s                   000000014001b4a0 f   libucrtd:strcpy_s.obj
 0001:0001a4e0       strcmp                     000000014001b4e0 f   libucrtd:strcmp.obj
 0001:0001a560       strlen                     000000014001b560 f   libucrtd:strlen.obj
 0001:0001a610       abort                      000000014001b610 f   libucrtd:abort.obj
 0001:0001a690       ??$initialize_from_array@$$BY00Q6AXPEB_W00I_K@Z@?$dual_state_global@P6AXPEB_W00I_K@Z@__crt_state_management@@QEAAXAEAY00Q6AXPEB_W00I_K@Z@Z 000000014001b690 f i libucrtd:invalid_parameter.obj
 0001:0001a6f0       __acrt_call_reportfault    000000014001b6f0 f   libucrtd:invalid_parameter.obj
 0001:0001a820       __acrt_initialize_invalid_parameter_handler 000000014001b820 f   libucrtd:invalid_parameter.obj
 0001:0001a850       _invalid_parameter         000000014001b850 f   libucrtd:invalid_parameter.obj
 0001:0001a950       _invalid_parameter_noinfo  000000014001b950 f   libucrtd:invalid_parameter.obj
 0001:0001a980       _invoke_watson             000000014001b980 f   libucrtd:invalid_parameter.obj
 0001:0001b790       ??$get_module_file_name@AEAPEAUHINSTANCE__@@AEAY0BAF@_WK@?$__crt_char_traits@_W@@SAKAEAPEAUHINSTANCE__@@AEAY0BAF@_W$$QEAK@Z 000000014001c790 f i libucrtd:dbgrpt.obj
 0001:0001b7d0       ??$tcscpy_s@AEAY0BAF@D_KPEBD@?$__crt_char_traits@D@@SAHAEAY0BAF@D$$QEA_K$$QEAPEBD@Z 000000014001c7d0 f i libucrtd:dbgrpt.obj
 0001:0001b810       ??$tcscpy_s@AEAY0BAF@_W_KPEB_W@?$__crt_char_traits@_W@@SAHAEAY0BAF@_W$$QEA_K$$QEAPEB_W@Z 000000014001c810 f i libucrtd:dbgrpt.obj
 0001:0001b850       ??$tcslen@AEAY0BAF@D@?$__crt_char_traits@D@@SA_KAEAY0BAF@D@Z 000000014001c850 f i libucrtd:dbgrpt.obj
 0001:0001b870       ??$tcslen@AEAY0BAF@_W@?$__crt_char_traits@_W@@SA_KAEAY0BAF@_W@Z 000000014001c870 f i libucrtd:dbgrpt.obj
 0001:0001b890       ??$tcslen@AEBQEBD@?$__crt_char_traits@D@@SA_KAEBQEBD@Z 000000014001c890 f i libucrtd:dbgrpt.obj
 0001:0001b8b0       ??$tcslen@AEBQEB_W@?$__crt_char_traits@_W@@SA_KAEBQEB_W@Z 000000014001c8b0 f i libucrtd:dbgrpt.obj
 0001:0001b910       _CrtDbgReport              000000014001c910 f   libucrtd:dbgrpt.obj
 0001:0001b990       _CrtDbgReportW             000000014001c990 f   libucrtd:dbgrpt.obj
 0001:0001ba10       __acrt_MessageWindowA      000000014001ca10 f   libucrtd:dbgrpt.obj
 0001:0001ba60       __acrt_MessageWindowW      000000014001ca60 f   libucrtd:dbgrpt.obj
 0001:0001bab0       _snwprintf_s               000000014001cab0 f i libucrtd:dbgrpt.obj
 0001:0001bb20       _vsnwprintf_s_l            000000014001cb20 f i libucrtd:dbgrpt.obj
 0001:0001bbb0       strncmp                    000000014001cbb0 f   libucrtd:strncmp.obj
 0001:0001bc30       wcsncmp                    000000014001cc30 f   libucrtd:wcsncmp.obj
 0001:0001bcc0       free                       000000014001ccc0 f   libucrtd:free.obj
 0001:0001bf30       ??0__crt_scoped_get_last_error_reset@@QEAA@XZ 000000014001cf30 f i libucrtd:per_thread_data.obj
 0001:0001bf50       ??1__crt_scoped_get_last_error_reset@@QEAA@XZ 000000014001cf50 f i libucrtd:per_thread_data.obj
 0001:0001c5f0       __acrt_getptd              000000014001d5f0 f   libucrtd:per_thread_data.obj
 0001:0001c620       __acrt_getptd_head         000000014001d620 f   libucrtd:per_thread_data.obj
 0001:0001c650       __acrt_getptd_noexit       000000014001d650 f   libucrtd:per_thread_data.obj
 0001:0001c660       __acrt_initialize_ptd      000000014001d660 f   libucrtd:per_thread_data.obj
 0001:0001c6a0       __acrt_uninitialize_ptd    000000014001d6a0 f   libucrtd:per_thread_data.obj
 0001:0001c6d0       __acrt_initialize_locks    000000014001d6d0 f   libucrtd:locks.obj
 0001:0001c740       __acrt_lock                000000014001d740 f   libucrtd:locks.obj
 0001:0001c770       __acrt_uninitialize_locks  000000014001d770 f   libucrtd:locks.obj
 0001:0001c7d0       __acrt_unlock              000000014001d7d0 f   libucrtd:locks.obj
 0001:0001cae0       __acrt_get_developer_information_policy 000000014001dae0 f   libucrtd:win_policies.obj
 0001:0001cb00       __acrt_get_process_end_policy 000000014001db00 f   libucrtd:win_policies.obj
 0001:0001cb10       __acrt_get_windowing_model_policy 000000014001db10 f   libucrtd:win_policies.obj
 0001:0001cb30       iswctype                   000000014001db30 f   libucrtd:iswctype.obj
 0001:0001cbc0       _chvalidator_l             000000014001dbc0 f   libucrtd:isctype.obj
 0001:0001cc70       _isctype_l                 000000014001dc70 f   libucrtd:isctype.obj
 0001:0001cea0       _isleadbyte_fast_internal  000000014001dea0 f i libucrtd:isctype.obj
 0001:0001ced0       __acrt_should_sync_with_global_locale 000000014001ded0 f i libucrtd:locale_update.obj
 0001:0001cf10       __acrt_update_locale_info  000000014001df10 f   libucrtd:locale_update.obj
 0001:0001cf60       __acrt_update_multibyte_info 000000014001df60 f   libucrtd:locale_update.obj
 0001:0001d750       GetCurrentThreadEffectiveToken 000000014001e750 f i libucrtd:winapi_thunks.obj
 0001:0001d760       __acrt_AppPolicyGetProcessTerminationMethodInternal 000000014001e760 f   libucrtd:winapi_thunks.obj
 0001:0001d7b0       __acrt_AppPolicyGetShowDeveloperDiagnosticInternal 000000014001e7b0 f   libucrtd:winapi_thunks.obj
 0001:0001d800       __acrt_AppPolicyGetWindowingModelInternal 000000014001e800 f   libucrtd:winapi_thunks.obj
 0001:0001d850       __acrt_AreFileApisANSI     000000014001e850 f   libucrtd:winapi_thunks.obj
 0001:0001d890       __acrt_CompareStringEx     000000014001e890 f   libucrtd:winapi_thunks.obj
 0001:0001d970       __acrt_FlsAlloc            000000014001e970 f   libucrtd:winapi_thunks.obj
 0001:0001d9c0       __acrt_FlsFree             000000014001e9c0 f   libucrtd:winapi_thunks.obj
 0001:0001da10       __acrt_FlsGetValue         000000014001ea10 f   libucrtd:winapi_thunks.obj
 0001:0001da60       __acrt_FlsSetValue         000000014001ea60 f   libucrtd:winapi_thunks.obj
 0001:0001dac0       __acrt_InitializeCriticalSectionEx 000000014001eac0 f   libucrtd:winapi_thunks.obj
 0001:0001db20       __acrt_LCMapStringEx       000000014001eb20 f   libucrtd:winapi_thunks.obj
 0001:0001dc00       __acrt_LocaleNameToLCID    000000014001ec00 f   libucrtd:winapi_thunks.obj
 0001:0001dc50       __acrt_MessageBoxW         000000014001ec50 f   libucrtd:winapi_thunks.obj
 0001:0001dcb0       __acrt_can_show_message_box 000000014001ecb0 f   libucrtd:winapi_thunks.obj
 0001:0001dcf0       __acrt_get_parent_window   000000014001ecf0 f   libucrtd:winapi_thunks.obj
 0001:0001dd70       __acrt_initialize_winapi_thunks 000000014001ed70 f   libucrtd:winapi_thunks.obj
 0001:0001ddf0       __acrt_is_interactive      000000014001edf0 f   libucrtd:winapi_thunks.obj
 0001:0001ded0       __acrt_uninitialize_winapi_thunks 000000014001eed0 f   libucrtd:winapi_thunks.obj
 0001:0001df70       ?is_in_use@__crt_stdio_stream@@QEBA_NXZ 000000014001ef70 f i libucrtd:closeall.obj
 0001:0001dfb0       _fcloseall                 000000014001efb0 f   libucrtd:closeall.obj
 0001:0001e3d0       ?__acrt_stdio_reset_buffer@@YAXV__crt_stdio_stream@@@Z 000000014001f3d0 f i libucrtd:fflush.obj
 0001:0001e500       ?has_all_of@__crt_stdio_stream@@QEBA_NJ@Z 000000014001f500 f i libucrtd:fflush.obj
 0001:0001e5e0       ?set_flags@__crt_stdio_stream@@QEBA_NJ@Z 000000014001f5e0 f i libucrtd:fflush.obj
 0001:0001e650       ?unset_flags@__crt_stdio_stream@@QEBA_NJ@Z 000000014001f650 f i libucrtd:fflush.obj
 0001:0001e6b0       __acrt_stdio_flush_nolock  000000014001f6b0 f   libucrtd:fflush.obj
 0001:0001e7c0       _fflush_nolock             000000014001f7c0 f   libucrtd:fflush.obj
 0001:0001e850       _flushall                  000000014001f850 f   libucrtd:fflush.obj
 0001:0001e860       ?has_any_of@__crt_stdio_stream@@QEBA_NJ@Z 000000014001f860 f i libucrtd:_freebuf.obj
 0001:0001e8a0       ?has_crt_buffer@__crt_stdio_stream@@QEBA_NXZ 000000014001f8a0 f i libucrtd:_freebuf.obj
 0001:0001e8c0       __acrt_stdio_free_buffer_nolock 000000014001f8c0 f   libucrtd:_freebuf.obj
 0001:0001ed40       __acrt_initialize_lowio    000000014001fd40 f   libucrtd:ioinit.obj
 0001:0001ed90       __acrt_uninitialize_lowio  000000014001fd90 f   libucrtd:ioinit.obj
 0001:0001ee10       _CrtGetDebugFillThreshold  000000014001fe10 f   libucrtd:debug_fill_threshold.obj
 0001:0001ee20       ??$parse_integer_from_string@J_WPEAPEA_W@__crt_strtox@@YAJQEB_WQEAPEA_WHQEAU__crt_locale_pointers@@@Z 000000014001fe20 f i libucrtd:strtox.obj
 0001:0001ee70       strtol                     000000014001fe70 f   libucrtd:strtox.obj
 0001:0001eea0       wcstol                     000000014001fea0 f   libucrtd:strtox.obj
 0001:0001eed0       _mbtowc_l                  000000014001fed0 f   libucrtd:mbtowc.obj
 0001:0001f330       mbtowc                     0000000140020330 f   libucrtd:mbtowc.obj
 0001:0001f360       _wctomb_s_l                0000000140020360 f   libucrtd:wctomb.obj
 0001:00020c40       ??1?$__crt_simd_cleanup_guard@$00@@QEAA@XZ 0000000140021c40 f i libucrtd:strnlen.obj
 0001:00020c50       ?compare_equals@?$__crt_simd_traits@$00E@@SA?AT__m256i@@T2@0@Z 0000000140021c50 f i libucrtd:strnlen.obj
 0001:00020c90       ?compare_equals@?$__crt_simd_traits@$00G@@SA?AT__m256i@@T2@0@Z 0000000140021c90 f i libucrtd:strnlen.obj
 0001:00020cd0       ?compare_equals@?$__crt_simd_traits@$0A@E@@SA?AT__m128i@@T2@0@Z 0000000140021cd0 f i libucrtd:strnlen.obj
 0001:00020d00       ?compare_equals@?$__crt_simd_traits@$0A@G@@SA?AT__m128i@@T2@0@Z 0000000140021d00 f i libucrtd:strnlen.obj
 0001:00020d30       ?compute_byte_mask@?$__crt_simd_pack_traits@$00@@SAHT__m256i@@@Z 0000000140021d30 f i libucrtd:strnlen.obj
 0001:00020d50       ?compute_byte_mask@?$__crt_simd_pack_traits@$0A@@@SAHT__m128i@@@Z 0000000140021d50 f i libucrtd:strnlen.obj
 0001:00020d70       ?get_zero_pack@?$__crt_simd_pack_traits@$00@@SA?AT__m256i@@XZ 0000000140021d70 f i libucrtd:strnlen.obj
 0001:00020da0       ?get_zero_pack@?$__crt_simd_pack_traits@$0A@@@SA?AT__m128i@@XZ 0000000140021da0 f i libucrtd:strnlen.obj
 0001:00020dc0       strnlen                    0000000140021dc0 f   libucrtd:strnlen.obj
 0001:00020df0       wcslen                     0000000140021df0 f   libucrtd:strnlen.obj
 0001:00020e10       wcsnlen                    0000000140021e10 f   libucrtd:strnlen.obj
 0001:00020e40       ?__acrt_fp_classify@@YA?AW4__acrt_fp_class@@AEBN@Z 0000000140021e40 f i libucrtd:cvt.obj
 0001:00020f40       ?__acrt_fp_is_negative@@YA_NAEBN@Z 0000000140021f40 f i libucrtd:cvt.obj
 0001:00022910       ?strrchr@@YAPEADQEADH@Z    0000000140023910 f i libucrtd:cvt.obj
 0001:00022930       __acrt_fp_format           0000000140023930 f   libucrtd:cvt.obj
 0001:00022f40       ?lowio_handle@__crt_stdio_stream@@QEBAHXZ 0000000140023f40 f i libucrtd:fileno.obj
 0001:00022f70       _fileno                    0000000140023f70 f   libucrtd:fileno.obj
 0001:00023050       _fputc_nolock              0000000140024050 f   libucrtd:fputc.obj
 0001:00023100       _get_printf_count_output   0000000140024100 f   libucrtd:printf_count_output.obj
 0001:00023130       ?has_any_buffer@__crt_stdio_stream@@QEBA_NXZ 0000000140024130 f i libucrtd:_sftbuf.obj
 0001:00023150       ?has_temporary_buffer@__crt_stdio_stream@@QEBA_NXZ 0000000140024150 f i libucrtd:_sftbuf.obj
 0001:00023170       __acrt_should_use_temporary_buffer 0000000140024170 f   libucrtd:_sftbuf.obj
 0001:000231c0       __acrt_stdio_begin_temporary_buffering_nolock 00000001400241c0 f   libucrtd:_sftbuf.obj
 0001:00023400       __acrt_stdio_end_temporary_buffering_nolock 0000000140024400 f   libucrtd:_sftbuf.obj
 0001:000234a0       _set_error_mode            00000001400244a0 f   libucrtd:set_error_mode.obj
 0001:00023c20       wcscat_s                   0000000140024c20 f   libucrtd:wcscat_s.obj
 0001:00024130       wcscpy_s                   0000000140025130 f   libucrtd:wcscpy_s.obj
 0001:00024800       wcsncpy_s                  0000000140025800 f   libucrtd:wcsncpy_s.obj
 0001:00024980       ??$message_box@$$TAEBQEB_WAEBQEB_WK@?$__crt_char_traits@_W@@SAH$$QEA$$TAEBQEB_W1$$QEAK@Z 0000000140025980 f i libucrtd:crtmbox.obj
 0001:00024980       ??$message_box@PEAUHWND__@@AEBQEB_WAEBQEB_WAEBI@?$__crt_char_traits@_W@@SAH$$QEAPEAUHWND__@@AEBQEB_W1AEBI@Z 0000000140025980 f i libucrtd:crtmbox.obj
 0001:000249d0       ??$output_debug_string@AEBQEB_W@?$__crt_char_traits@_W@@SAXAEBQEB_W@Z 00000001400259d0 f i libucrtd:crtmbox.obj
 0001:000249f0       __acrt_show_wide_message_box 00000001400259f0 f   libucrtd:crtmbox.obj
 0001:00024d90       ??$__acrt_mbs_to_wcs_cp@U__crt_win32_buffer_internal_dynamic_resizing@@@@YAHQEBDAEAV?$__crt_win32_buffer@_WU__crt_win32_buffer_internal_dynamic_resizing@@@@I@Z 0000000140025d90 f i libucrtd:argv_wildcards.obj
 0001:00024de0       ??$__acrt_wcs_to_mbs_cp@U__crt_win32_buffer_internal_dynamic_resizing@@@@YAHQEB_WAEAV?$__crt_win32_buffer@DU__crt_win32_buffer_internal_dynamic_resizing@@@@I@Z 0000000140025de0 f i libucrtd:argv_wildcards.obj
 0001:00025830       ??$tcsncpy_s@PEADAEB_KAEBQEBDAEB_K@?$__crt_char_traits@D@@SAH$$QEAPEADAEB_KAEBQEBD1@Z 0000000140026830 f i libucrtd:argv_wildcards.obj
 0001:00025830       ??$tcsncpy_s@PEAD_KAEBQEBDAEB_K@?$__crt_char_traits@D@@SAH$$QEAPEAD$$QEA_KAEBQEBDAEB_K@Z 0000000140026830 f i libucrtd:argv_wildcards.obj
 0001:00025830       ??$tcsncpy_s@AEAPEAD_KAEAPEADAEB_K@?$__crt_char_traits@D@@SAHAEAPEAD$$QEA_K0AEB_K@Z 0000000140026830 f i libucrtd:argv_wildcards.obj
 0001:00025880       ??$tcspbrk@AEAPEADAEAY02$$CBD@?$__crt_char_traits@D@@SAPEADAEAPEADAEAY02$$CBD@Z 0000000140026880 f i libucrtd:argv_wildcards.obj
 0001:000258b0       ??0?$__crt_win32_buffer@_WU__crt_win32_buffer_internal_dynamic_resizing@@@@QEAA@XZ 00000001400268b0 f i libucrtd:argv_wildcards.obj
 0001:000258b0       ??0?$__crt_win32_buffer@DU__crt_win32_buffer_internal_dynamic_resizing@@@@QEAA@XZ 00000001400268b0 f i libucrtd:argv_wildcards.obj
 0001:00025950       ??1?$__crt_unique_handle_t@U__crt_findfile_traits@@@@QEAA@XZ 0000000140026950 f i libucrtd:argv_wildcards.obj
 0001:00025970       ??1?$__crt_win32_buffer@DU__crt_win32_buffer_internal_dynamic_resizing@@@@QEAA@XZ 0000000140026970 f i libucrtd:argv_wildcards.obj
 0001:00025970       ??1?$__crt_win32_buffer@_WU__crt_win32_buffer_internal_dynamic_resizing@@@@QEAA@XZ 0000000140026970 f i libucrtd:argv_wildcards.obj
 0001:00025b60       ?__acrt_get_utf8_acp_compatibility_codepage@@YAIXZ 0000000140026b60 f i libucrtd:argv_wildcards.obj
 0001:00025c00       ?_deallocate@?$__crt_win32_buffer@_WU__crt_win32_buffer_internal_dynamic_resizing@@@@AEAAXXZ 0000000140026c00 f i libucrtd:argv_wildcards.obj
 0001:00025c00       ?_deallocate@?$__crt_win32_buffer@DU__crt_win32_buffer_internal_dynamic_resizing@@@@AEAAXXZ 0000000140026c00 f i libucrtd:argv_wildcards.obj
 0001:00025c40       ?allocate@?$__crt_win32_buffer@DU__crt_win32_buffer_internal_dynamic_resizing@@@@QEAAH_K@Z 0000000140026c40 f i libucrtd:argv_wildcards.obj
 0001:00025cc0       ?allocate@?$__crt_win32_buffer@_WU__crt_win32_buffer_internal_dynamic_resizing@@@@QEAAH_K@Z 0000000140026cc0 f i libucrtd:argv_wildcards.obj
 0001:00025d50       ?allocate@__crt_win32_buffer_internal_dynamic_resizing@@SAHQEAPEAX_KAEBV__crt_win32_buffer_empty_debug_info@@@Z 0000000140026d50 f i libucrtd:argv_wildcards.obj
 0001:00025e20       ?capacity@?$__crt_win32_buffer@_WU__crt_win32_buffer_internal_dynamic_resizing@@@@QEBA_KXZ 0000000140026e20 f i libucrtd:argv_wildcards.obj
 0001:00025e20       ?capacity@?$__crt_win32_buffer@DU__crt_win32_buffer_no_resizing@@@@QEBA_KXZ 0000000140026e20 f i libucrtd:getmodulefilenamea.obj
 0001:00025e20       ?capacity@?$__crt_win32_buffer@DU__crt_win32_buffer_internal_dynamic_resizing@@@@QEBA_KXZ 0000000140026e20 f i libucrtd:argv_wildcards.obj
 0001:00025e30       ?close@?$__crt_unique_handle_t@U__crt_findfile_traits@@@@QEAAXXZ 0000000140026e30 f i libucrtd:argv_wildcards.obj
 0001:00025e70       ?close@__crt_findfile_traits@@SA_NPEAX@Z 0000000140026e70 f i libucrtd:argv_wildcards.obj
 0001:00025eb0       ?data@?$__crt_win32_buffer@DU__crt_win32_buffer_no_resizing@@@@QEAAPEADXZ 0000000140026eb0 f i libucrtd:getmodulefilenamea.obj
 0001:00025eb0       ?data@?$__crt_win32_buffer@_WU__crt_win32_buffer_internal_dynamic_resizing@@@@QEAAPEA_WXZ 0000000140026eb0 f i libucrtd:argv_wildcards.obj
 0001:00025eb0       ?data@?$__crt_win32_buffer@DU__crt_win32_buffer_internal_dynamic_resizing@@@@QEAAPEADXZ 0000000140026eb0 f i libucrtd:argv_wildcards.obj
 0001:00025ec0       ?deallocate@__crt_win32_buffer_internal_dynamic_resizing@@SAXQEAXAEBV__crt_win32_buffer_empty_debug_info@@@Z 0000000140026ec0 f i libucrtd:argv_wildcards.obj
 0001:000261b0       ?set_to_nullptr@?$__crt_win32_buffer@_WU__crt_win32_buffer_internal_dynamic_resizing@@@@QEAAXXZ 00000001400271b0 f i libucrtd:argv_wildcards.obj
 0001:000261b0       ?set_to_nullptr@?$__crt_win32_buffer@DU__crt_win32_buffer_internal_dynamic_resizing@@@@QEAAXXZ 00000001400271b0 f i libucrtd:argv_wildcards.obj
 0001:000261f0       ?size@?$__crt_win32_buffer@DU__crt_win32_buffer_internal_dynamic_resizing@@@@QEAAX_K@Z 00000001400271f0 f i libucrtd:argv_wildcards.obj
 0001:000261f0       ?size@?$__crt_win32_buffer@_WU__crt_win32_buffer_internal_dynamic_resizing@@@@QEAAX_K@Z 00000001400271f0 f i libucrtd:argv_wildcards.obj
 0001:000261f0       ?size@?$__crt_win32_buffer@DU__crt_win32_buffer_no_resizing@@@@QEAAX_K@Z 00000001400271f0 f i libucrtd:getmodulefilenamea.obj
 0001:00026230       ?strpbrk@@YAPEADQEADQEBD@Z 0000000140027230 f i libucrtd:argv_wildcards.obj
 0001:00026260       __acrt_expand_narrow_argv_wildcards 0000000140027260 f   libucrtd:argv_wildcards.obj
 0001:00026430       ??$__acrt_wcs_to_mbs_cp@U__crt_win32_buffer_no_resizing@@@@YAHQEB_WAEAV?$__crt_win32_buffer@DU__crt_win32_buffer_no_resizing@@@@I@Z 0000000140027430 f i libucrtd:getmodulefilenamea.obj
 0001:00026480       ??0?$__crt_win32_buffer@DU__crt_win32_buffer_no_resizing@@@@QEAA@QEAD_K@Z 0000000140027480 f i libucrtd:getmodulefilenamea.obj
 0001:000264f0       ??1?$__crt_win32_buffer@DU__crt_win32_buffer_no_resizing@@@@QEAA@XZ 00000001400274f0 f i libucrtd:getmodulefilenamea.obj
 0001:00026520       ?_deallocate@?$__crt_win32_buffer@DU__crt_win32_buffer_no_resizing@@@@AEAAXXZ 0000000140027520 f i libucrtd:getmodulefilenamea.obj
 0001:00026560       ?allocate@?$__crt_win32_buffer@DU__crt_win32_buffer_no_resizing@@@@QEAAH_K@Z 0000000140027560 f i libucrtd:getmodulefilenamea.obj
 0001:000265e0       ?allocate@__crt_win32_buffer_no_resizing@@SAHQEAPEAX_KAEBV__crt_win32_buffer_empty_debug_info@@@Z 00000001400275e0 f i libucrtd:getmodulefilenamea.obj
 0001:00026610       ?deallocate@__crt_win32_buffer_no_resizing@@SAXQEAXAEBV__crt_win32_buffer_empty_debug_info@@@Z 0000000140027610 f i libucrtd:getmodulefilenamea.obj
 0001:00026620       ?set_to_nullptr@?$__crt_win32_buffer@DU__crt_win32_buffer_no_resizing@@@@QEAAXXZ 0000000140027620 f i libucrtd:getmodulefilenamea.obj
 0001:00026660       ?size@?$__crt_win32_buffer@DU__crt_win32_buffer_no_resizing@@@@QEBA_KXZ 0000000140027660 f i libucrtd:getmodulefilenamea.obj
 0001:00026670       __acrt_GetModuleFileNameA  0000000140027670 f   libucrtd:getmodulefilenamea.obj
 0001:000267e0       ??$initialize_from_array@$$BY10BAA@E@?$dual_state_global@PEAE@__crt_state_management@@QEAAXAEAY10BAA@E@Z 00000001400277e0 f i libucrtd:mbctype.obj
 0001:00026850       ??$initialize_from_array@$$BY10BAB@E@?$dual_state_global@PEAE@__crt_state_management@@QEAAXAEAY10BAB@E@Z 0000000140027850 f i libucrtd:mbctype.obj
 0001:000273c0       __acrt_initialize_multibyte 00000001400283c0 f   libucrtd:mbctype.obj
 0001:00027490       __acrt_update_thread_multibyte_data 0000000140028490 f   libucrtd:mbctype.obj
 0001:000274c0       _setmbcp_nolock            00000001400284c0 f   libucrtd:mbctype.obj
 0001:00027b64       _ismbblead                 0000000140028b64 f   libucrtd:ismbbyte.obj
 0001:00027c20       __acrt_MultiByteToWideChar 0000000140028c20 f   libucrtd:multibytetowidechar.obj
 0001:00027d20       __acrt_WideCharToMultiByte 0000000140028d20 f   libucrtd:widechartomultibyte.obj
 0001:00027e50       __dcrt_get_narrow_environment_from_os 0000000140028e50 f   libucrtd:get_environment_from_os.obj
 0001:00028520       __dcrt_set_variable_in_narrow_environment_nolock 0000000140029520 f   libucrtd:setenv.obj
 0001:00028530       __acrt_lowio_create_handle_array 0000000140029530 f   libucrtd:osfinfo.obj
 0001:000286f0       __acrt_lowio_destroy_handle_array 00000001400296f0 f   libucrtd:osfinfo.obj
 0001:00028770       __acrt_lowio_ensure_fh_exists 0000000140029770 f   libucrtd:osfinfo.obj
 0001:000288d0       __acrt_lowio_lock_fh       00000001400298d0 f   libucrtd:osfinfo.obj
 0001:00028910       __acrt_lowio_unlock_fh     0000000140029910 f   libucrtd:osfinfo.obj
 0001:00028950       _free_osfhnd               0000000140029950 f   libucrtd:osfinfo.obj
 0001:00028a80       _get_osfhandle             0000000140029a80 f   libucrtd:osfinfo.obj
 0001:00028c80       __acrt_initialize_fmode    0000000140029c80 f   libucrtd:txtmode.obj
 0001:00028ce0       __acrt_locale_free_monetary 0000000140029ce0 f   libucrtd:initmon.obj
 0001:00028ef0       __acrt_locale_free_numeric 0000000140029ef0 f   libucrtd:initnum.obj
 0001:00029090       __acrt_locale_free_time    000000014002a090 f   libucrtd:inittime.obj
 0001:00029200       __pctype_func              000000014002a200 f   libucrtd:ctype.obj
 0001:00029240       ??1?$__crt_scoped_stack_ptr@_W@@QEAA@XZ 000000014002a240 f i libucrtd:getstringtypea.obj
 0001:00029260       _MallocaComputeSize        000000014002a260 f i libucrtd:getstringtypea.obj
 0001:000292a0       _MarkAllocaS               000000014002a2a0 f i libucrtd:getstringtypea.obj
 0001:000292d0       __acrt_GetStringTypeA      000000014002a2d0 f   libucrtd:getstringtypea.obj
 0001:00029530       _freea_crt                 000000014002a530 f i libucrtd:getstringtypea.obj
 0001:000295d0       __acrt_add_locale_ref      000000014002a5d0 f   libucrtd:locale_refcounting.obj
 0001:00029730       __acrt_free_locale         000000014002a730 f   libucrtd:locale_refcounting.obj
 0001:00029ab0       __acrt_locale_add_lc_time_reference 000000014002aab0 f   libucrtd:locale_refcounting.obj
 0001:00029af0       __acrt_locale_free_lc_time_if_unreferenced 000000014002aaf0 f   libucrtd:locale_refcounting.obj
 0001:00029b50       __acrt_locale_release_lc_time_reference 000000014002ab50 f   libucrtd:locale_refcounting.obj
 0001:00029b90       __acrt_release_locale_ref  000000014002ab90 f   libucrtd:locale_refcounting.obj
 0001:00029d00       __acrt_update_thread_locale_data 000000014002ad00 f   libucrtd:locale_refcounting.obj
 0001:00029da0       _updatetlocinfoEx_nolock   000000014002ada0 f   libucrtd:locale_refcounting.obj
 0001:00029e40       __acrt_initialize_heap     000000014002ae40 f   libucrtd:heap_handle.obj
 0001:00029e70       __acrt_uninitialize_heap   000000014002ae70 f   libucrtd:heap_handle.obj
 0001:00029e90       __acrt_execute_initializers 000000014002ae90 f   libucrtd:shared_initialization.obj
 0001:00029f80       __acrt_execute_uninitializers 000000014002af80 f   libucrtd:shared_initialization.obj
 0001:0002a000       __acrt_initialize_new_handler 000000014002b000 f   libucrtd:new_handler.obj
 0001:0002a020       _callnewh                  000000014002b020 f   libucrtd:new_handler.obj
 0001:0002a070       _query_new_handler         000000014002b070 f   libucrtd:new_handler.obj
 0001:0002a270       __acrt_get_sigabrt_handler 000000014002b270 f   libucrtd:signal.obj
 0001:0002a2a0       __acrt_initialize_signal_handlers 000000014002b2a0 f   libucrtd:signal.obj
 0001:0002a300       __fpecode                  000000014002b300 f   libucrtd:signal.obj
 0001:0002a320       raise                      000000014002b320 f   libucrtd:signal.obj
 0001:0002a7f0       _free_base                 000000014002b7f0 f   libucrtd:free_base.obj
 0001:0002a850       _realloc_base              000000014002b850 f   libucrtd:realloc_base.obj
 0001:0002a970       _expand_base               000000014002b970 f   libucrtd:expand.obj
 0001:0002ab00       _CrtDefaultAllocHook       000000014002bb00 f   libucrtd:debug_heap_hook.obj
 0001:0002ab20       _VCrtDbgReportA            000000014002bb20 f   libucrtd:dbgrptt.obj
 0001:0002b500       _VCrtDbgReportW            000000014002c500 f   libucrtd:dbgrptt.obj
 0001:0002c080       _snprintf_s                000000014002d080 f i libucrtd:dbgrptt.obj
 0001:0002c0f0       _vsnprintf_s               000000014002d0f0 f i libucrtd:dbgrptt.obj
 0001:0002c140       _vsnprintf_s_l             000000014002d140 f i libucrtd:dbgrptt.obj
 0001:0002c1c0       __acrt_GetStringTypeW      000000014002d1c0 f   libucrtd:getstringtypew.obj
 0001:0002c2b0       __acrt_DownlevelLocaleNameToLCID 000000014002d2b0 f   libucrtd:lcidtoname_downlevel.obj
 0001:0002c310       _fclose_nolock             000000014002d310 f   libucrtd:fclose.obj
 0001:0002c4a0       fclose                     000000014002d4a0 f   libucrtd:fclose.obj
 0001:0002c790       _commit                    000000014002d790 f   libucrtd:commit.obj
 0001:0002e370       _utf8_no_of_trailbytes     000000014002f370 f i libucrtd:write.obj
 0001:0002e390       _write                     000000014002f390 f   libucrtd:write.obj
 0001:0002e630       _write_nolock              000000014002f630 f   libucrtd:write.obj
 0001:0002ec00       _isleadbyte_l              000000014002fc00 f i libucrtd:_wctype.obj
 0001:0002ecd0       ?__mbrtowc_utf8@__crt_mbstring@@YA_KPEA_WPEBD_KPEAU_Mbstatet@@@Z 000000014002fcd0 f   libucrtd:mbrtowc.obj
 0001:0002ed40       ?__mbsrtowcs_utf8@__crt_mbstring@@YA_KPEA_WPEAPEBD_KPEAU_Mbstatet@@@Z 000000014002fd40 f   libucrtd:mbrtowc.obj
 0001:0002f040       ?__c32rtomb_utf8@__crt_mbstring@@YA_KPEAD_UPEAU_Mbstatet@@@Z 0000000140030040 f   libucrtd:c32rtomb.obj
 0001:0002f2c0       ?reset_and_return@__crt_mbstring@@YA_K_KPEAU_Mbstatet@@@Z 00000001400302c0 f i libucrtd:c32rtomb.obj
 0001:0002f300       ?return_illegal_sequence@__crt_mbstring@@YA_KPEAU_Mbstatet@@@Z 0000000140030300 f i libucrtd:c32rtomb.obj
 0001:0002f340       c32rtomb                   0000000140030340 f   libucrtd:c32rtomb.obj
 0001:0002f500       __acrt_fp_strflt_to_string 0000000140030500 f   libucrtd:_fptostr.obj
 0001:00030000       ??0big_integer@__crt_strtox@@QEAA@AEBU01@@Z 0000000140031000 f i libucrtd:cfout.obj
 0001:00030000       ??4big_integer@__crt_strtox@@QEAAAEAU01@AEBU01@@Z 0000000140031000 f i libucrtd:cfout.obj
 0001:00030060       ??0big_integer@__crt_strtox@@QEAA@XZ 0000000140031060 f i libucrtd:cfout.obj
 0001:00030120       ??8__crt_strtox@@YA_NAEBUbig_integer@0@0@Z 0000000140031120 f i libucrtd:cfout.obj
 0001:00030190       ??9__crt_strtox@@YA_NAEBUbig_integer@0@0@Z 0000000140031190 f i libucrtd:cfout.obj
 0001:000301d0       ?add_carry@__crt_strtox@@YAIAEAIII@Z 00000001400311d0 f i libucrtd:cfout.obj
 0001:00030220       ?add_multiply_carry@__crt_strtox@@YAIAEAIIII@Z 0000000140031220 f i libucrtd:cfout.obj
 0001:00030280       ?bit_scan_reverse@__crt_strtox@@YAII@Z 0000000140031280 f i libucrtd:cfout.obj
 0001:000302c0       ?count_sequential_high_zeroes@__crt_strtox@@YAII@Z 00000001400312c0 f i libucrtd:cfout.obj
 0001:00030300       ?divide@__crt_strtox@@YA_KAEAUbig_integer@1@AEBU21@@Z 0000000140031300 f i libucrtd:cfout.obj
 0001:00030cd0       ?is_zero@__crt_strtox@@YA_NAEBUbig_integer@1@@Z 0000000140031cd0 f i libucrtd:cfout.obj
 0001:00030d00       ?make_big_integer@__crt_strtox@@YA?AUbig_integer@1@_K@Z 0000000140031d00 f i libucrtd:cfout.obj
 0001:00030dd0       ?make_big_integer_power_of_two@__crt_strtox@@YA?AUbig_integer@1@I@Z 0000000140031dd0 f i libucrtd:cfout.obj
 0001:00030ea0       ?multiply@__crt_strtox@@YA_NAEAUbig_integer@1@AEBU21@@Z 0000000140031ea0 f i libucrtd:cfout.obj
 0001:00031220       ?multiply@__crt_strtox@@YA_NAEAUbig_integer@1@I@Z 0000000140032220 f i libucrtd:cfout.obj
 0001:00031340       ?multiply_64_32@__crt_strtox@@YA_K_KI@Z 0000000140032340 f i libucrtd:cfout.obj
 0001:00031360       ?multiply_by_power_of_ten@__crt_strtox@@YA_NAEAUbig_integer@1@I@Z 0000000140032360 f i libucrtd:cfout.obj
 0001:00031510       ?multiply_core@__crt_strtox@@YAIQEAIII@Z 0000000140032510 f i libucrtd:cfout.obj
 0001:00031590       ?shift_left@__crt_strtox@@YA_NAEAUbig_integer@1@I@Z 0000000140032590 f i libucrtd:cfout.obj
 0001:00031870       __acrt_fltout              0000000140032870 f   libucrtd:cfout.obj
 0001:00031c20       fegetround                 0000000140032c20 f   libucrtd:fegetround.obj
 0001:000320d0       ?has_big_buffer@__crt_stdio_stream@@QEBA_NXZ 00000001400330d0 f i libucrtd:_flsbuf.obj
 0001:000321f0       __acrt_stdio_flush_and_write_narrow_nolock 00000001400331f0 f   libucrtd:_flsbuf.obj
 0001:00032220       _isatty                    0000000140033220 f   libucrtd:isatty.obj
 0001:00032330       __acrt_OutputDebugStringA  0000000140033330 f   libucrtd:outputdebugstringa.obj
 0001:00032560       qsort                      0000000140033560 f   libucrtd:qsort.obj
 0001:000332f0       strncpy_s                  00000001400342f0 f   libucrtd:strncpy_s.obj
 0001:00033460       strpbrk                    0000000140034460 f   libucrtd:strpbrk.obj
 0001:00033d50       _mbsdec                    0000000140034d50 f   libucrtd:mbsdec.obj
 0001:00033d58       _mbsdec_l                  0000000140034d58 f   libucrtd:mbsdec.obj
 0001:00034440       __acrt_LCMapStringA        0000000140035440 f   libucrtd:lcmapstringa.obj
 0001:00034520       _strnicoll                 0000000140035520 f   libucrtd:strnicol.obj
 0001:00034580       _strnicoll_l               0000000140035580 f   libucrtd:strnicol.obj
 0001:00034960       __acrt_SetEnvironmentVariableA 0000000140035960 f   libucrtd:setenvironmentvariablea.obj
 0001:00035660       _itoa_s                    0000000140036660 f   libucrtd:xtoa.obj
 0001:000356c0       _itow_s                    00000001400366c0 f   libucrtd:xtoa.obj
 0001:00035720       __ascii_wcsnicmp           0000000140036720 f   libucrtd:wcsnicmp.obj
 0001:000357f0       _malloc_base               00000001400367f0 f   libucrtd:malloc_base.obj
 0001:00035e70       _mbstowcs_s_l              0000000140036e70 f   libucrtd:mbstowcs.obj
 0001:00036440       mbstowcs_s                 0000000140037440 f   libucrtd:mbstowcs.obj
 0001:00036dd0       _wcstombs_s_l              0000000140037dd0 f   libucrtd:wcstombs.obj
 0001:00037310       wcstombs_s                 0000000140038310 f   libucrtd:wcstombs.obj
 0001:000379d0       strcat_s                   00000001400389d0 f   libucrtd:strcat_s.obj
 0001:00037c30       _close                     0000000140038c30 f   libucrtd:close.obj
 0001:00037e20       _close_nolock              0000000140038e20 f   libucrtd:close.obj
 0001:00037e90       ?__acrt_stdio_free_stream@@YAXV__crt_stdio_stream@@@Z 0000000140038e90 f   libucrtd:stream.obj
 0001:00037f30       ?deallocate@__crt_stdio_stream@@QEAAXXZ 0000000140038f30 f i libucrtd:stream.obj
 0001:00038360       _lseeki64                  0000000140039360 f   libucrtd:lseek.obj
 0001:00038390       _lseeki64_nolock           0000000140039390 f   libucrtd:lseek.obj
 0001:000383bc       _putwch_nolock             00000001400393bc f   libucrtd:putwch.obj
 0001:00038400       ?__mbrtoc32_utf8@__crt_mbstring@@YA_KPEA_UPEBD_KPEAU_Mbstatet@@@Z 0000000140039400 f   libucrtd:mbrtoc32.obj
 0001:000387c0       log10                      00000001400397c0 f   libucrtd:log10.obj
 0001:00038d70       ceil                       0000000140039d70 f   libucrtd:ceil.obj
 0001:00038f40       _controlfp_s               0000000140039f40 f   libucrtd:contrlfp.obj
 0001:00039070       fegetenv                   000000014003a070 f   libucrtd:fegetenv.obj
 0001:000390a0       fesetenv                   000000014003a0a0 f   libucrtd:fesetenv.obj
 0001:00039120       feholdexcept               000000014003a120 f   libucrtd:feholdexcept.obj
 0001:00039190       ??$__acrt_fenv_shift_bits@W4__acrt_fenv_abstract_status@@@@YA?AW4__acrt_fenv_abstract_status@@W40@0I@Z 000000014003a190 f i libucrtd:_fenvutils.obj
 0001:00039190       ??$__acrt_fenv_shift_bits@W4__acrt_fenv_abstract_control@@@@YA?AW4__acrt_fenv_abstract_control@@W40@0I@Z 000000014003a190 f i libucrtd:_fenvutils.obj
 0001:000391c0       ??$__acrt_fenv_translate_bit@W4__acrt_fenv_abstract_control@@W4__acrt_fenv_machine_sse_control@@@@YA?AW4__acrt_fenv_abstract_control@@W4__acrt_fenv_machine_sse_control@@0W40@1@Z 000000014003a1c0 f i libucrtd:_fenvutils.obj
 0001:00039220       ??$__acrt_fenv_translate_bit@W4__acrt_fenv_abstract_status@@W4__acrt_fenv_machine_sse_status@@@@YA?AW4__acrt_fenv_abstract_status@@W4__acrt_fenv_machine_sse_status@@0W40@1@Z 000000014003a220 f i libucrtd:_fenvutils.obj
 0001:00039220       ??$__acrt_fenv_translate_bit@W4__acrt_fenv_machine_sse_status@@W4__acrt_fenv_abstract_status@@@@YA?AW4__acrt_fenv_machine_sse_status@@W4__acrt_fenv_abstract_status@@0W40@1@Z 000000014003a220 f i libucrtd:_fenvutils.obj
 0001:00039270       ??$__acrt_fenv_translate_bit@W4__acrt_fenv_machine_sse_control@@W4__acrt_fenv_abstract_control@@@@YA?AW4__acrt_fenv_machine_sse_control@@W4__acrt_fenv_abstract_control@@0W40@1@Z 000000014003a270 f i libucrtd:_fenvutils.obj
 0001:000392d0       ??$__acrt_fenv_unshift_bits@W4__acrt_fenv_abstract_status@@@@YA?AW4__acrt_fenv_abstract_status@@W40@0I@Z 000000014003a2d0 f i libucrtd:_fenvutils.obj
 0001:000392d0       ??$__acrt_fenv_unshift_bits@W4__acrt_fenv_abstract_control@@@@YA?AW4__acrt_fenv_abstract_control@@W40@0I@Z 000000014003a2d0 f i libucrtd:_fenvutils.obj
 0001:000397c0       ??I@YA?AW4__acrt_fenv_abstract_status@@W40@0@Z 000000014003a7c0 f i libucrtd:_fenvutils.obj
 0001:000397c0       ??I@YA?AW4__acrt_fenv_machine_sse_status@@W40@0@Z 000000014003a7c0 f i libucrtd:_fenvutils.obj
 0001:000397c0       ??I@YA?AW4__acrt_fenv_abstract_control@@W40@0@Z 000000014003a7c0 f i libucrtd:_fenvutils.obj
 0001:000397e0       ??I@YA?AW4__acrt_fenv_machine_sse_control@@W40@0@Z 000000014003a7e0 f i libucrtd:_fenvutils.obj
 0001:00039800       ??U@YA?AW4__acrt_fenv_abstract_status@@W40@0@Z 000000014003a800 f i libucrtd:_fenvutils.obj
 0001:00039800       ??U@YA?AW4__acrt_fenv_abstract_control@@W40@0@Z 000000014003a800 f i libucrtd:_fenvutils.obj
 0001:00039820       ??U@YA?AW4__acrt_fenv_machine_sse_control@@W40@0@Z 000000014003a820 f i libucrtd:_fenvutils.obj
 0001:00039840       ??_5@YAAEAW4__acrt_fenv_machine_sse_status@@AEAW40@W40@@Z 000000014003a840 f i libucrtd:_fenvutils.obj
 0001:00039840       ??_5@YAAEAW4__acrt_fenv_abstract_control@@AEAW40@W40@@Z 000000014003a840 f i libucrtd:_fenvutils.obj
 0001:00039840       ??_5@YAAEAW4__acrt_fenv_abstract_status@@AEAW40@W40@@Z 000000014003a840 f i libucrtd:_fenvutils.obj
 0001:00039870       ??_5@YAAEAW4__acrt_fenv_machine_sse_control@@AEAW40@W40@@Z 000000014003a870 f i libucrtd:_fenvutils.obj
 0001:000398a0       ?__acrt_fenv_shift_abstract_sse_control@@YA?AW4__acrt_fenv_abstract_control@@W41@@Z 000000014003a8a0 f i libucrtd:_fenvutils.obj
 0001:000398f0       ?__acrt_fenv_shift_abstract_sse_status@@YA?AW4__acrt_fenv_abstract_status@@W41@@Z 000000014003a8f0 f i libucrtd:_fenvutils.obj
 0001:00039920       ?__acrt_fenv_unshift_abstract_sse_control@@YA?AW4__acrt_fenv_abstract_control@@W41@@Z 000000014003a920 f i libucrtd:_fenvutils.obj
 0001:00039970       ?__acrt_fenv_unshift_abstract_sse_status@@YA?AW4__acrt_fenv_abstract_status@@W41@@Z 000000014003a970 f i libucrtd:_fenvutils.obj
 0001:00039c40       __acrt_fenv_get_common_round_control 000000014003ac40 f   libucrtd:_fenvutils.obj
 0001:00039c60       __acrt_fenv_get_control    000000014003ac60 f   libucrtd:_fenvutils.obj
 0001:00039c90       __acrt_fenv_get_status     000000014003ac90 f   libucrtd:_fenvutils.obj
 0001:00039cc0       __acrt_fenv_set_control    000000014003acc0 f   libucrtd:_fenvutils.obj
 0001:00039ce0       __acrt_fenv_set_status     000000014003ace0 f   libucrtd:_fenvutils.obj
 0001:00039d00       __acrt_stdio_allocate_buffer_nolock 000000014003ad00 f   libucrtd:_getbuf.obj
 0001:00039e80       __strncnt                  000000014003ae80 f   libucrtd:strncnt.obj
 0001:00039ee0       __ascii_strnicmp           000000014003aee0 f   libucrtd:strnicmp.obj
 0001:00039fb0       _strnicmp                  000000014003afb0 f   libucrtd:strnicmp.obj
 0001:0003a200       _strnicmp_l                000000014003b200 f   libucrtd:strnicmp.obj
 0001:0003abd0       __acrt_CompareStringA      000000014003bbd0 f   libucrtd:comparestringa.obj
 0001:0003ac70       ?__wcsrtombs_utf8@__crt_mbstring@@YA_KPEADPEAPEB_W_KPEAU_Mbstatet@@@Z 000000014003bc70 f   libucrtd:wcrtomb.obj
 0001:0003aed8       __dcrt_lowio_ensure_console_output_initialized 000000014003bed8 f   libucrtd:initcon.obj
 0001:0003af2c       __dcrt_terminate_console_output 000000014003bf2c f   libucrtd:initcon.obj
 0001:0003af48       __dcrt_write_console       000000014003bf48 f   libucrtd:initcon.obj
 0001:0003b010       __acrt_initialize_fma3     000000014003c010 f   libucrtd:fma3_available.obj
 0001:0003b0c0       _log10_special             000000014003c0c0 f   libucrtd:log_special.obj
 0001:0003b400       _handle_error              000000014003c400 f   libucrtd:libm_error.obj
 0001:0003b590       _handle_nan                000000014003c590 f   libucrtd:libm_error.obj
 0001:0003b7d0       _clearfp                   000000014003c7d0 f   libucrtd:ieee.obj
 0001:0003b7f0       _control87                 000000014003c7f0 f   libucrtd:ieee.obj
 0001:0003ba80       ?__c16rtomb_utf8@__crt_mbstring@@YA_KPEAD_SPEAU_Mbstatet@@@Z 000000014003ca80 f   libucrtd:c16rtomb.obj
 0001:0003bca0       _raise_exc                 000000014003cca0 f   libucrtd:fpexcept.obj
 0001:0003bd00       _raise_exc_ex              000000014003cd00 f   libucrtd:fpexcept.obj
 0001:0003c380       _set_errno_from_matherr    000000014003d380 f   libucrtd:fpexcept.obj
 0001:0003c3d0       _clrfp                     000000014003d3d0 f   libucrtd:fpctrl.obj
 0001:0003c400       _ctrlfp                    000000014003d400 f   libucrtd:fpctrl.obj
 0001:0003c4b0       _set_statfp                000000014003d4b0 f   libucrtd:fpctrl.obj
 0001:0003c4f0       _statfp                    000000014003d4f0 f   libucrtd:fpctrl.obj
 0001:0003c530       _get_fpsr                  000000014003d530 f   libucrtd:fpsr.obj
 0001:0003c540       _set_fpsr                  000000014003d540 f   libucrtd:fpsr.obj
 0001:0003c54a       _fclrf                     000000014003d54a f   libucrtd:fpsr.obj
 0001:0003c55e       _frnd                      000000014003d55e f   libucrtd:fpsr.obj
 0001:0003c580       _FindPESection             000000014003d580 f   LIBCMTD:pesect.obj
 0001:0003c630       _IsNonwritableInCurrentImage 000000014003d630 f   LIBCMTD:pesect.obj
 0001:0003c6c0       _ValidateImageBase         000000014003d6c0 f   LIBCMTD:pesect.obj
 0001:0003c740       ??1type_info@@UEAA@XZ      000000014003d740 f   LIBCMTD:std_type_info_static.obj
 0001:0003c760       ??_Gtype_info@@UEAAPEAXI@Z 000000014003d760 f i LIBCMTD:std_type_info_static.obj
 0001:0003c760       ??_Etype_info@@UEAAPEAXI@Z 000000014003d760 f i LIBCMTD:std_type_info_static.obj
 0001:0003c7a0       ??3@YAXPEAX_K@Z            000000014003d7a0 f   LIBCMTD:delete_scalar_size.obj
 0001:0003c7c0       __GSHandlerCheck_SEH       000000014003d7c0 f   LIBCMTD:gshandlerseh.obj
 0001:0003c890       _alloca_probe              000000014003d890 f   LIBCMTD:chkstk.obj
 0001:0003c890       __chkstk                   000000014003d890 f   LIBCMTD:chkstk.obj
 0001:0003c8e0       __GSHandlerCheck_EH        000000014003d8e0 f   LIBCMTD:gshandlereh.obj
 0001:0003c990       ??3@YAXPEAX@Z              000000014003d990 f   LIBCMTD:delete_scalar.obj
 0001:0003c9c0       memcmp                     000000014003d9c0 f   libvcruntimed:memcmp.obj
 0001:0003ca90       strrchr                    000000014003da90 f   libvcruntimed:strrchr.obj
 0001:0003ceb0       strchr                     000000014003deb0 f   libvcruntimed:strchr.obj
 0001:0003d050       _guard_dispatch_icall_nop  000000014003e050 f   LIBCMTD:guard_dispatch.obj
 0001:0003d070       _guard_xfg_dispatch_icall_nop 000000014003e070 f   LIBCMTD:guard_xfg_dispatch.obj
 0002:00000000       __imp_GetStdHandle         000000014003f000     kernel32:KERNEL32.dll
 0002:00000008       __imp_CreateFileW          000000014003f008     kernel32:KERNEL32.dll
 0002:00000010       __imp_CloseHandle          000000014003f010     kernel32:KERNEL32.dll
 0002:00000018       __imp_SetFilePointerEx     000000014003f018     kernel32:KERNEL32.dll
 0002:00000020       __imp_GetFileSizeEx        000000014003f020     kernel32:KERNEL32.dll
 0002:00000028       __imp_GetConsoleMode       000000014003f028     kernel32:KERNEL32.dll
 0002:00000030       __imp_GetConsoleOutputCP   000000014003f030     kernel32:KERNEL32.dll
 0002:00000038       __imp_FlushFileBuffers     000000014003f038     kernel32:KERNEL32.dll
 0002:00000040       __imp_WriteConsoleW        000000014003f040     kernel32:KERNEL32.dll
 0002:00000048       __imp_HeapQueryInformation 000000014003f048     kernel32:KERNEL32.dll
 0002:00000050       __imp_RtlCaptureContext    000000014003f050     kernel32:KERNEL32.dll
 0002:00000058       __imp_RtlLookupFunctionEntry 000000014003f058     kernel32:KERNEL32.dll
 0002:00000060       __imp_RtlVirtualUnwind     000000014003f060     kernel32:KERNEL32.dll
 0002:00000068       __imp_UnhandledExceptionFilter 000000014003f068     kernel32:KERNEL32.dll
 0002:00000070       __imp_SetUnhandledExceptionFilter 000000014003f070     kernel32:KERNEL32.dll
 0002:00000078       __imp_GetCurrentProcess    000000014003f078     kernel32:KERNEL32.dll
 0002:00000080       __imp_TerminateProcess     000000014003f080     kernel32:KERNEL32.dll
 0002:00000088       __imp_IsProcessorFeaturePresent 000000014003f088     kernel32:KERNEL32.dll
 0002:00000090       __imp_QueryPerformanceCounter 000000014003f090     kernel32:KERNEL32.dll
 0002:00000098       __imp_GetCurrentProcessId  000000014003f098     kernel32:KERNEL32.dll
 0002:000000a0       __imp_GetCurrentThreadId   000000014003f0a0     kernel32:KERNEL32.dll
 0002:000000a8       __imp_GetSystemTimeAsFileTime 000000014003f0a8     kernel32:KERNEL32.dll
 0002:000000b0       __imp_InitializeSListHead  000000014003f0b0     kernel32:KERNEL32.dll
 0002:000000b8       __imp_IsDebuggerPresent    000000014003f0b8     kernel32:KERNEL32.dll
 0002:000000c0       __imp_GetStartupInfoW      000000014003f0c0     kernel32:KERNEL32.dll
 0002:000000c8       __imp_GetModuleHandleW     000000014003f0c8     kernel32:KERNEL32.dll
 0002:000000d0       __imp_HeapReAlloc          000000014003f0d0     kernel32:KERNEL32.dll
 0002:000000d8       __imp_RtlUnwindEx          000000014003f0d8     kernel32:KERNEL32.dll
 0002:000000e0       __imp_GetLastError         000000014003f0e0     kernel32:KERNEL32.dll
 0002:000000e8       __imp_SetLastError         000000014003f0e8     kernel32:KERNEL32.dll
 0002:000000f0       __imp_EnterCriticalSection 000000014003f0f0     kernel32:KERNEL32.dll
 0002:000000f8       __imp_LeaveCriticalSection 000000014003f0f8     kernel32:KERNEL32.dll
 0002:00000100       __imp_DeleteCriticalSection 000000014003f100     kernel32:KERNEL32.dll
 0002:00000108       __imp_InitializeCriticalSectionAndSpinCount 000000014003f108     kernel32:KERNEL32.dll
 0002:00000110       __imp_TlsAlloc             000000014003f110     kernel32:KERNEL32.dll
 0002:00000118       __imp_TlsGetValue          000000014003f118     kernel32:KERNEL32.dll
 0002:00000120       __imp_TlsSetValue          000000014003f120     kernel32:KERNEL32.dll
 0002:00000128       __imp_TlsFree              000000014003f128     kernel32:KERNEL32.dll
 0002:00000130       __imp_FreeLibrary          000000014003f130     kernel32:KERNEL32.dll
 0002:00000138       __imp_GetProcAddress       000000014003f138     kernel32:KERNEL32.dll
 0002:00000140       __imp_LoadLibraryExW       000000014003f140     kernel32:KERNEL32.dll
 0002:00000148       __imp_EncodePointer        000000014003f148     kernel32:KERNEL32.dll
 0002:00000150       __imp_RaiseException       000000014003f150     kernel32:KERNEL32.dll
 0002:00000158       __imp_RtlPcToFileHeader    000000014003f158     kernel32:KERNEL32.dll
 0002:00000160       __imp_ExitProcess          000000014003f160     kernel32:KERNEL32.dll
 0002:00000168       __imp_GetModuleHandleExW   000000014003f168     kernel32:KERNEL32.dll
 0002:00000170       __imp_WriteFile            000000014003f170     kernel32:KERNEL32.dll
 0002:00000178       __imp_GetModuleFileNameW   000000014003f178     kernel32:KERNEL32.dll
 0002:00000180       __imp_GetCommandLineA      000000014003f180     kernel32:KERNEL32.dll
 0002:00000188       __imp_GetCommandLineW      000000014003f188     kernel32:KERNEL32.dll
 0002:00000190       __imp_HeapAlloc            000000014003f190     kernel32:KERNEL32.dll
 0002:00000198       __imp_HeapSize             000000014003f198     kernel32:KERNEL32.dll
 0002:000001a0       __imp_HeapValidate         000000014003f1a0     kernel32:KERNEL32.dll
 0002:000001a8       __imp_GetSystemInfo        000000014003f1a8     kernel32:KERNEL32.dll
 0002:000001b0       __imp_CompareStringW       000000014003f1b0     kernel32:KERNEL32.dll
 0002:000001b8       __imp_LCMapStringW         000000014003f1b8     kernel32:KERNEL32.dll
 0002:000001c0       __imp_GetFileType          000000014003f1c0     kernel32:KERNEL32.dll
 0002:000001c8       __imp_OutputDebugStringW   000000014003f1c8     kernel32:KERNEL32.dll
 0002:000001d0       __imp_FindClose            000000014003f1d0     kernel32:KERNEL32.dll
 0002:000001d8       __imp_FindFirstFileExW     000000014003f1d8     kernel32:KERNEL32.dll
 0002:000001e0       __imp_FindNextFileW        000000014003f1e0     kernel32:KERNEL32.dll
 0002:000001e8       __imp_IsValidCodePage      000000014003f1e8     kernel32:KERNEL32.dll
 0002:000001f0       __imp_GetACP               000000014003f1f0     kernel32:KERNEL32.dll
 0002:000001f8       __imp_GetOEMCP             000000014003f1f8     kernel32:KERNEL32.dll
 0002:00000200       __imp_GetCPInfo            000000014003f200     kernel32:KERNEL32.dll
 0002:00000208       __imp_MultiByteToWideChar  000000014003f208     kernel32:KERNEL32.dll
 0002:00000210       __imp_WideCharToMultiByte  000000014003f210     kernel32:KERNEL32.dll
 0002:00000218       __imp_GetEnvironmentStringsW 000000014003f218     kernel32:KERNEL32.dll
 0002:00000220       __imp_FreeEnvironmentStringsW 000000014003f220     kernel32:KERNEL32.dll
 0002:00000228       __imp_SetEnvironmentVariableW 000000014003f228     kernel32:KERNEL32.dll
 0002:00000230       __imp_SetStdHandle         000000014003f230     kernel32:KERNEL32.dll
 0002:00000238       __imp_GetStringTypeW       000000014003f238     kernel32:KERNEL32.dll
 0002:00000240       __imp_GetProcessHeap       000000014003f240     kernel32:KERNEL32.dll
 0002:00000248       __imp_HeapFree             000000014003f248     kernel32:KERNEL32.dll
 0002:00000250       \177KERNEL32_NULL_THUNK_DATA 000000014003f250     kernel32:KERNEL32.dll
 0002:00000258       __imp_bind                 000000014003f258     Ws2_32:WS2_32.dll
 0002:00000260       __imp_getaddrinfo          000000014003f260     Ws2_32:WS2_32.dll
 0002:00000268       __imp_WSAStartup           000000014003f268     Ws2_32:WS2_32.dll
 0002:00000270       __imp_socket               000000014003f270     Ws2_32:WS2_32.dll
 0002:00000278       __imp_sendto               000000014003f278     Ws2_32:WS2_32.dll
 0002:00000280       __imp_send                 000000014003f280     Ws2_32:WS2_32.dll
 0002:00000288       __imp_select               000000014003f288     Ws2_32:WS2_32.dll
 0002:00000290       __imp_recvfrom             000000014003f290     Ws2_32:WS2_32.dll
 0002:00000298       __imp_recv                 000000014003f298     Ws2_32:WS2_32.dll
 0002:000002a0       __imp_listen               000000014003f2a0     Ws2_32:WS2_32.dll
 0002:000002a8       __imp_accept               000000014003f2a8     Ws2_32:WS2_32.dll
 0002:000002b0       \177WS2_32_NULL_THUNK_DATA 000000014003f2b0     Ws2_32:WS2_32.dll
 0002:000002b8       __guard_check_icall_fptr   000000014003f2b8     LIBCMTD:guard_support.obj
 0002:000002c0       __guard_xfg_check_icall_fptr 000000014003f2c0     LIBCMTD:guard_support.obj
 0002:000002c8       __guard_dispatch_icall_fptr 000000014003f2c8     LIBCMTD:guard_support.obj
 0002:000002d0       __guard_xfg_dispatch_icall_fptr 000000014003f2d0     LIBCMTD:guard_support.obj
 0002:000002d8       __guard_xfg_table_dispatch_icall_fptr 000000014003f2d8     LIBCMTD:guard_support.obj
 0002:000002e0       __castguard_check_failure_os_handled_fptr 000000014003f2e0     LIBCMTD:guard_support.obj
 0002:000002e8       __xc_a                     000000014003f2e8     LIBCMTD:initializers.obj
 0002:000002f8       __xc_z                     000000014003f2f8     LIBCMTD:initializers.obj
 0002:00000300       __xi_a                     000000014003f300     LIBCMTD:initializers.obj
 0002:00000318       __acrt_stdio_initializer   000000014003f318     libucrtd:stdio_initializer.obj
 0002:00000320       __acrt_multibyte_initializer 000000014003f320     libucrtd:multibyte_initializer.obj
 0002:00000328       __acrt_fmode_initializer   000000014003f328     libucrtd:fmode_initializer.obj
 0002:00000330       __acrt_tran_fma3_initializer 000000014003f330     libucrtd:fma3_initializer.obj
 0002:00000338       __xi_z                     000000014003f338     LIBCMTD:initializers.obj
 0002:00000340       __xp_a                     000000014003f340     LIBCMTD:initializers.obj
 0002:00000348       __acrt_locale_terminator   000000014003f348     libucrtd:locale_initializer.obj
 0002:00000350       __dcrt_console_output_terminator 000000014003f350     libucrtd:console_output_initializer.obj
 0002:00000358       __acrt_stdio_terminator    000000014003f358     libucrtd:stdio_initializer.obj
 0002:00000360       __xp_z                     000000014003f360     LIBCMTD:initializers.obj
 0002:00000368       __xt_a                     000000014003f368     LIBCMTD:initializers.obj
 0002:00000370       __xt_z                     000000014003f370     LIBCMTD:initializers.obj
 0002:000005f0       _pDestructExceptionObject  000000014003f5f0     libvcruntimed:ehhelpers.obj
 0002:00000600       ??_C@_0EN@KHDJKDCP@d?3?2a01?2_work?220?2s?2src?2vctools?2c@ 000000014003f600     libvcruntimed:per_thread_data.obj
 0002:00000d60       ??_C@_08EHJDFFNH@__based?$CI@ 000000014003fd60     libvcruntimed:undname.obj
 0002:00000d70       ??_C@_07KOLFKCDI@__cdecl@  000000014003fd70     libvcruntimed:undname.obj
 0002:00000d78       ??_C@_08GHMPAG@__pascal@   000000014003fd78     libvcruntimed:undname.obj
 0002:00000d88       ??_C@_09IFJBGAPI@__stdcall@ 000000014003fd88     libvcruntimed:undname.obj
 0002:00000d98       ??_C@_0L@NPHFGOKO@__thiscall@ 000000014003fd98     libvcruntimed:undname.obj
 0002:00000da8       ??_C@_0L@JMKHOMEK@__fastcall@ 000000014003fda8     libvcruntimed:undname.obj
 0002:00000db8       ??_C@_0N@BCKKPABJ@__vectorcall@ 000000014003fdb8     libvcruntimed:undname.obj
 0002:00000dc8       ??_C@_09HIJEGCPM@__clrcall@ 000000014003fdc8     libvcruntimed:undname.obj
 0002:00000dd4       ??_C@_06GHPCKEAG@__eabi@   000000014003fdd4     libvcruntimed:undname.obj
 0002:00000de0       ??_C@_09IOPIDJLG@__swift_1@ 000000014003fde0     libvcruntimed:undname.obj
 0002:00000df0       ??_C@_09KFNFGKHF@__swift_2@ 000000014003fdf0     libvcruntimed:undname.obj
 0002:00000e00       ??_C@_09LMMOFLDE@__swift_3@ 000000014003fe00     libvcruntimed:undname.obj
 0002:00000e10       ??_C@_07JOMMBBKO@__ptr64@  000000014003fe10     libvcruntimed:undname.obj
 0002:00000e18       ??_C@_0L@PILCLIHE@__restrict@ 000000014003fe18     libvcruntimed:undname.obj
 0002:00000e28       ??_C@_0M@GFIIJFMG@__unaligned@ 000000014003fe28     libvcruntimed:undname.obj
 0002:00000e38       ??_C@_09DHDLOLLB@restrict?$CI@ 000000014003fe38     libvcruntimed:undname.obj
 0002:00000e42       ??_C@_00CNPNBAHC@@         000000014003fe42     libvcruntimed:undname.obj
 0002:00000e44       ??_C@_04NIHEBCM@?5new@     000000014003fe44     libvcruntimed:undname.obj
 0002:00000e50       ??_C@_07FPCDHGMM@?5delete@ 000000014003fe50     libvcruntimed:undname.obj
 0002:00000e58       ??_C@_01NEMOKFLO@?$DN@     000000014003fe58     libvcruntimed:undname.obj
 0002:00000e5c       ??_C@_02GPIOPFAK@?$DO?$DO@ 000000014003fe5c     libvcruntimed:undname.obj
 0002:00000e60       ??_C@_02FODMEDOG@?$DM?$DM@ 000000014003fe60     libvcruntimed:undname.obj
 0002:00000e64       ??_C@_01DCLJPIOD@?$CB@     000000014003fe64     libvcruntimed:undname.obj
 0002:00000e68       ??_C@_02EGOFBIJA@?$DN?$DN@ 000000014003fe68     libvcruntimed:undname.obj
 0002:00000e6c       ??_C@_02FDNJECIE@?$CB?$DN@ 000000014003fe6c     libvcruntimed:undname.obj
 0002:00000e70       ??_C@_02GPECMEKF@?$FL?$FN@ 000000014003fe70     libvcruntimed:undname.obj
 0002:00000e78       ??_C@_08LHJFAFGD@operator@ 000000014003fe78     libvcruntimed:undname.obj
 0002:00000e84       ??_C@_02HBOOOICD@?9?$DO@   000000014003fe84     libvcruntimed:undname.obj
 0002:00000e88       ??_C@_01NBENCBCI@?$CK@     000000014003fe88     libvcruntimed:undname.obj
 0002:00000e8c       ??_C@_02ECNGHCIF@?$CL?$CL@ 000000014003fe8c     libvcruntimed:undname.obj
 0002:00000e90       ??_C@_02BAABKJLB@?9?9@     000000014003fe90     libvcruntimed:undname.obj
 0002:00000e94       ??_C@_01JOAMLHOP@?9@       000000014003fe94     libvcruntimed:undname.obj
 0002:00000e98       ??_C@_01MIFGBAGJ@?$CL@     000000014003fe98     libvcruntimed:undname.obj
 0002:00000e9c       ??_C@_01HNPIGOCE@?$CG@     000000014003fe9c     libvcruntimed:undname.obj
 0002:00000ea0       ??_C@_03MNHNFDLC@?9?$DO?$CK@ 000000014003fea0     libvcruntimed:undname.obj
 0002:00000ea4       ??_C@_01KMDKNFGN@?1@       000000014003fea4     libvcruntimed:undname.obj
 0002:00000ea8       ??_C@_01FGNFDNOH@?$CF@     000000014003fea8     libvcruntimed:undname.obj
 0002:00000eac       ??_C@_01MNNFJEPP@?$DM@     000000014003feac     libvcruntimed:undname.obj
 0002:00000eb0       ??_C@_02EHCHHCKH@?$DM?$DN@ 000000014003feb0     libvcruntimed:undname.obj
 0002:00000eb4       ??_C@_01PPODPGHN@?$DO@     000000014003feb4     libvcruntimed:undname.obj
 0002:00000eb8       ??_C@_02EEKDKGMJ@?$DO?$DN@ 000000014003feb8     libvcruntimed:undname.obj
 0002:00000ebc       ??_C@_01IHBHIGKO@?0@       000000014003febc     libvcruntimed:undname.obj
 0002:00000ec0       ??_C@_02HCKGKOFO@?$CI?$CJ@ 000000014003fec0     libvcruntimed:undname.obj
 0002:00000ec4       ??_C@_01PJKLJHI@?$HO@      000000014003fec4     libvcruntimed:undname.obj
 0002:00000ec8       ??_C@_01JKBOJNNK@?$FO@     000000014003fec8     libvcruntimed:undname.obj
 0002:00000ecc       ??_C@_01DNKMNLPK@?$HM@     000000014003fecc     libvcruntimed:undname.obj
 0002:00000ed0       ??_C@_02PPKAJPJL@?$CG?$CG@ 000000014003fed0     libvcruntimed:undname.obj
 0002:00000ed4       ??_C@_02NONPIBCD@?$HM?$HM@ 000000014003fed4     libvcruntimed:undname.obj
 0002:00000ed8       ??_C@_02FPIMKNGF@?$CK?$DN@ 000000014003fed8     libvcruntimed:undname.obj
 0002:00000edc       ??_C@_02FOEOMHFC@?$CL?$DN@ 000000014003fedc     libvcruntimed:undname.obj
 0002:00000ee0       ??_C@_02FKMDLLOA@?9?$DN@   000000014003fee0     libvcruntimed:undname.obj
 0002:00000ee4       ??_C@_02FJEHGPIO@?1?$DN@   000000014003fee4     libvcruntimed:undname.obj
 0002:00000ee8       ??_C@_02FENAOKFI@?$CF?$DN@ 000000014003fee8     libvcruntimed:undname.obj
 0002:00000eec       ??_C@_03IKFCCPFF@?$DO?$DO?$DN@ 000000014003feec     libvcruntimed:undname.obj
 0002:00000ef0       ??_C@_03CDNPDDLA@?$DM?$DM?$DN@ 000000014003fef0     libvcruntimed:undname.obj
 0002:00000ef4       ??_C@_02FGJGFEAB@?$CG?$DN@ 000000014003fef4     libvcruntimed:undname.obj
 0002:00000ef8       ??_C@_02DHLNPPGH@?$HM?$DN@ 000000014003fef8     libvcruntimed:undname.obj
 0002:00000efc       ??_C@_02MHEGNOJ@?$FO?$DN@  000000014003fefc     libvcruntimed:undname.obj
 0002:00000f00       ??_C@_09IFPLHPGF@?$GAvftable?8@ 000000014003ff00     libvcruntimed:undname.obj
 0002:00000f10       ??_C@_09BLBHBJP@?$GAvbtable?8@ 000000014003ff10     libvcruntimed:undname.obj
 0002:00000f20       ??_C@_07FEEIOKP@?$GAvcall?8@ 000000014003ff20     libvcruntimed:undname.obj
 0002:00000f28       ??_C@_08LLFFHHDJ@?$GAtypeof?8@ 000000014003ff28     libvcruntimed:undname.obj
 0002:00000f38       ??_C@_0BF@KDPPACIK@?$GAlocal?5static?5guard?8@ 000000014003ff38     libvcruntimed:undname.obj
 0002:00000f50       ??_C@_08OBABFOLI@?$GAstring?8@ 000000014003ff50     libvcruntimed:undname.obj
 0002:00000f60       ??_C@_0BD@JDLKDPAB@?$GAvbase?5destructor?8@ 000000014003ff60     libvcruntimed:undname.obj
 0002:00000f78       ??_C@_0BN@DEGPLNFK@?$GAvector?5deleting?5destructor?8@ 000000014003ff78     libvcruntimed:undname.obj
 0002:00000f98       ??_C@_0BO@OBMKPJIG@?$GAdefault?5constructor?5closure?8@ 000000014003ff98     libvcruntimed:undname.obj
 0002:00000fb8       ??_C@_0BN@IMDCHIKM@?$GAscalar?5deleting?5destructor?8@ 000000014003ffb8     libvcruntimed:undname.obj
 0002:00000fd8       ??_C@_0BO@PFGOCPJJ@?$GAvector?5constructor?5iterator?8@ 000000014003ffd8     libvcruntimed:undname.obj
 0002:00000ff8       ??_C@_0BN@LFPFMEDL@?$GAvector?5destructor?5iterator?8@ 000000014003fff8     libvcruntimed:undname.obj
 0002:00001018       ??_C@_0CE@IKBNEHA@?$GAvector?5vbase?5constructor?5itera@ 0000000140040018     libvcruntimed:undname.obj
 0002:00001040       ??_C@_0BL@NILFHHPC@?$GAvirtual?5displacement?5map?8@ 0000000140040040     libvcruntimed:undname.obj
 0002:00001060       ??_C@_0CB@JONCMFFK@?$GAeh?5vector?5constructor?5iterator@ 0000000140040060     libvcruntimed:undname.obj
 0002:00001088       ??_C@_0CA@GCEOPDGL@?$GAeh?5vector?5destructor?5iterator?8@ 0000000140040088     libvcruntimed:undname.obj
 0002:000010a8       ??_C@_0CH@OOJPLCPH@?$GAeh?5vector?5vbase?5constructor?5it@ 00000001400400a8     libvcruntimed:undname.obj
 0002:000010d0       ??_C@_0BL@LLKPOHJI@?$GAcopy?5constructor?5closure?8@ 00000001400400d0     libvcruntimed:undname.obj
 0002:000010f0       ??_C@_0BA@KBCDOMBN@?$GAudt?5returning?8@ 00000001400400f0     libvcruntimed:undname.obj
 0002:00001100       ??_C@_03KLGMFNMG@?$GAEH@   0000000140040100     libvcruntimed:undname.obj
 0002:00001104       ??_C@_05KHLCHHI@?$GARTTI@  0000000140040104     libvcruntimed:undname.obj
 0002:00001110       ??_C@_0BA@KKLDJDLB@?$GAlocal?5vftable?8@ 0000000140040110     libvcruntimed:undname.obj
 0002:00001120       ??_C@_0CE@IIHCMGGL@?$GAlocal?5vftable?5constructor?5clos@ 0000000140040120     libvcruntimed:undname.obj
 0002:00001144       ??_C@_06FHBGPFGH@?5new?$FL?$FN@ 0000000140040144     libvcruntimed:undname.obj
 0002:00001150       ??_C@_09LBNFPBCA@?5delete?$FL?$FN@ 0000000140040150     libvcruntimed:undname.obj
 0002:00001160       ??_C@_0P@HJKNJFNN@?$GAomni?5callsig?8@ 0000000140040160     libvcruntimed:undname.obj
 0002:00001170       ??_C@_0BL@CNOONJFP@?$GAplacement?5delete?5closure?8@ 0000000140040170     libvcruntimed:undname.obj
 0002:00001190       ??_C@_0BN@CKNJLHMB@?$GAplacement?5delete?$FL?$FN?5closure?8@ 0000000140040190     libvcruntimed:undname.obj
 0002:000011b0       ??_C@_0CG@CFDHKGGD@?$GAmanaged?5vector?5constructor?5ite@ 00000001400401b0     libvcruntimed:undname.obj
 0002:000011d8       ??_C@_0CF@IMGKMJNO@?$GAmanaged?5vector?5destructor?5iter@ 00000001400401d8     libvcruntimed:undname.obj
 0002:00001200       ??_C@_0CG@HLDDJMAG@?$GAeh?5vector?5copy?5constructor?5ite@ 0000000140040200     libvcruntimed:undname.obj
 0002:00001228       ??_C@_0CM@FCBBDIGB@?$GAeh?5vector?5vbase?5copy?5construct@ 0000000140040228     libvcruntimed:undname.obj
 0002:00001258       ??_C@_0BL@CLIPGLGB@?$GAdynamic?5initializer?5for?5?8@ 0000000140040258     libvcruntimed:undname.obj
 0002:00001278       ??_C@_0CB@PDBIFEP@?$GAdynamic?5atexit?5destructor?5for?5@ 0000000140040278     libvcruntimed:undname.obj
 0002:000012a0       ??_C@_0CD@CGAJBKEJ@?$GAvector?5copy?5constructor?5iterat@ 00000001400402a0     libvcruntimed:undname.obj
 0002:000012c8       ??_C@_0CJ@GJELGAMM@?$GAvector?5vbase?5copy?5constructor?5@ 00000001400402c8     libvcruntimed:undname.obj
 0002:000012f8       ??_C@_0CL@FGIJHLCE@?$GAmanaged?5vector?5copy?5constructo@ 00000001400402f8     libvcruntimed:undname.obj
 0002:00001328       ??_C@_0BM@PMGGMLDN@?$GAlocal?5static?5thread?5guard?8@ 0000000140040328     libvcruntimed:undname.obj
 0002:00001348       ??_C@_0N@BDNMDMOL@operator?5?$CC?$CC?5@ 0000000140040348     libvcruntimed:undname.obj
 0002:00001358       ??_C@_0BC@GGEBGALA@operator?5co_await@ 0000000140040358     libvcruntimed:undname.obj
 0002:00001370       ??_C@_0M@GAAIMMOH@operator?$DM?$DN?$DO@ 0000000140040370     libvcruntimed:undname.obj
 0002:00001380       ??_C@_0BC@DAFEJGAK@?5Type?5Descriptor?8@ 0000000140040380     libvcruntimed:undname.obj
 0002:00001398       ??_C@_0BM@LDKODKLH@?5Base?5Class?5Descriptor?5at?5?$CI@ 0000000140040398     libvcruntimed:undname.obj
 0002:000013b8       ??_C@_0BD@LGICGFMM@?5Base?5Class?5Array?8@ 00000001400403b8     libvcruntimed:undname.obj
 0002:000013d0       ??_C@_0BN@MECKDCOJ@?5Class?5Hierarchy?5Descriptor?8@ 00000001400403d0     libvcruntimed:undname.obj
 0002:000013f0       ??_C@_0BK@CFCOFLF@?5Complete?5Object?5Locator?8@ 00000001400403f0     libvcruntimed:undname.obj
 0002:00001410       ??_C@_0BG@JNJLAMPM@?$GAanonymous?5namespace?8@ 0000000140040410     libvcruntimed:undname.obj
 0002:00001428       ??_C@_02DKCKIIND@?$CFs@    0000000140040428     libvcruntimed:undname.obj
 0002:0000142c       ??_C@_11LOCGONAA@@         000000014004042c     libvcruntimed:undname.obj
 0002:00001448       ??_C@_1DM@KHCHBNEB@?$AAa?$AAp?$AAi?$AA?9?$AAm?$AAs?$AA?9?$AAw?$AAi?$AAn?$AA?9?$AAc?$AAo?$AAr?$AAe@ 0000000140040448     libvcruntimed:winapi_downlevel.obj
 0002:00001488       ??_C@_1DK@LPPGFMPP@?$AAa?$AAp?$AAi?$AA?9?$AAm?$AAs?$AA?9?$AAw?$AAi?$AAn?$AA?9?$AAc?$AAo?$AAr?$AAe@ 0000000140040488     libvcruntimed:winapi_downlevel.obj
 0002:000014c8       ??_C@_1BC@GDMECMAK@?$AAk?$AAe?$AAr?$AAn?$AAe?$AAl?$AA3?$AA2@ 00000001400404c8     libvcruntimed:winapi_downlevel.obj
 0002:000014e0       ??_C@_17CNPHIMPH@?$AA?$CF?$AAl?$AAs@ 00000001400404e0     libvcruntimed:winapi_downlevel.obj
 0002:000014e8       ??_C@_1BA@PFFKHIOG@?$AAa?$AAp?$AAi?$AA?9?$AAm?$AAs?$AA?9@ 00000001400404e8     libvcruntimed:winapi_downlevel.obj
 0002:00001500       ??_C@_1EM@LBIFGLGH@?$AAc?$AAa?$AAc?$AAh?$AAe?$AAd?$AA_?$AAh?$AAa?$AAn?$AAd?$AAl?$AAe?$AA?5?$AA?$DN@ 0000000140040500     libvcruntimed:winapi_downlevel.obj
 0002:00001550       ??_C@_1JM@DNDMFGLJ@?$AAd?$AA?3?$AA?2?$AAa?$AA0?$AA1?$AA?2?$AA_?$AAw?$AAo?$AAr?$AAk?$AA?2?$AA2?$AA0@ 0000000140040550     libvcruntimed:winapi_downlevel.obj
 0002:000015f0       ??_C@_1DI@MAHEDLDB@?$AAc?$AAa?$AAc?$AAh?$AAe?$AAd?$AA_?$AAh?$AAa?$AAn?$AAd?$AAl?$AAe?$AA?5?$AA?$DN@ 00000001400405f0     libvcruntimed:winapi_downlevel.obj
 0002:00001630       ??_C@_1FC@IBNCGNKL@?$AAc?$AAa?$AAc?$AAh?$AAe?$AAd?$AA_?$AAf?$AAp?$AA?5?$AA?$DN?$AA?$DN?$AA?5?$AAi?$AAn@ 0000000140040630     libvcruntimed:winapi_downlevel.obj
 0002:00001688       ??_C@_1CI@GDJBAGLP@?$AAc?$AAa?$AAc?$AAh?$AAe?$AAd?$AA_?$AAf?$AAp?$AA?5?$AA?$DN?$AA?$DN?$AA?5?$AAn?$AAe@ 0000000140040688     libvcruntimed:winapi_downlevel.obj
 0002:000016b8       ??_C@_08KNHFBNJ@FlsAlloc@  00000001400406b8     libvcruntimed:winapi_downlevel.obj
 0002:000016d0       ??_C@_07PEJMOBNF@FlsFree@  00000001400406d0     libvcruntimed:winapi_downlevel.obj
 0002:000016e0       ??_C@_0M@GDNOONDI@FlsGetValue@ 00000001400406e0     libvcruntimed:winapi_downlevel.obj
 0002:000016f8       ??_C@_0M@JCPCPOEF@FlsSetValue@ 00000001400406f8     libvcruntimed:winapi_downlevel.obj
 0002:00001710       ??_C@_0BM@HCFOFFN@InitializeCriticalSectionEx@ 0000000140040710     libvcruntimed:winapi_downlevel.obj
 0002:000017d0       ??_7exception@std@@6B@     00000001400407d0     libvcruntimed:frame.obj
 0002:000017e0       ??_C@_0BC@EOODALEL@Unknown?5exception@ 00000001400407e0     libvcruntimed:frame.obj
 0002:00001800       ??_7bad_exception@std@@6B@ 0000000140040800     libvcruntimed:frame.obj
 0002:00001810       ??_C@_0O@DPKOEFFH@bad?5exception@ 0000000140040810     libvcruntimed:frame.obj
 0002:00001820       ??_C@_1FK@OACNEHHA@?$AAt?$AAo?$AA?9?$AA?$DO?$AA_?$AAW?$AAh?$AAa?$AAt?$AA?5?$AA?$DN?$AA?$DN?$AA?5?$AAn?$AAu@ 0000000140040820     libvcruntimed:std_exception.obj
 0002:00001880       ??_C@_1IK@ODNPIGPI@?$AAd?$AA?3?$AA?2?$AAa?$AA0?$AA1?$AA?2?$AA_?$AAw?$AAo?$AAr?$AAk?$AA?2?$AA2?$AA0@ 0000000140040880     libvcruntimed:std_exception.obj
 0002:00001a78       ??_C@_1CE@JMFACANE@?$AAr?$AAe?$AAs?$AAu?$AAl?$AAt?$AA?5?$AA?$CB?$AA?$DN?$AA?5?$AAn?$AAu?$AAl?$AAl?$AAp@ 0000000140040a78     libucrtd:errno.obj
 0002:00001aa0       ??_C@_1BI@BGOHAHKC@?$AAm?$AAs?$AAc?$AAo?$AAr?$AAe?$AAe?$AA?4?$AAd?$AAl?$AAl@ 0000000140040aa0     libucrtd:exit.obj
 0002:00001ab8       ??_C@_0P@MIGLKIOC@CorExitProcess@ 0000000140040ab8     libucrtd:exit.obj
 0002:00001ad0       ??_C@_1GE@DPGDJKLM@?$AAm?$AAi?$AAn?$AAk?$AAe?$AAr?$AAn?$AAe?$AAl?$AA?2?$AAc?$AAr?$AAt?$AAs?$AA?2@ 0000000140040ad0     libucrtd:atox.obj
 0002:00001b40       ??_C@_1EO@MLJCKPIB@?$AAb?$AAa?$AAs?$AAe?$AA?5?$AA?$DN?$AA?$DN?$AA?5?$AA0?$AA?5?$AA?$HM?$AA?$HM?$AA?5?$AA?$CI?$AA2@ 0000000140040b40     libucrtd:atox.obj
 0002:00001b90       ??_C@_1DI@BANODKFL@?$AA_?$AA_?$AAc?$AAr?$AAt?$AA_?$AAs?$AAt?$AAr?$AAt?$AAo?$AAx?$AA?3?$AA?3?$AAp@ 0000000140040b90     libucrtd:atox.obj
 0002:00001bc8       ??_C@_1CM@GJENOOEJ@?$AAc?$AA?5?$AA?$DN?$AA?$DN?$AA?5?$AA?8?$AA?2?$AA0?$AA?8?$AA?5?$AA?$HM?$AA?$HM?$AA?5?$AA?$CK?$AA_@ 0000000140040bc8     libucrtd:atox.obj
 0002:00001c00       ??_C@_1HA@CONLANFI@?$AA_?$AA_?$AAc?$AAr?$AAt?$AA_?$AAs?$AAt?$AAr?$AAt?$AAo?$AAx?$AA?3?$AA?3?$AAc@ 0000000140040c00     libucrtd:atox.obj
 0002:00001c70       ??_C@_1BM@PNEBBBDO@?$AA_?$AAp?$AA?5?$AA?$CB?$AA?$DN?$AA?5?$AAn?$AAu?$AAl?$AAl?$AAp?$AAt?$AAr@ 0000000140040c70     libucrtd:atox.obj
 0002:00001c90       ??_C@_1HG@FCDBLOEG@?$AA_?$AA_?$AAc?$AAr?$AAt?$AA_?$AAs?$AAt?$AAr?$AAt?$AAo?$AAx?$AA?3?$AA?3?$AAc@ 0000000140040c90     libucrtd:atox.obj
 0002:00001d10       ??_C@_1GK@MNHIDABG@?$AA_?$AA_?$AAc?$AAr?$AAt?$AA_?$AAs?$AAt?$AAr?$AAt?$AAo?$AAx?$AA?3?$AA?3?$AAc@ 0000000140040d10     libucrtd:atox.obj
 0002:00001d80       ??_C@_1HA@MKKIHBHP@?$AA_?$AA_?$AAc?$AAr?$AAt?$AA_?$AAs?$AAt?$AAr?$AAt?$AAo?$AAx?$AA?3?$AA?3?$AAc@ 0000000140040d80     libucrtd:atox.obj
 0002:00001df0       ??_C@_0CP@GDJHIDC@minkernel?2crts?2ucrt?2src?2appcrt?2@ 0000000140040df0     libucrtd:_file.obj
 0002:00001e20       ??_C@_1DC@OGOLMDEL@?$AAp?$AAu?$AAb?$AAl?$AAi?$AAc?$AA_?$AAs?$AAt?$AAr?$AAe?$AAa?$AAm?$AA?5?$AA?$CB@ 0000000140040e20     libucrtd:_file.obj
 0002:00001e60       ?standard_lookup_table_spectre@__crt_stdio_output@@3V?$spectre_mitigated_lookup_table@Ustate_transition_pair@__crt_stdio_output@@$0IA@@1@B 0000000140040e60     libucrtd:output.obj
 0002:00002260       ?format_validation_lookup_table_spectre@__crt_stdio_output@@3V?$spectre_mitigated_lookup_table@Ustate_transition_pair@__crt_stdio_output@@$0IA@@1@B 0000000140041260     libucrtd:output.obj
 0002:00002660       ??_C@_1BDG@MKBKGHOH@?$AA?$CI?$AA?5?$AA?$CI?$AA_?$AAS?$AAt?$AAr?$AAe?$AAa?$AAm?$AA?4?$AAi?$AAs?$AA_?$AAs@ 0000000140041660     libucrtd:output.obj
 0002:000027a0       ??_C@_1GC@LCDLABEA@?$AAm?$AAi?$AAn?$AAk?$AAe?$AAr?$AAn?$AAe?$AAl?$AA?2?$AAc?$AAr?$AAt?$AAs?$AA?2@ 00000001400417a0     libucrtd:output.obj
 0002:00002810       ??_C@_1II@DIIMCJOK@?$AA_?$AA_?$AAa?$AAc?$AAr?$AAt?$AA_?$AAs?$AAt?$AAd?$AAi?$AAo?$AA_?$AAc?$AAh@ 0000000140041810     libucrtd:output.obj
 0002:00002898       ??_C@_1CE@JLIJLEKO@?$AAs?$AAt?$AAr?$AAe?$AAa?$AAm?$AA?5?$AA?$CB?$AA?$DN?$AA?5?$AAn?$AAu?$AAl?$AAl?$AAp@ 0000000140041898     libucrtd:output.obj
 0002:000028c0       ??_C@_1GA@MOBAPGIO@?$AAm?$AAi?$AAn?$AAk?$AAe?$AAr?$AAn?$AAe?$AAl?$AA?2?$AAc?$AAr?$AAt?$AAs?$AA?2@ 00000001400418c0     libucrtd:output.obj
 0002:00002920       ??_C@_1CA@GELIJBMC@?$AAc?$AAo?$AAm?$AAm?$AAo?$AAn?$AA_?$AAv?$AAf?$AAp?$AAr?$AAi?$AAn?$AAt?$AAf@ 0000000140041920     libucrtd:output.obj
 0002:00002940       ??_C@_1CE@EAKLPBKK@?$AAf?$AAo?$AAr?$AAm?$AAa?$AAt?$AA?5?$AA?$CB?$AA?$DN?$AA?5?$AAn?$AAu?$AAl?$AAl?$AAp@ 0000000140041940     libucrtd:output.obj
 0002:00002968       ??_C@_1CA@PIMGHCEK@?$AAc?$AAo?$AAm?$AAm?$AAo?$AAn?$AA_?$AAv?$AAs?$AAp?$AAr?$AAi?$AAn?$AAt?$AAf@ 0000000140041968     libucrtd:output.obj
 0002:00002990       ??_C@_1EO@EGEEFEFM@?$AAb?$AAu?$AAf?$AAf?$AAe?$AAr?$AA_?$AAc?$AAo?$AAu?$AAn?$AAt?$AA?5?$AA?$DN?$AA?$DN@ 0000000140041990     libucrtd:output.obj
 0002:000029e0       ??_C@_1CE@JEILLNB@?$AAc?$AAo?$AAm?$AAm?$AAo?$AAn?$AA_?$AAv?$AAs?$AAp?$AAr?$AAi?$AAn?$AAt?$AAf@ 00000001400419e0     libucrtd:output.obj
 0002:00002a10       ??_C@_1EM@OAFHAOLH@?$AAb?$AAu?$AAf?$AAf?$AAe?$AAr?$AA?5?$AA?$CB?$AA?$DN?$AA?5?$AAn?$AAu?$AAl?$AAl?$AAp@ 0000000140041a10     libucrtd:output.obj
 0002:00002a60       ??_C@_1DA@HPBFKMEB@?$AA?$CI?$AA?$CC?$AAB?$AAu?$AAf?$AAf?$AAe?$AAr?$AA?5?$AAt?$AAo?$AAo?$AA?5?$AAs?$AAm@ 0000000140041a60     libucrtd:output.obj
 0002:00002a90       ??_C@_1CG@LHFJHFBB@?$AAc?$AAo?$AAm?$AAm?$AAo?$AAn?$AA_?$AAv?$AAs?$AAn?$AAp?$AAr?$AAi?$AAn?$AAt@ 0000000140041a90     libucrtd:output.obj
 0002:00002ab8       ??_C@_1CM@JOIJBMEM@?$AA_?$AAf?$AAo?$AAr?$AAm?$AAa?$AAt?$AA_?$AAi?$AAt?$AA?5?$AA?$CB?$AA?$DN?$AA?5?$AAn@ 0000000140041ab8     libucrtd:output.obj
 0002:00002af0       ??_C@_1HA@DMAAKIJP@?$AAm?$AAi?$AAn?$AAk?$AAe?$AAr?$AAn?$AAe?$AAl?$AA?2?$AAc?$AAr?$AAt?$AAs?$AA?2@ 0000000140041af0     libucrtd:output.obj
 0002:00002b60       ??_C@_1EE@DMAIGNBG@?$AA?$CI?$AA?$CC?$AAI?$AAn?$AAc?$AAo?$AAr?$AAr?$AAe?$AAc?$AAt?$AA?5?$AAf?$AAo?$AAr@ 0000000140041b60     libucrtd:output.obj
 0002:00002bb0       ??_C@_1BKA@IIAAOGBO@?$AA_?$AA_?$AAc?$AAr?$AAt?$AA_?$AAs?$AAt?$AAd?$AAi?$AAo?$AA_?$AAo?$AAu?$AAt@ 0000000140041bb0     libucrtd:output.obj
 0002:00002d50       ??_C@_1FG@OBJBDPAC@?$AA?$CI?$AA?$CC?$AAN?$AA?5?$AAl?$AAe?$AAn?$AAg?$AAt?$AAh?$AA?5?$AAm?$AAo?$AAd?$AAi@ 0000000140041d50     libucrtd:output.obj
 0002:00002db0       ??_C@_1EC@GJPNJDCN@?$AA_?$AAl?$AAe?$AAn?$AAg?$AAt?$AAh?$AA?5?$AA?$DN?$AA?$DN?$AA?5?$AAl?$AAe?$AAn?$AAg@ 0000000140041db0     libucrtd:output.obj
 0002:00002df8       ??_C@_1DG@CEJKFDMO@?$AAs?$AAt?$AAa?$AAt?$AAe?$AA_?$AAc?$AAa?$AAs?$AAe?$AA_?$AAn?$AAo?$AAr?$AAm@ 0000000140041df8     libucrtd:output.obj
 0002:00002e30       ??_C@_1CI@DDKMNCPP@?$AA_?$AAc?$AAo?$AAn?$AAt?$AAe?$AAx?$AAt?$AA?5?$AA?$CB?$AA?$DN?$AA?5?$AAn?$AAu?$AAl@ 0000000140041e30     libucrtd:output.obj
 0002:00002e60       ??_C@_1HK@IIPGOADH@?$AA_?$AA_?$AAc?$AAr?$AAt?$AA_?$AAs?$AAt?$AAd?$AAi?$AAo?$AA_?$AAo?$AAu?$AAt@ 0000000140041e60     libucrtd:output.obj
 0002:00002ee0       ??_C@_1HE@IACOMEJF@?$AA_?$AA_?$AAc?$AAr?$AAt?$AA_?$AAs?$AAt?$AAd?$AAi?$AAo?$AA_?$AAo?$AAu?$AAt@ 0000000140041ee0     libucrtd:output.obj
 0002:00002f60       ??_C@_1GC@BNMHNGKM@?$AA_?$AAs?$AAt?$AAa?$AAt?$AAe?$AA?5?$AA?$DN?$AA?$DN?$AA?5?$AAs?$AAt?$AAa?$AAt?$AAe@ 0000000140041f60     libucrtd:output.obj
 0002:00002fc8       ??_C@_1CA@ONEGMNAN@?$AA_?$AAs?$AAt?$AAr?$AAe?$AAa?$AAm?$AA?4?$AAv?$AAa?$AAl?$AAi?$AAd?$AA?$CI?$AA?$CJ@ 0000000140041fc8     libucrtd:output.obj
 0002:00002ff0       ??_C@_1BLA@GJNGKGIK@?$AA_?$AA_?$AAc?$AAr?$AAt?$AA_?$AAs?$AAt?$AAd?$AAi?$AAo?$AA_?$AAo?$AAu?$AAt@ 0000000140041ff0     libucrtd:output.obj
 0002:000031a0       ??_C@_1BLE@PAACOKDK@?$AA_?$AA_?$AAc?$AAr?$AAt?$AA_?$AAs?$AAt?$AAd?$AAi?$AAo?$AA_?$AAo?$AAu?$AAt@ 00000001400421a0     libucrtd:output.obj
 0002:00003360       ??_C@_1HE@FGKHNBNL@?$AA_?$AA_?$AAc?$AAr?$AAt?$AA_?$AAs?$AAt?$AAd?$AAi?$AAo?$AA_?$AAo?$AAu?$AAt@ 0000000140042360     libucrtd:output.obj
 0002:000033e0       ??_C@_1BEC@NDOOKIMC@?$AA_?$AA_?$AAc?$AAr?$AAt?$AA_?$AAs?$AAt?$AAd?$AAi?$AAo?$AA_?$AAo?$AAu?$AAt@ 00000001400423e0     libucrtd:output.obj
 0002:00003530       ??_C@_1EK@PNGFDECN@?$AA?$CI?$AA?$CC?$AA?8?$AAn?$AA?8?$AA?5?$AAf?$AAo?$AAr?$AAm?$AAa?$AAt?$AA?5?$AAs?$AAp@ 0000000140042530     libucrtd:output.obj
 0002:00003580       ??_C@_1EO@GHKFGFKL@?$AA?$CI?$AA?$CC?$AAI?$AAn?$AAv?$AAa?$AAl?$AAi?$AAd?$AA?5?$AAi?$AAn?$AAt?$AAe?$AAg@ 0000000140042580     libucrtd:output.obj
 0002:000035d0       ??_C@_1BDG@KOLEFKPF@?$AA_?$AA_?$AAc?$AAr?$AAt?$AA_?$AAs?$AAt?$AAd?$AAi?$AAo?$AA_?$AAo?$AAu?$AAt@ 00000001400425d0     libucrtd:output.obj
 0002:00003710       ??_C@_1BKI@NDKBCDGP@?$AA_?$AA_?$AAc?$AAr?$AAt?$AA_?$AAs?$AAt?$AAd?$AAi?$AAo?$AA_?$AAo?$AAu?$AAt@ 0000000140042710     libucrtd:output.obj
 0002:000038b8       ??_C@_1O@CEDCILHN@?$AA?$CI?$AAn?$AAu?$AAl?$AAl?$AA?$CJ@ 00000001400428b8     libucrtd:output.obj
 0002:000038c8       ??_C@_06OJHGLDPL@?$CInull?$CJ@ 00000001400428c8     libucrtd:output.obj
 0002:000038d0       ??_C@_1CK@LGDCECDH@?$AA_?$AAf?$AAo?$AAr?$AAm?$AAa?$AAt?$AA_?$AAc?$AAh?$AAa?$AAr?$AA?5?$AA?$CB?$AA?$DN@ 00000001400428d0     libucrtd:output.obj
 0002:00003900       ??_C@_1BLE@MHLEAOID@?$AA_?$AA_?$AAc?$AAr?$AAt?$AA_?$AAs?$AAt?$AAd?$AAi?$AAo?$AA_?$AAo?$AAu?$AAt@ 0000000140042900     libucrtd:output.obj
 0002:00003ac0       ??_C@_1BMA@MEBEEDJE@?$AA_?$AA_?$AAc?$AAr?$AAt?$AA_?$AAs?$AAt?$AAd?$AAi?$AAo?$AA_?$AAo?$AAu?$AAt@ 0000000140042ac0     libucrtd:output.obj
 0002:00003c80       ??_C@_0DI@KIFBHMNO@minkernel?2crts?2ucrt?2inc?2corecrt@ 0000000140042c80     libucrtd:output.obj
 0002:00003cc0       ??_C@_1BMK@JGIBNIA@?$AA_?$AA_?$AAc?$AAr?$AAt?$AA_?$AAs?$AAt?$AAd?$AAi?$AAo?$AA_?$AAo?$AAu?$AAt@ 0000000140042cc0     libucrtd:output.obj
 0002:00003e90       ??_C@_1BLC@INKIGOCN@?$AA_?$AA_?$AAc?$AAr?$AAt?$AA_?$AAs?$AAt?$AAd?$AAi?$AAo?$AA_?$AAo?$AAu?$AAt@ 0000000140042e90     libucrtd:output.obj
 0002:00004050       ??_C@_1BNK@KHNJGCCP@?$AA_?$AA_?$AAc?$AAr?$AAt?$AA_?$AAs?$AAt?$AAd?$AAi?$AAo?$AA_?$AAo?$AAu?$AAt@ 0000000140043050     libucrtd:output.obj
 0002:00004230       ??_C@_1BNO@OHFFMOOJ@?$AA_?$AA_?$AAc?$AAr?$AAt?$AA_?$AAs?$AAt?$AAd?$AAi?$AAo?$AA_?$AAo?$AAu?$AAt@ 0000000140043230     libucrtd:output.obj
 0002:00004410       ??_C@_1BMC@FAGJFBLI@?$AA_?$AA_?$AAc?$AAr?$AAt?$AA_?$AAs?$AAt?$AAd?$AAi?$AAo?$AA_?$AAo?$AAu?$AAt@ 0000000140043410     libucrtd:output.obj
 0002:000045e0       ??_C@_1BMG@CGPDIFDK@?$AA_?$AA_?$AAc?$AAr?$AAt?$AA_?$AAs?$AAt?$AAd?$AAi?$AAo?$AA_?$AAo?$AAu?$AAt@ 00000001400435e0     libucrtd:output.obj
 0002:000047b0       ??_C@_1BNC@OHPDPPJK@?$AA_?$AA_?$AAc?$AAr?$AAt?$AA_?$AAs?$AAt?$AAd?$AAi?$AAo?$AA_?$AAo?$AAu?$AAt@ 00000001400437b0     libucrtd:output.obj
 0002:00004990       ??_C@_1BLK@FOLFMPJH@?$AA_?$AA_?$AAc?$AAr?$AAt?$AA_?$AAs?$AAt?$AAd?$AAi?$AAo?$AA_?$AAo?$AAu?$AAt@ 0000000140043990     libucrtd:output.obj
 0002:00004b50       ??_C@_1BNO@NAODCKFA@?$AA_?$AA_?$AAc?$AAr?$AAt?$AA_?$AAs?$AAt?$AAd?$AAi?$AAo?$AA_?$AAo?$AAu?$AAt@ 0000000140043b50     libucrtd:output.obj
 0002:00004d30       ??_C@_1BMG@BBEFGBID@?$AA_?$AA_?$AAc?$AAr?$AAt?$AA_?$AAs?$AAt?$AAd?$AAi?$AAo?$AA_?$AAo?$AAu?$AAt@ 0000000140043d30     libucrtd:output.obj
 0002:00004f00       ??_C@_1BNC@JPKLPOHO@?$AA_?$AA_?$AAc?$AAr?$AAt?$AA_?$AAs?$AAt?$AAd?$AAi?$AAo?$AA_?$AAo?$AAu?$AAt@ 0000000140043f00     libucrtd:output.obj
 0002:000050e0       __acrt_exception_action_table 00000001400440e0     libucrtd:exception_filter.obj
 0002:000051a0       __acrt_signal_action_table_count 00000001400441a0     libucrtd:exception_filter.obj
 0002:000051a8       __acrt_signal_action_first_fpe_index 00000001400441a8     libucrtd:exception_filter.obj
 0002:000051b0       __acrt_signal_action_fpe_count 00000001400441b0     libucrtd:exception_filter.obj
 0002:000051c0       ??_C@_1IC@DCNEKBE@?$AAm?$AAi?$AAn?$AAk?$AAe?$AAr?$AAn?$AAe?$AAl?$AA?2?$AAc?$AAr?$AAt?$AAs?$AA?2@ 00000001400441c0     libucrtd:report_runtime_error.obj
 0002:00005248       ??_C@_1DI@BLFJHKKP@?$AA_?$AA_?$AAa?$AAc?$AAr?$AAt?$AA_?$AAr?$AAe?$AAp?$AAo?$AAr?$AAt?$AA_?$AAr@ 0000000140044248     libucrtd:report_runtime_error.obj
 0002:00005280       ??_C@_1LE@MHPGJGKE@?$AAw?$AAc?$AAs?$AAc?$AAp?$AAy?$AA_?$AAs?$AA?$CI?$AAo?$AAu?$AAt?$AAm?$AAs?$AAg@ 0000000140044280     libucrtd:report_runtime_error.obj
 0002:00005338       ??_C@_1DE@JNGNBFGO@?$AAR?$AAu?$AAn?$AAt?$AAi?$AAm?$AAe?$AA?5?$AAE?$AAr?$AAr?$AAo?$AAr?$AA?$CB?$AA?6@ 0000000140044338     libucrtd:report_runtime_error.obj
 0002:00005370       ??_C@_1HK@FJJNAABO@?$AAw?$AAc?$AAs?$AAc?$AAp?$AAy?$AA_?$AAs?$AA?$CI?$AAp?$AAr?$AAo?$AAg?$AAn?$AAa@ 0000000140044370     libucrtd:report_runtime_error.obj
 0002:000053f0       ??_C@_1CO@EAEJAADC@?$AA?$DM?$AAp?$AAr?$AAo?$AAg?$AAr?$AAa?$AAm?$AA?5?$AAn?$AAa?$AAm?$AAe?$AA?5?$AAu@ 00000001400443f0     libucrtd:report_runtime_error.obj
 0002:00005420       ??_C@_1HI@FLHKGEBE@?$AAw?$AAc?$AAs?$AAn?$AAc?$AAp?$AAy?$AA_?$AAs?$AA?$CI?$AAp?$AAc?$AAh?$AA?0?$AA?5@ 0000000140044420     libucrtd:report_runtime_error.obj
 0002:00005498       ??_C@_17LGKOMLJ@?$AA?4?$AA?4?$AA?4@ 0000000140044498     libucrtd:report_runtime_error.obj
 0002:000054a0       ??_C@_1IG@MNNKBLBI@?$AAw?$AAc?$AAs?$AAc?$AAa?$AAt?$AA_?$AAs?$AA?$CI?$AAo?$AAu?$AAt?$AAm?$AAs?$AAg@ 00000001400444a0     libucrtd:report_runtime_error.obj
 0002:00005528       ??_C@_15IABLJNFO@?$AA?6?$AA?6@ 0000000140044528     libucrtd:report_runtime_error.obj
 0002:00005530       ??_C@_1IG@DFBBBDAN@?$AAw?$AAc?$AAs?$AAc?$AAa?$AAt?$AA_?$AAs?$AA?$CI?$AAo?$AAu?$AAt?$AAm?$AAs?$AAg@ 0000000140044530     libucrtd:report_runtime_error.obj
 0002:000055c0       ??_C@_1EK@MBDPDCGA@?$AAM?$AAi?$AAc?$AAr?$AAo?$AAs?$AAo?$AAf?$AAt?$AA?5?$AAV?$AAi?$AAs?$AAu?$AAa@ 00000001400445c0     libucrtd:report_runtime_error.obj
 0002:00005610       ??_C@_0DI@KNDIGDEP@minkernel?2crts?2ucrt?2src?2appcrt?2@ 0000000140044610     libucrtd:argv_parsing.obj
 0002:00005650       ??_C@_1JO@PGBIJBAM@?$AAm?$AAo?$AAd?$AAe?$AA?5?$AA?$DN?$AA?$DN?$AA?5?$AA_?$AAc?$AAr?$AAt?$AA_?$AAa?$AAr@ 0000000140044650     libucrtd:argv_parsing.obj
 0002:000056f0       ??_C@_1HA@JMLCANEE@?$AAm?$AAi?$AAn?$AAk?$AAe?$AAr?$AAn?$AAe?$AAl?$AA?2?$AAc?$AAr?$AAt?$AAs?$AA?2@ 00000001400446f0     libucrtd:argv_parsing.obj
 0002:00005760       ??_C@_1CM@LHOJELIC@?$AAc?$AAo?$AAm?$AAm?$AAo?$AAn?$AA_?$AAc?$AAo?$AAn?$AAf?$AAi?$AAg?$AAu?$AAr@ 0000000140044760     libucrtd:argv_parsing.obj
 0002:00005790       ??_C@_0EG@LEHKHOEH@minkernel?2crts?2ucrt?2src?2desktop@ 0000000140044790     libucrtd:environment_initialization.obj
 0002:000057e0       ??_C@_1IM@IMOFFPLG@?$AAm?$AAi?$AAn?$AAk?$AAe?$AAr?$AAn?$AAe?$AAl?$AA?2?$AAc?$AAr?$AAt?$AAs?$AA?2@ 00000001400447e0     libucrtd:environment_initialization.obj
 0002:00005870       ??_C@_1CG@MNNNBNAK@?$AAc?$AAr?$AAe?$AAa?$AAt?$AAe?$AA_?$AAe?$AAn?$AAv?$AAi?$AAr?$AAo?$AAn?$AAm@ 0000000140044870     libucrtd:environment_initialization.obj
 0002:000058a0       ??_C@_1HI@OOPIFFGA@?$AAt?$AAr?$AAa?$AAi?$AAt?$AAs?$AA?3?$AA?3?$AAt?$AAc?$AAs?$AAc?$AAp?$AAy?$AA_@ 00000001400448a0     libucrtd:environment_initialization.obj
 0002:00005920       ??_C@_1GC@CIJNGKLD@?$AAm?$AAi?$AAn?$AAk?$AAe?$AAr?$AAn?$AAe?$AAl?$AA?2?$AAc?$AAr?$AAt?$AAs?$AA?2@ 0000000140044920     libucrtd:setmode.obj
 0002:00005990       ??_C@_1FO@LPCLHKGE@?$AA?$CI?$AAf?$AAh?$AA?5?$AA?$DO?$AA?$DN?$AA?5?$AA0?$AA?5?$AA?$CG?$AA?$CG?$AA?5?$AA?$CI?$AAu?$AAn@ 0000000140044990     libucrtd:setmode.obj
 0002:000059f0       ??_C@_1CM@OKGMMMDH@?$AA?$CI?$AA_?$AAo?$AAs?$AAf?$AAi?$AAl?$AAe?$AA?$CI?$AAf?$AAh?$AA?$CJ?$AA?5?$AA?$CG?$AA?5@ 00000001400449f0     libucrtd:setmode.obj
 0002:00005a20       ??_C@_1JE@ECKHFIFP@?$AA?$CI?$AA?$CC?$AAI?$AAn?$AAv?$AAa?$AAl?$AAi?$AAd?$AA?5?$AAf?$AAi?$AAl?$AAe?$AA?5@ 0000000140044a20     libucrtd:setmode.obj
 0002:00005ac0       ??_C@_1HC@GNDCDMJL@?$AAm?$AAo?$AAd?$AAe?$AA?5?$AA?$DN?$AA?$DN?$AA?5?$AA_?$AAO?$AA_?$AAT?$AAE?$AAX?$AAT@ 0000000140044ac0     libucrtd:setmode.obj
 0002:00005b38       ??_C@_1BG@IEEHLOCL@?$AA_?$AAs?$AAe?$AAt?$AA_?$AAf?$AAm?$AAo?$AAd?$AAe@ 0000000140044b38     libucrtd:setmode.obj
 0002:00005b50       ??_C@_1GA@LDEGDKD@?$AA?$CI?$AA?$CC?$AAI?$AAn?$AAv?$AAa?$AAl?$AAi?$AAd?$AA?5?$AAp?$AAa?$AAr?$AAa?$AAm@ 0000000140044b50     libucrtd:wsetlocale.obj
 0002:00005bb0       ??_C@_1GK@DPKNLBIE@?$AAm?$AAi?$AAn?$AAk?$AAe?$AAr?$AAn?$AAe?$AAl?$AA?2?$AAc?$AAr?$AAt?$AAs?$AA?2@ 0000000140044bb0     libucrtd:wsetlocale.obj
 0002:00005c20       ??_C@_1CI@FGIONOJM@?$AA_?$AAc?$AAo?$AAn?$AAf?$AAi?$AAg?$AAt?$AAh?$AAr?$AAe?$AAa?$AAd?$AAl?$AAo@ 0000000140044c20     libucrtd:wsetlocale.obj
 0002:00005c48       ??_C@_1CO@JKFLNGDK@?$AAm?$AAo?$AAd?$AAe?$AA?5?$AA?$DN?$AA?$DN?$AA?5?$AA0?$AA?5?$AA?$HM?$AA?$HM?$AA?5?$AAm?$AAo@ 0000000140044c48     libucrtd:new_mode.obj
 0002:00005c80       ??_C@_1GC@PJMKBHEK@?$AAm?$AAi?$AAn?$AAk?$AAe?$AAr?$AAn?$AAe?$AAl?$AA?2?$AAc?$AAr?$AAt?$AAs?$AA?2@ 0000000140044c80     libucrtd:new_mode.obj
 0002:00005ce8       ??_C@_1BM@PDPAKJNF@?$AA_?$AAs?$AAe?$AAt?$AA_?$AAn?$AAe?$AAw?$AA_?$AAm?$AAo?$AAd?$AAe@ 0000000140044ce8     libucrtd:new_mode.obj
 0002:00005d30       ??_C@_0DC@NBHMIIKL@minkernel?2crts?2ucrt?2src?2appcrt?2@ 0000000140044d30     libucrtd:onexit.obj
 0002:00005e98       ??_C@_04HJMOFLDF@Free@     0000000140044e98     libucrtd:debug_heap.obj
 0002:00005ea0       ??_C@_06EFAGIKOH@Normal@   0000000140044ea0     libucrtd:debug_heap.obj
 0002:00005ea8       ??_C@_03OGPFLFLO@CRT@      0000000140044ea8     libucrtd:debug_heap.obj
 0002:00005eac       ??_C@_06KMEJCCGM@Ignore@   0000000140044eac     libucrtd:debug_heap.obj
 0002:00005eb4       ??_C@_06PJIGMIJB@Client@   0000000140044eb4     libucrtd:debug_heap.obj
 0002:00005ec0       ??_C@_1CE@LJFEPPMP@?$AA_?$AAC?$AAr?$AAt?$AAC?$AAh?$AAe?$AAc?$AAk?$AAM?$AAe?$AAm?$AAo?$AAr?$AAy@ 0000000140044ec0     libucrtd:debug_heap.obj
 0002:00005ef0       ??_C@_1GG@OCLHPJPK@?$AAm?$AAi?$AAn?$AAk?$AAe?$AAr?$AAn?$AAe?$AAl?$AA?2?$AAc?$AAr?$AAt?$AAs?$AA?2@ 0000000140044ef0     libucrtd:debug_heap.obj
 0002:00005f58       ??_C@_0DF@BBEGIFEK@Client?5hook?5allocation?5failure?5@ 0000000140044f58     libucrtd:debug_heap.obj
 0002:00005f90       ??_C@_0CB@CCLOLAHO@Client?5hook?5allocation?5failure?4@ 0000000140044f90     libucrtd:debug_heap.obj
 0002:00005fb8       ??_C@_0DC@JEMAGEKG@Error?3?5memory?5allocation?3?5bad?5m@ 0000000140044fb8     libucrtd:debug_heap.obj
 0002:00005ff0       ??_C@_0DI@KKJPDPGM@Client?5hook?5re?9allocation?5failu@ 0000000140044ff0     libucrtd:debug_heap.obj
 0002:00006028       ??_C@_0CE@DOFMDOL@Client?5hook?5re?9allocation?5failu@ 0000000140045028     libucrtd:debug_heap.obj
 0002:00006050       ??_C@_0FA@EFEIGJKG@Error?3?5memory?5allocation?3?5bad?5m@ 0000000140045050     libucrtd:debug_heap.obj
 0002:000060a0       ??_C@_0EM@LGFLMAGJ@The?5Block?5at?50x?$CFp?5was?5allocated@ 00000001400450a0     libucrtd:debug_heap.obj
 0002:000060f0       ??_C@_1DM@DEDLGNML@?$AA_?$AAC?$AAr?$AAt?$AAI?$AAs?$AAV?$AAa?$AAl?$AAi?$AAd?$AAH?$AAe?$AAa?$AAp@ 00000001400450f0     libucrtd:debug_heap.obj
 0002:00006130       ??_C@_1PC@MCGKJLN@?$AAo?$AAl?$AAd?$AA_?$AAh?$AAe?$AAa?$AAd?$AA?9?$AA?$DO?$AA_?$AAl?$AAi?$AAn?$AAe@ 0000000140045130     libucrtd:debug_heap.obj
 0002:00006228       ??_C@_0DA@HFBKENN@Error?3?5possible?5heap?5corruption@ 0000000140045228     libucrtd:debug_heap.obj
 0002:00006260       ??_C@_1JM@MCMEPJEP@?$AAr?$AAe?$AAa?$AAl?$AAl?$AAo?$AAc?$AAa?$AAt?$AAi?$AAo?$AAn?$AA_?$AAi?$AAs@ 0000000140045260     libucrtd:debug_heap.obj
 0002:00006300       ??_C@_1DM@LNOPKAIJ@?$AA_?$AA_?$AAa?$AAc?$AAr?$AAt?$AA_?$AAl?$AAa?$AAs?$AAt?$AA_?$AAb?$AAl?$AAo@ 0000000140045300     libucrtd:debug_heap.obj
 0002:00006340       ??_C@_1DO@HABCJBHO@?$AA_?$AA_?$AAa?$AAc?$AAr?$AAt?$AA_?$AAf?$AAi?$AAr?$AAs?$AAt?$AA_?$AAb?$AAl@ 0000000140045340     libucrtd:debug_heap.obj
 0002:00006380       ??_C@_1CC@CKEAHJPH@?$AAb?$AAl?$AAo?$AAc?$AAk?$AA?5?$AA?$CB?$AA?$DN?$AA?5?$AAn?$AAu?$AAl?$AAl?$AAp?$AAt@ 0000000140045380     libucrtd:debug_heap.obj
 0002:000063b0       ??_C@_0EJ@HEIBCIMJ@The?5Block?5at?50x?$CFp?5was?5allocated@ 00000001400453b0     libucrtd:debug_heap.obj
 0002:00006400       ??_C@_0BL@KEIPLFAC@Client?5hook?5free?5failure?4?6@ 0000000140045400     libucrtd:debug_heap.obj
 0002:00006420       ??_C@_1FA@KDNEBILF@?$AAi?$AAs?$AA_?$AAb?$AAl?$AAo?$AAc?$AAk?$AA_?$AAt?$AAy?$AAp?$AAe?$AA_?$AAv@ 0000000140045420     libucrtd:debug_heap.obj
 0002:00006470       ??_C@_0KI@JGFOHMEB@HEAP?5CORRUPTION?5DETECTED?3?5befor@ 0000000140045470     libucrtd:debug_heap.obj
 0002:00006520       ??_C@_0IK@PJCGLBOB@HEAP?5CORRUPTION?5DETECTED?3?5befor@ 0000000140045520     libucrtd:debug_heap.obj
 0002:000065b0       ??_C@_0KE@MBMNHHHN@HEAP?5CORRUPTION?5DETECTED?3?5after@ 00000001400455b0     libucrtd:debug_heap.obj
 0002:00006660       ??_C@_0IG@LEMBDCJK@HEAP?5CORRUPTION?5DETECTED?3?5after@ 0000000140045660     libucrtd:debug_heap.obj
 0002:000066f0       ??_C@_1OK@GFEOEJAF@?$AAh?$AAe?$AAa?$AAd?$AAe?$AAr?$AA?9?$AA?$DO?$AA_?$AAl?$AAi?$AAn?$AAe?$AA_?$AAn@ 00000001400456f0     libucrtd:debug_heap.obj
 0002:000067e0       ??_C@_1ME@GFALMLNA@?$AAh?$AAe?$AAa?$AAd?$AAe?$AAr?$AA?9?$AA?$DO?$AA_?$AAb?$AAl?$AAo?$AAc?$AAk?$AA_@ 00000001400457e0     libucrtd:debug_heap.obj
 0002:000068a8       ??_C@_1DI@ILNOPEPI@?$AA_?$AA_?$AAa?$AAc?$AAr?$AAt?$AA_?$AAl?$AAa?$AAs?$AAt?$AA_?$AAb?$AAl?$AAo@ 00000001400458a8     libucrtd:debug_heap.obj
 0002:000068e0       ??_C@_1DK@KEHFGDIJ@?$AA_?$AA_?$AAa?$AAc?$AAr?$AAt?$AA_?$AAf?$AAi?$AAr?$AAs?$AAt?$AA_?$AAb?$AAl@ 00000001400458e0     libucrtd:debug_heap.obj
 0002:00006920       ??_C@_1BG@MBKOGDLD@?$AA_?$AAm?$AAs?$AAi?$AAz?$AAe?$AA_?$AAd?$AAb?$AAg@ 0000000140045920     libucrtd:debug_heap.obj
 0002:00006938       ??_C@_07OHKEFPKJ@DAMAGED@  0000000140045938     libucrtd:debug_heap.obj
 0002:00006940       ??_C@_0KA@IHNJJKPL@HEAP?5CORRUPTION?5DETECTED?3?5on?5to@ 0000000140045940     libucrtd:debug_heap.obj
 0002:000069e0       ??_C@_0IC@BBJIOOJH@HEAP?5CORRUPTION?5DETECTED?3?5on?5to@ 00000001400459e0     libucrtd:debug_heap.obj
 0002:00006a70       ??_C@_0EG@DGJMPDBH@?$CFhs?5located?5at?50x?$CFp?5is?5?$CFIu?5byte@ 0000000140045a70     libucrtd:debug_heap.obj
 0002:00006ab8       ??_C@_0CI@JMLBEDHJ@?$CFhs?5located?5at?50x?$CFp?5is?5?$CFIu?5byte@ 0000000140045ab8     libucrtd:debug_heap.obj
 0002:00006ae0       ??_C@_0EG@GPFHANHO@Cycle?5in?5block?5list?5detected?5wh@ 0000000140045ae0     libucrtd:debug_heap.obj
 0002:00006b28       ??_C@_0BJ@ELMAOCAJ@Heap?5validation?5failed?4?6@ 0000000140045b28     libucrtd:debug_heap.obj
 0002:00006b50       ??_C@_1IE@BBIFDGEB@?$AAn?$AAe?$AAw?$AA_?$AAb?$AAi?$AAt?$AAs?$AA?5?$AA?$DN?$AA?$DN?$AA?5?$AA_?$AAC?$AAR@ 0000000140045b50     libucrtd:debug_heap.obj
 0002:00006bd8       ??_C@_1BO@GJFDNMNF@?$AA_?$AAC?$AAr?$AAt?$AAS?$AAe?$AAt?$AAD?$AAb?$AAg?$AAF?$AAl?$AAa?$AAg@ 0000000140045bd8     libucrtd:debug_heap.obj
 0002:00006bf8       ??_C@_1CC@BBKMONGA@?$AAs?$AAt?$AAa?$AAt?$AAe?$AA?5?$AA?$CB?$AA?$DN?$AA?5?$AAn?$AAu?$AAl?$AAl?$AAp?$AAt@ 0000000140045bf8     libucrtd:debug_heap.obj
 0002:00006c20       ??_C@_1CE@NJJKELF@?$AA_?$AAC?$AAr?$AAt?$AAM?$AAe?$AAm?$AAC?$AAh?$AAe?$AAc?$AAk?$AAp?$AAo?$AAi@ 0000000140045c20     libucrtd:debug_heap.obj
 0002:00006c48       ??_C@_0DP@LEFMFBOD@Bad?5memory?5block?5found?5at?50x?$CFp?4@ 0000000140045c48     libucrtd:debug_heap.obj
 0002:00006c88       ??_C@_0CB@EAAIGELO@Bad?5memory?5block?5found?5at?50x?$CFp?4@ 0000000140045c88     libucrtd:debug_heap.obj
 0002:00006cac       ??_C@_05MKKEDADM@?$CF?42X?5@ 0000000140045cac     libucrtd:debug_heap.obj
 0002:00006cb8       ??_C@_1CC@DIJAHFFJ@?$AAp?$AAr?$AAi?$AAn?$AAt?$AA_?$AAb?$AAl?$AAo?$AAc?$AAk?$AA_?$AAd?$AAa?$AAt@ 0000000140045cb8     libucrtd:debug_heap.obj
 0002:00006ce0       ??_C@_1BI@KALLJECN@?$AA?$CI?$AA?$CK?$AA_?$AAe?$AAr?$AAr?$AAn?$AAo?$AA?$CI?$AA?$CJ?$AA?$CJ@ 0000000140045ce0     libucrtd:debug_heap.obj
 0002:00006cf8       ??_C@_0BA@HJBKCELP@?5Data?3?5?$DM?$CFs?$DO?5?$CFs?6@ 0000000140045cf8     libucrtd:debug_heap.obj
 0002:00006d08       ??_C@_0BE@KCIPKCIA@Dumping?5objects?5?9?$DO?6@ 0000000140045d08     libucrtd:debug_heap.obj
 0002:00006d20       ??_C@_0BE@OIEFNFL@?$CDFile?5Error?$CD?$CI?$CFd?$CJ?5?3?5@ 0000000140045d20     libucrtd:debug_heap.obj
 0002:00006d38       ??_C@_0L@JMEFFCCJ@?$CFhs?$CI?$CFd?$CJ?5?3?5@ 0000000140045d38     libucrtd:debug_heap.obj
 0002:00006d44       ??_C@_06PKLGBFGM@?$HL?$CFld?$HN?5@ 0000000140045d44     libucrtd:debug_heap.obj
 0002:00006d50       ??_C@_0DD@GHNAAKBB@client?5block?5at?50x?$CFp?0?5subtype?5?$CF@ 0000000140045d50     libucrtd:debug_heap.obj
 0002:00006d88       ??_C@_0CH@FAGDDGPN@normal?5block?5at?50x?$CFp?0?5?$CFIu?5bytes@ 0000000140045d88     libucrtd:debug_heap.obj
 0002:00006db0       ??_C@_0DA@MDLBNIBM@crt?5block?5at?50x?$CFp?0?5subtype?5?$CFx?0?5@ 0000000140045db0     libucrtd:debug_heap.obj
 0002:00006de0       ??_C@_0BH@GFGKJDCO@Object?5dump?5complete?4?6@ 0000000140045de0     libucrtd:debug_heap.obj
 0002:00006df8       ??_C@_0BI@JBFPOEJA@Detected?5memory?5leaks?$CB?6@ 0000000140045df8     libucrtd:debug_heap.obj
 0002:00006e10       ??_C@_1GI@BBAEIKL@?$AA?$CI?$AA?$CI?$AAd?$AAe?$AAs?$AAt?$AAi?$AAn?$AAa?$AAt?$AAi?$AAo?$AAn?$AA?$CJ?$AA?$CJ@ 0000000140045e10     libucrtd:strcpy_s.obj
 0002:00006e80       ??_C@_1HI@PBJPCEBC@?$AAm?$AAi?$AAn?$AAk?$AAe?$AAr?$AAn?$AAe?$AAl?$AA?2?$AAc?$AAr?$AAt?$AAs?$AA?2@ 0000000140045e80     libucrtd:strcpy_s.obj
 0002:00006ef8       ??_C@_1CA@FHIAGDFH@?$AAc?$AAo?$AAm?$AAm?$AAo?$AAn?$AA_?$AAt?$AAc?$AAs?$AAc?$AAp?$AAy?$AA_?$AAs@ 0000000140045ef8     libucrtd:strcpy_s.obj
 0002:00006f18       ??_C@_1CK@EIOKGPJL@?$AA?$CI?$AA?$CI?$AA?$CI?$AAs?$AAo?$AAu?$AAr?$AAc?$AAe?$AA?$CJ?$AA?$CJ?$AA?$CJ?$AA?5?$AA?$CB?$AA?$DN@ 0000000140045f18     libucrtd:strcpy_s.obj
 0002:00006f48       ??_C@_1CI@HCPHDDLE@?$AAB?$AAu?$AAf?$AAf?$AAe?$AAr?$AA?5?$AAi?$AAs?$AA?5?$AAt?$AAo?$AAo?$AA?5?$AAs@ 0000000140045f48     libucrtd:strcpy_s.obj
 0002:00006f70       ??_C@_1DM@MADKGDLO@?$AA?$CI?$AAL?$AA?$CC?$AAB?$AAu?$AAf?$AAf?$AAe?$AAr?$AA?5?$AAi?$AAs?$AA?5?$AAt?$AAo@ 0000000140045f70     libucrtd:strcpy_s.obj
 0002:00006fb0       ??_C@_1DA@LLLMNMKI@?$AAa?$AAb?$AAo?$AAr?$AAt?$AA?$CI?$AA?$CJ?$AA?5?$AAh?$AAa?$AAs?$AA?5?$AAb?$AAe?$AAe@ 0000000140045fb0     libucrtd:abort.obj
 0002:00006ff8       ??_C@_1BA@GLMCNLEM@?$AAW?$AAa?$AAr?$AAn?$AAi?$AAn?$AAg@ 0000000140045ff8     libucrtd:dbgrpt.obj
 0002:00007008       ??_C@_1M@ILHOPKA@?$AAE?$AAr?$AAr?$AAo?$AAr@ 0000000140046008     libucrtd:dbgrpt.obj
 0002:00007018       ??_C@_1CC@CGHMNGDG@?$AAA?$AAs?$AAs?$AAe?$AAr?$AAt?$AAi?$AAo?$AAn?$AA?5?$AAF?$AAa?$AAi?$AAl?$AAe@ 0000000140046018     libucrtd:dbgrpt.obj
 0002:00007050       ??_C@_1OG@PMPPFHAF@?$AA?6?$AA?6?$AAF?$AAo?$AAr?$AA?5?$AAi?$AAn?$AAf?$AAo?$AAr?$AAm?$AAa?$AAt?$AAi@ 0000000140046050     libucrtd:dbgrpt.obj
 0002:00007140       ??_C@_1MG@LJLILFFD@?$AAD?$AAe?$AAb?$AAu?$AAg?$AA?5?$AA?$CF?$AAl?$AAs?$AA?$CB?$AA?6?$AA?6?$AAP?$AAr?$AAo@ 0000000140046140     libucrtd:dbgrpt.obj
 0002:00007210       ??_C@_1MG@OODCADGL@?$AAD?$AAe?$AAb?$AAu?$AAg?$AA?5?$AA?$CF?$AAl?$AAs?$AA?$CB?$AA?6?$AA?6?$AAP?$AAr?$AAo@ 0000000140046210     libucrtd:dbgrpt.obj
 0002:000072d8       ??_C@_0BH@DNAGHKFM@?$DMprogram?5name?5unknown?$DO@ 00000001400462d8     libucrtd:dbgrpt.obj
 0002:000072f0       ??_C@_1FO@GMJDLAJD@?$AAm?$AAi?$AAn?$AAk?$AAe?$AAr?$AAn?$AAe?$AAl?$AA?2?$AAc?$AAr?$AAt?$AAs?$AA?2@ 00000001400462f0     libucrtd:dbgrpt.obj
 0002:00007350       ??_C@_1CM@EHMOGBJJ@?$AAc?$AAo?$AAm?$AAm?$AAo?$AAn?$AA_?$AAm?$AAe?$AAs?$AAs?$AAa?$AAg?$AAe?$AA_@ 0000000140046350     libucrtd:dbgrpt.obj
 0002:00007380       ??_C@_1PE@ECNALGCA@?$AAt?$AAr?$AAa?$AAi?$AAt?$AAs?$AA?3?$AA?3?$AAt?$AAc?$AAs?$AAc?$AAp?$AAy?$AA_@ 0000000140046380     libucrtd:dbgrpt.obj
 0002:00007478       ??_C@_1BK@PEDCIPMA@?$AAE?$AAx?$AAp?$AAr?$AAe?$AAs?$AAs?$AAi?$AAo?$AAn?$AA?3?$AA?5@ 0000000140046478     libucrtd:dbgrpt.obj
 0002:00007498       ??_C@_1BA@GLLGCPCK@?$AA?6?$AAL?$AAi?$AAn?$AAe?$AA?3?$AA?5@ 0000000140046498     libucrtd:dbgrpt.obj
 0002:000074a8       ??_C@_1BA@LNHECFIM@?$AA?6?$AAF?$AAi?$AAl?$AAe?$AA?3?$AA?5@ 00000001400464a8     libucrtd:dbgrpt.obj
 0002:000074b8       ??_C@_1BE@CGCJKGHI@?$AA?6?$AAM?$AAo?$AAd?$AAu?$AAl?$AAe?$AA?3?$AA?5@ 00000001400464b8     libucrtd:dbgrpt.obj
 0002:000074d0       ??_C@_1JM@IBOIJEOO@?$AAw?$AAc?$AAs?$AAc?$AAp?$AAy?$AA_?$AAs?$AA?$CI?$AAm?$AAe?$AAs?$AAs?$AAa?$AAg@ 00000001400464d0     libucrtd:dbgrpt.obj
 0002:00007570       ??_C@_1FG@BBOLDHGF@?$AA_?$AAC?$AAr?$AAt?$AAD?$AAb?$AAg?$AAR?$AAe?$AAp?$AAo?$AAr?$AAt?$AA?3?$AA?5@ 0000000140046570     libucrtd:dbgrpt.obj
 0002:000075d0       ??_C@_0DM@DKIFNNOL@minkernel?2crts?2ucrt?2src?2appcrt?2@ 00000001400465d0     libucrtd:per_thread_data.obj
 0002:00007610       ??_C@_1FO@NMANMHOD@?$AAc?$AAa?$AAc?$AAh?$AAe?$AAd?$AA_?$AAs?$AAt?$AAa?$AAt?$AAe?$AA?5?$AA?$DN?$AA?$DN@ 0000000140046610     libucrtd:win_policies.obj
 0002:00007670       ??_C@_1HC@GHLNKBJK@?$AAm?$AAi?$AAn?$AAk?$AAe?$AAr?$AAn?$AAe?$AAl?$AA?2?$AAc?$AAr?$AAt?$AAs?$AA?2@ 0000000140046670     libucrtd:win_policies.obj
 0002:000076e8       ??_C@_1CI@JELMFMDH@?$AAc?$AA?5?$AA?$DO?$AA?$DN?$AA?5?$AA?9?$AA1?$AA?5?$AA?$CG?$AA?$CG?$AA?5?$AAc?$AA?5?$AA?$DM?$AA?$DN@ 00000001400466e8     libucrtd:isctype.obj
 0002:00007710       ??_C@_1GG@KPBGDFHJ@?$AAm?$AAi?$AAn?$AAk?$AAe?$AAr?$AAn?$AAe?$AAl?$AA?2?$AAc?$AAr?$AAt?$AAs?$AA?2@ 0000000140046710     libucrtd:isctype.obj
 0002:00007780       __lc_time_c                0000000140046780     libucrtd:nlsdata.obj
 0002:00007a40       ??_C@_03KOEHGMDN@Sun@      0000000140046a40     libucrtd:nlsdata.obj
 0002:00007a44       ??_C@_03PDAGKDH@Mon@       0000000140046a44     libucrtd:nlsdata.obj
 0002:00007a48       ??_C@_03NAGEINEP@Tue@      0000000140046a48     libucrtd:nlsdata.obj
 0002:00007a4c       ??_C@_03MHOMLAJA@Wed@      0000000140046a4c     libucrtd:nlsdata.obj
 0002:00007a50       ??_C@_03IOFIKPDN@Thu@      0000000140046a50     libucrtd:nlsdata.obj
 0002:00007a54       ??_C@_03IDIOELNC@Fri@      0000000140046a54     libucrtd:nlsdata.obj
 0002:00007a58       ??_C@_03FEFJNEK@Sat@       0000000140046a58     libucrtd:nlsdata.obj
 0002:00007a5c       ??_C@_06OOPIFAJ@Sunday@    0000000140046a5c     libucrtd:nlsdata.obj
 0002:00007a64       ??_C@_06JLEDEDGH@Monday@   0000000140046a64     libucrtd:nlsdata.obj
 0002:00007a70       ??_C@_07BAAGCFCM@Tuesday@  0000000140046a70     libucrtd:nlsdata.obj
 0002:00007a78       ??_C@_09DLIGFAKA@Wednesday@ 0000000140046a78     libucrtd:nlsdata.obj
 0002:00007a88       ??_C@_08HACCIKIA@Thursday@ 0000000140046a88     libucrtd:nlsdata.obj
 0002:00007a94       ??_C@_06JECMNKMI@Friday@   0000000140046a94     libucrtd:nlsdata.obj
 0002:00007aa0       ??_C@_08INBOOONO@Saturday@ 0000000140046aa0     libucrtd:nlsdata.obj
 0002:00007aac       ??_C@_03JIHJHPIE@Jan@      0000000140046aac     libucrtd:nlsdata.obj
 0002:00007ab0       ??_C@_03HJBDCHOM@Feb@      0000000140046ab0     libucrtd:nlsdata.obj
 0002:00007ab4       ??_C@_03ODNJBKGA@Mar@      0000000140046ab4     libucrtd:nlsdata.obj
 0002:00007ab8       ??_C@_03LEOLGMJP@Apr@      0000000140046ab8     libucrtd:nlsdata.obj
 0002:00007abc       ??_C@_03CNMDKL@May@        0000000140046abc     libucrtd:nlsdata.obj
 0002:00007ac0       ??_C@_03IDFGHECI@Jun@      0000000140046ac0     libucrtd:nlsdata.obj
 0002:00007ac4       ??_C@_03LBGABGKK@Jul@      0000000140046ac4     libucrtd:nlsdata.obj
 0002:00007ac8       ??_C@_03IFJFEIGA@Aug@      0000000140046ac8     libucrtd:nlsdata.obj
 0002:00007acc       ??_C@_03GGCAPAJC@Sep@      0000000140046acc     libucrtd:nlsdata.obj
 0002:00007ad0       ??_C@_03BMAOKBAD@Oct@      0000000140046ad0     libucrtd:nlsdata.obj
 0002:00007ad4       ??_C@_03JPJOFNIA@Nov@      0000000140046ad4     libucrtd:nlsdata.obj
 0002:00007ad8       ??_C@_03MKABNOCG@Dec@      0000000140046ad8     libucrtd:nlsdata.obj
 0002:00007ae0       ??_C@_07CGJPFGJA@January@  0000000140046ae0     libucrtd:nlsdata.obj
 0002:00007ae8       ??_C@_08GNJGEPFN@February@ 0000000140046ae8     libucrtd:nlsdata.obj
 0002:00007af4       ??_C@_05HPCKOFNC@March@    0000000140046af4     libucrtd:nlsdata.obj
 0002:00007afc       ??_C@_05DMJDNLEJ@April@    0000000140046afc     libucrtd:nlsdata.obj
 0002:00007b04       ??_C@_04CNLMGBGM@June@     0000000140046b04     libucrtd:nlsdata.obj
 0002:00007b0c       ??_C@_04MIEPOIFP@July@     0000000140046b0c     libucrtd:nlsdata.obj
 0002:00007b14       ??_C@_06LBBHFDDG@August@   0000000140046b14     libucrtd:nlsdata.obj
 0002:00007b20       ??_C@_09BHHEALKD@September@ 0000000140046b20     libucrtd:nlsdata.obj
 0002:00007b30       ??_C@_07JJNFCEND@October@  0000000140046b30     libucrtd:nlsdata.obj
 0002:00007b38       ??_C@_08HCHEGEOA@November@ 0000000140046b38     libucrtd:nlsdata.obj
 0002:00007b48       ??_C@_08EDHMEBNP@December@ 0000000140046b48     libucrtd:nlsdata.obj
 0002:00007b54       ??_C@_02DEDBPAFC@AM@       0000000140046b54     libucrtd:nlsdata.obj
 0002:00007b58       ??_C@_02CJNFDJBF@PM@       0000000140046b58     libucrtd:nlsdata.obj
 0002:00007b60       ??_C@_08BPBNCDIB@MM?1dd?1yy@ 0000000140046b60     libucrtd:nlsdata.obj
 0002:00007b70       ??_C@_0BE@CKGJFCPC@dddd?0?5MMMM?5dd?0?5yyyy@ 0000000140046b70     libucrtd:nlsdata.obj
 0002:00007b88       ??_C@_08JCCMCCIL@HH?3mm?3ss@ 0000000140046b88     libucrtd:nlsdata.obj
 0002:00007b98       ??_C@_17MBGCMIPB@?$AAS?$AAu?$AAn@ 0000000140046b98     libucrtd:nlsdata.obj
 0002:00007ba0       ??_C@_17KBOMKBF@?$AAM?$AAo?$AAn@ 0000000140046ba0     libucrtd:nlsdata.obj
 0002:00007ba8       ??_C@_17BMKGEGOJ@?$AAT?$AAu?$AAe@ 0000000140046ba8     libucrtd:nlsdata.obj
 0002:00007bb0       ??_C@_17CJEDCEPE@?$AAW?$AAe?$AAd@ 0000000140046bb0     libucrtd:nlsdata.obj
 0002:00007bb8       ??_C@_17PDPHAADD@?$AAT?$AAh?$AAu@ 0000000140046bb8     libucrtd:nlsdata.obj
 0002:00007bc0       ??_C@_17HFOLPPLP@?$AAF?$AAr?$AAi@ 0000000140046bc0     libucrtd:nlsdata.obj
 0002:00007bc8       ??_C@_17GGIBDPIH@?$AAS?$AAa?$AAt@ 0000000140046bc8     libucrtd:nlsdata.obj
 0002:00007bd0       ??_C@_1O@IHNHDHPB@?$AAS?$AAu?$AAn?$AAd?$AAa?$AAy@ 0000000140046bd0     libucrtd:nlsdata.obj
 0002:00007be0       ??_C@_1O@MMNBFLIA@?$AAM?$AAo?$AAn?$AAd?$AAa?$AAy@ 0000000140046be0     libucrtd:nlsdata.obj
 0002:00007bf0       ??_C@_1BA@ENFBFFEK@?$AAT?$AAu?$AAe?$AAs?$AAd?$AAa?$AAy@ 0000000140046bf0     libucrtd:nlsdata.obj
 0002:00007c00       ??_C@_1BE@EBOGMDOH@?$AAW?$AAe?$AAd?$AAn?$AAe?$AAs?$AAd?$AAa?$AAy@ 0000000140046c00     libucrtd:nlsdata.obj
 0002:00007c18       ??_C@_1BC@HHMNLIHE@?$AAT?$AAh?$AAu?$AAr?$AAs?$AAd?$AAa?$AAy@ 0000000140046c18     libucrtd:nlsdata.obj
 0002:00007c30       ??_C@_1O@PDICJHAG@?$AAF?$AAr?$AAi?$AAd?$AAa?$AAy@ 0000000140046c30     libucrtd:nlsdata.obj
 0002:00007c40       ??_C@_1BC@ENMNNPAJ@?$AAS?$AAa?$AAt?$AAu?$AAr?$AAd?$AAa?$AAy@ 0000000140046c40     libucrtd:nlsdata.obj
 0002:00007c58       ??_C@_17DKNBKCHM@?$AAJ?$AAa?$AAn@ 0000000140046c58     libucrtd:nlsdata.obj
 0002:00007c60       ??_C@_17LMDJEKJN@?$AAF?$AAe?$AAb@ 0000000140046c60     libucrtd:nlsdata.obj
 0002:00007c68       ??_C@_17CKNLEDEC@?$AAM?$AAa?$AAr@ 0000000140046c68     libucrtd:nlsdata.obj
 0002:00007c70       ??_C@_17LFPOIHDD@?$AAA?$AAp?$AAr@ 0000000140046c70     libucrtd:nlsdata.obj
 0002:00007c78       ??_C@_17PNNKMEED@?$AAM?$AAa?$AAy@ 0000000140046c78     libucrtd:nlsdata.obj
 0002:00007c80       ??_C@_17KCJGOCPB@?$AAJ?$AAu?$AAn@ 0000000140046c80     libucrtd:nlsdata.obj
 0002:00007c88       ??_C@_17IJPCKHK@?$AAJ?$AAu?$AAl@ 0000000140046c88     libucrtd:nlsdata.obj
 0002:00007c90       ??_C@_17ICPELBCN@?$AAA?$AAu?$AAg@ 0000000140046c90     libucrtd:nlsdata.obj
 0002:00007c98       ??_C@_17HCHCOKMG@?$AAS?$AAe?$AAp@ 0000000140046c98     libucrtd:nlsdata.obj
 0002:00007ca0       ??_C@_17FNLKOI@?$AAO?$AAc?$AAt@ 0000000140046ca0     libucrtd:nlsdata.obj
 0002:00007ca8       ??_C@_17BBDMLCIG@?$AAN?$AAo?$AAv@ 0000000140046ca8     libucrtd:nlsdata.obj
 0002:00007cb0       ??_C@_17EGKACKIF@?$AAD?$AAe?$AAc@ 0000000140046cb0     libucrtd:nlsdata.obj
 0002:00007cb8       ??_C@_1BA@EFMEIEBA@?$AAJ?$AAa?$AAn?$AAu?$AAa?$AAr?$AAy@ 0000000140046cb8     libucrtd:nlsdata.obj
 0002:00007cc8       ??_C@_1BC@JGDDFFAM@?$AAF?$AAe?$AAb?$AAr?$AAu?$AAa?$AAr?$AAy@ 0000000140046cc8     libucrtd:nlsdata.obj
 0002:00007ce0       ??_C@_1M@IKEENEDF@?$AAM?$AAa?$AAr?$AAc?$AAh@ 0000000140046ce0     libucrtd:nlsdata.obj
 0002:00007cf0       ??_C@_1M@GJNLMHFD@?$AAA?$AAp?$AAr?$AAi?$AAl@ 0000000140046cf0     libucrtd:nlsdata.obj
 0002:00007d00       ??_C@_19EPFLPGAP@?$AAJ?$AAu?$AAn?$AAe@ 0000000140046d00     libucrtd:nlsdata.obj
 0002:00007d10       ??_C@_19BIFMLPCD@?$AAJ?$AAu?$AAl?$AAy@ 0000000140046d10     libucrtd:nlsdata.obj
 0002:00007d20       ??_C@_1O@PAHLKOAC@?$AAA?$AAu?$AAg?$AAu?$AAs?$AAt@ 0000000140046d20     libucrtd:nlsdata.obj
 0002:00007d30       ??_C@_1BE@DKAAMBJL@?$AAS?$AAe?$AAp?$AAt?$AAe?$AAm?$AAb?$AAe?$AAr@ 0000000140046d30     libucrtd:nlsdata.obj
 0002:00007d48       ??_C@_1BA@EPANDLNG@?$AAO?$AAc?$AAt?$AAo?$AAb?$AAe?$AAr@ 0000000140046d48     libucrtd:nlsdata.obj
 0002:00007d58       ??_C@_1BC@BGLIFPF@?$AAN?$AAo?$AAv?$AAe?$AAm?$AAb?$AAe?$AAr@ 0000000140046d58     libucrtd:nlsdata.obj
 0002:00007d70       ??_C@_1BC@FEMKIFH@?$AAD?$AAe?$AAc?$AAe?$AAm?$AAb?$AAe?$AAr@ 0000000140046d70     libucrtd:nlsdata.obj
 0002:00007d84       ??_C@_15ODEHAHHF@?$AAA?$AAM@ 0000000140046d84     libucrtd:nlsdata.obj
 0002:00007d8c       ??_C@_15CLMNNGEL@?$AAP?$AAM@ 0000000140046d8c     libucrtd:nlsdata.obj
 0002:00007d98       ??_C@_1BC@IEBCMHCM@?$AAM?$AAM?$AA?1?$AAd?$AAd?$AA?1?$AAy?$AAy@ 0000000140046d98     libucrtd:nlsdata.obj
 0002:00007db0       ??_C@_1CI@KNAKOEBC@?$AAd?$AAd?$AAd?$AAd?$AA?0?$AA?5?$AAM?$AAM?$AAM?$AAM?$AA?5?$AAd?$AAd?$AA?0?$AA?5@ 0000000140046db0     libucrtd:nlsdata.obj
 0002:00007dd8       ??_C@_1BC@GDGBMEMK@?$AAH?$AAH?$AA?3?$AAm?$AAm?$AA?3?$AAs?$AAs@ 0000000140046dd8     libucrtd:nlsdata.obj
 0002:00007df0       ??_C@_1M@BMHNFIME@?$AAe?$AAn?$AA?9?$AAU?$AAS@ 0000000140046df0     libucrtd:nlsdata.obj
 0002:00007ea0       ??_C@_1EA@JGEFHKEI@?$AAa?$AAp?$AAi?$AA?9?$AAm?$AAs?$AA?9?$AAw?$AAi?$AAn?$AA?9?$AAc?$AAo?$AAr?$AAe@ 0000000140046ea0     libucrtd:winapi_thunks.obj
 0002:00007ee0       ??_C@_1DI@IJCEHOCB@?$AAa?$AAp?$AAi?$AA?9?$AAm?$AAs?$AA?9?$AAw?$AAi?$AAn?$AA?9?$AAc?$AAo?$AAr?$AAe@ 0000000140046ee0     libucrtd:winapi_thunks.obj
 0002:00007f20       ??_C@_1EI@MPIAOHOC@?$AAa?$AAp?$AAi?$AA?9?$AAm?$AAs?$AA?9?$AAw?$AAi?$AAn?$AA?9?$AAc?$AAo?$AAr?$AAe@ 0000000140046f20     libucrtd:winapi_thunks.obj
 0002:00007f70       ??_C@_1FK@FPHCKFIE@?$AAa?$AAp?$AAi?$AA?9?$AAm?$AAs?$AA?9?$AAw?$AAi?$AAn?$AA?9?$AAc?$AAo?$AAr?$AAe@ 0000000140046f70     libucrtd:winapi_thunks.obj
 0002:00007fd0       ??_C@_1EM@DILCGIIO@?$AAa?$AAp?$AAi?$AA?9?$AAm?$AAs?$AA?9?$AAw?$AAi?$AAn?$AA?9?$AAc?$AAo?$AAr?$AAe@ 0000000140046fd0     libucrtd:winapi_thunks.obj
 0002:00008020       ??_C@_1DM@LNCGDDPN@?$AAa?$AAp?$AAi?$AA?9?$AAm?$AAs?$AA?9?$AAw?$AAi?$AAn?$AA?9?$AAc?$AAo?$AAr?$AAe@ 0000000140047020     libucrtd:winapi_thunks.obj
 0002:00008060       ??_C@_1DO@FPAPJEMD@?$AAa?$AAp?$AAi?$AA?9?$AAm?$AAs?$AA?9?$AAw?$AAi?$AAn?$AA?9?$AAc?$AAo?$AAr?$AAe@ 0000000140047060     libucrtd:winapi_thunks.obj
 0002:000080a0       ??_C@_1DK@NDHNAHIO@?$AAa?$AAp?$AAi?$AA?9?$AAm?$AAs?$AA?9?$AAw?$AAi?$AAn?$AA?9?$AAc?$AAo?$AAr?$AAe@ 00000001400470a0     libucrtd:winapi_thunks.obj
 0002:000080e0       ??_C@_1DM@KGHDGBCM@?$AAa?$AAp?$AAi?$AA?9?$AAm?$AAs?$AA?9?$AAw?$AAi?$AAn?$AA?9?$AAc?$AAo?$AAr?$AAe@ 00000001400470e0     libucrtd:winapi_thunks.obj
 0002:00008120       ??_C@_1EO@IJIOEFOH@?$AAa?$AAp?$AAi?$AA?9?$AAm?$AAs?$AA?9?$AAw?$AAi?$AAn?$AA?9?$AAr?$AAt?$AAc?$AAo@ 0000000140047120     libucrtd:winapi_thunks.obj
 0002:00008170       ??_C@_1FG@HHGEKANL@?$AAa?$AAp?$AAi?$AA?9?$AAm?$AAs?$AA?9?$AAw?$AAi?$AAn?$AA?9?$AAs?$AAe?$AAc?$AAu@ 0000000140047170     libucrtd:winapi_thunks.obj
 0002:000081d0       ??_C@_1EG@DBIOJECG@?$AAe?$AAx?$AAt?$AA?9?$AAm?$AAs?$AA?9?$AAw?$AAi?$AAn?$AA?9?$AAn?$AAt?$AAu?$AAs@ 00000001400471d0     libucrtd:winapi_thunks.obj
 0002:00008220       ??_C@_1EO@FIHMJCLF@?$AAe?$AAx?$AAt?$AA?9?$AAm?$AAs?$AA?9?$AAw?$AAi?$AAn?$AA?9?$AAn?$AAt?$AAu?$AAs@ 0000000140047220     libucrtd:winapi_thunks.obj
 0002:00008270       ??_C@_1BC@DNHGCMLG@?$AAa?$AAd?$AAv?$AAa?$AAp?$AAi?$AA3?$AA2@ 0000000140047270     libucrtd:winapi_thunks.obj
 0002:00008288       ??_C@_1M@OAIMIKLP@?$AAn?$AAt?$AAd?$AAl?$AAl@ 0000000140047288     libucrtd:winapi_thunks.obj
 0002:000082a0       ??_C@_1EG@DPGNFKGC@?$AAa?$AAp?$AAi?$AA?9?$AAm?$AAs?$AA?9?$AAw?$AAi?$AAn?$AA?9?$AAa?$AAp?$AAp?$AAm@ 00000001400472a0     libucrtd:winapi_thunks.obj
 0002:000082e8       ??_C@_1O@BCCLBEOE@?$AAu?$AAs?$AAe?$AAr?$AA3?$AA2@ 00000001400472e8     libucrtd:winapi_thunks.obj
 0002:000082f8       ??_C@_1BA@IAIFMGEF@?$AAe?$AAx?$AAt?$AA?9?$AAm?$AAs?$AA?9@ 00000001400472f8     libucrtd:winapi_thunks.obj
 0002:00008310       ??_C@_1HE@OILMBOBA@?$AAm?$AAi?$AAn?$AAk?$AAe?$AAr?$AAn?$AAe?$AAl?$AA?2?$AAc?$AAr?$AAt?$AAs?$AA?2@ 0000000140047310     libucrtd:winapi_thunks.obj
 0002:00008388       ??_C@_0BA@FHFNEAED@AreFileApisANSI@ 0000000140047388     libucrtd:winapi_thunks.obj
 0002:000083a0       ??_C@_0BA@IHGNDAEB@CompareStringEx@ 00000001400473a0     libucrtd:winapi_thunks.obj
 0002:000083d8       ??_C@_0BA@HNOPNCHB@GetActiveWindow@ 00000001400473d8     libucrtd:winapi_thunks.obj
 0002:000083f0       ??_C@_0BD@HHGDFDBJ@GetLastActivePopup@ 00000001400473f0     libucrtd:winapi_thunks.obj
 0002:00008410       ??_C@_0BI@DFKBFLJE@GetProcessWindowStation@ 0000000140047410     libucrtd:winapi_thunks.obj
 0002:00008430       ??_C@_0BK@DEKFELLI@GetUserObjectInformationW@ 0000000140047430     libucrtd:winapi_thunks.obj
 0002:00008460       ??_C@_0O@KKBNKAPF@LCMapStringEx@ 0000000140047460     libucrtd:winapi_thunks.obj
 0002:00008478       ??_C@_0BB@HBDEELFH@LocaleNameToLCID@ 0000000140047478     libucrtd:winapi_thunks.obj
 0002:00008498       ??_C@_0M@CHKKJDAI@MessageBoxA@ 0000000140047498     libucrtd:winapi_thunks.obj
 0002:000084b0       ??_C@_0M@DLDCCGNP@MessageBoxW@ 00000001400474b0     libucrtd:winapi_thunks.obj
 0002:000084c0       ??_C@_0CF@OJOFEIGO@AppPolicyGetProcessTerminationM@ 00000001400474c0     libucrtd:winapi_thunks.obj
 0002:000084f0       ??_C@_0CE@OICFMIKE@AppPolicyGetShowDeveloperDiagno@ 00000001400474f0     libucrtd:winapi_thunks.obj
 0002:00008518       ??_C@_0BL@ODDJNEDA@AppPolicyGetWindowingModel@ 0000000140047518     libucrtd:winapi_thunks.obj
 0002:00008540       ??_C@_1GE@GPOPIOIG@?$AAm?$AAi?$AAn?$AAk?$AAe?$AAr?$AAn?$AAe?$AAl?$AA?2?$AAc?$AAr?$AAt?$AAs?$AA?2@ 0000000140047540     libucrtd:_freebuf.obj
 0002:000085b0       ??_C@_1BBC@DECGKMGJ@?$AA_?$AAl?$AAo?$AAc?$AA_?$AAu?$AAp?$AAd?$AAa?$AAt?$AAe?$AA?4?$AAG?$AAe?$AAt@ 00000001400475b0     libucrtd:mbtowc.obj
 0002:000086d0       ??_C@_1GE@CGIHMDEJ@?$AAm?$AAi?$AAn?$AAk?$AAe?$AAr?$AAn?$AAe?$AAl?$AA?2?$AAc?$AAr?$AAt?$AAs?$AA?2@ 00000001400476d0     libucrtd:mbtowc.obj
 0002:00008740       ??_C@_1HA@KNBGJAIN@?$AAU?$AAT?$AAF?$AA?9?$AA8?$AA?5?$AAi?$AAs?$AAn?$AA?8?$AAt?$AA?5?$AAs?$AAu?$AAp@ 0000000140047740     libucrtd:mbtowc.obj
 0002:000087b0       ??_C@_1BBA@EIIJPPL@?$AA_?$AAl?$AAo?$AAc?$AA_?$AAu?$AAp?$AAd?$AAa?$AAt?$AAe?$AA?4?$AAG?$AAe?$AAt@ 00000001400477b0     libucrtd:mbtowc.obj
 0002:000088c0       ??_C@_1IE@CDCHDACI@?$AA_?$AAl?$AAo?$AAc?$AA_?$AAu?$AAp?$AAd?$AAa?$AAt?$AAe?$AA?4?$AAG?$AAe?$AAt@ 00000001400478c0     libucrtd:mbtowc.obj
 0002:00008948       ??_C@_1DK@NBNOAGKB@?$AAd?$AAe?$AAs?$AAt?$AAi?$AAn?$AAa?$AAt?$AAi?$AAo?$AAn?$AA_?$AAc?$AAo?$AAu@ 0000000140047948     libucrtd:wctomb.obj
 0002:00008990       ??_C@_1GE@FCCEPHFG@?$AAm?$AAi?$AAn?$AAk?$AAe?$AAr?$AAn?$AAe?$AAl?$AA?2?$AAc?$AAr?$AAt?$AAs?$AA?2@ 0000000140047990     libucrtd:wctomb.obj
 0002:000089f8       ??_C@_1BI@IEADNOHF@?$AA_?$AAw?$AAc?$AAt?$AAo?$AAm?$AAb?$AA_?$AAs?$AA_?$AAl@ 00000001400479f8     libucrtd:wctomb.obj
 0002:00008a10       ??_C@_1CM@ENFEGCNE@?$AAd?$AAe?$AAs?$AAt?$AAi?$AAn?$AAa?$AAt?$AAi?$AAo?$AAn?$AA_?$AAc?$AAo?$AAu@ 0000000140047a10     libucrtd:wctomb.obj
 0002:00008af0       ??_C@_03OEIAHPBN@INF@      0000000140047af0     libucrtd:cvt.obj
 0002:00008af4       ??_C@_03OJHLLCGB@inf@      0000000140047af4     libucrtd:cvt.obj
 0002:00008af8       ??_C@_03LKNCIKJB@NAN@      0000000140047af8     libucrtd:cvt.obj
 0002:00008afc       ??_C@_03LHCJEHON@nan@      0000000140047afc     libucrtd:cvt.obj
 0002:00008b00       ??_C@_09OFJJIMPC@NAN?$CISNAN?$CJ@ 0000000140047b00     libucrtd:cvt.obj
 0002:00008b10       ??_C@_09IPFBKMDL@nan?$CIsnan?$CJ@ 0000000140047b10     libucrtd:cvt.obj
 0002:00008b20       ??_C@_08IKHNHAJ@NAN?$CIIND?$CJ@ 0000000140047b20     libucrtd:cvt.obj
 0002:00008b30       ??_C@_08OFCDMILK@nan?$CIind?$CJ@ 0000000140047b30     libucrtd:cvt.obj
 0002:00008b40       ??_C@_1FO@GKAKAPLI@?$AAm?$AAi?$AAn?$AAk?$AAe?$AAr?$AAn?$AAe?$AAl?$AA?2?$AAc?$AAr?$AAt?$AAs?$AA?2@ 0000000140047b40     libucrtd:cvt.obj
 0002:00008ba0       ??_C@_1DE@EHGIGIDK@?$AAf?$AAp?$AA_?$AAf?$AAo?$AAr?$AAm?$AAa?$AAt?$AA_?$AAn?$AAa?$AAn?$AA_?$AAo@ 0000000140047ba0     libucrtd:cvt.obj
 0002:00008be0       ??_C@_1LI@PCMLJPCO@?$AAs?$AAt?$AAr?$AAc?$AAp?$AAy?$AA_?$AAs?$AA?$CI?$AA?5?$AAr?$AAe?$AAs?$AAu?$AAl@ 0000000140047be0     libucrtd:cvt.obj
 0002:00008ca0       ??_C@_1KO@LJHOFBCD@?$AAr?$AAe?$AAs?$AAu?$AAl?$AAt?$AA_?$AAb?$AAu?$AAf?$AAf?$AAe?$AAr?$AA_?$AAc@ 0000000140047ca0     libucrtd:cvt.obj
 0002:00008d50       ??_C@_1CK@BOLHOMFO@?$AAf?$AAp?$AA_?$AAf?$AAo?$AAr?$AAm?$AAa?$AAt?$AA_?$AAe?$AA_?$AAi?$AAn?$AAt@ 0000000140047d50     libucrtd:cvt.obj
 0002:00008d80       ??_C@_1BBE@LHDOMEDC@?$AAs?$AAt?$AAr?$AAc?$AAp?$AAy?$AA_?$AAs?$AA?$CI?$AA?5?$AAp?$AA?0?$AA?5?$AAr?$AAe@ 0000000140047d80     libucrtd:cvt.obj
 0002:00008e94       ??_C@_05KLBDPFGC@e?$CL000@ 0000000140047e94     libucrtd:cvt.obj
 0002:00008ea0       ??_C@_1IC@FILKPBAB@?$AAr?$AAe?$AAs?$AAu?$AAl?$AAt?$AA_?$AAb?$AAu?$AAf?$AAf?$AAe?$AAr?$AA_?$AAc@ 0000000140047ea0     libucrtd:cvt.obj
 0002:00008f28       ??_C@_1BI@PNBDLNBB@?$AAf?$AAp?$AA_?$AAf?$AAo?$AAr?$AAm?$AAa?$AAt?$AA_?$AAa@ 0000000140047f28     libucrtd:cvt.obj
 0002:00008f40       ??_C@_1DC@MGKAFPFD@?$AAr?$AAe?$AAs?$AAu?$AAl?$AAt?$AA_?$AAb?$AAu?$AAf?$AAf?$AAe?$AAr?$AA?5?$AA?$CB@ 0000000140047f40     libucrtd:cvt.obj
 0002:00008f78       ??_C@_1CC@LDAHJAKK@?$AA_?$AA_?$AAa?$AAc?$AAr?$AAt?$AA_?$AAf?$AAp?$AA_?$AAf?$AAo?$AAr?$AAm?$AAa@ 0000000140047f78     libucrtd:cvt.obj
 0002:00008fa0       ??_C@_1DA@NMLJJOCO@?$AAr?$AAe?$AAs?$AAu?$AAl?$AAt?$AA_?$AAb?$AAu?$AAf?$AAf?$AAe?$AAr?$AA_?$AAc@ 0000000140047fa0     libucrtd:cvt.obj
 0002:00008fd0       ??_C@_1DE@MNOPBCOK@?$AAs?$AAc?$AAr?$AAa?$AAt?$AAc?$AAh?$AA_?$AAb?$AAu?$AAf?$AAf?$AAe?$AAr?$AA?5@ 0000000140047fd0     libucrtd:cvt.obj
 0002:00009008       ??_C@_1DC@CKBKNFKH@?$AAs?$AAc?$AAr?$AAa?$AAt?$AAc?$AAh?$AA_?$AAb?$AAu?$AAf?$AAf?$AAe?$AAr?$AA_@ 0000000140048008     libucrtd:cvt.obj
 0002:00009040       ??_C@_1EI@JAHBOGIM@?$AA?$CI?$AA?$CC?$AAU?$AAn?$AAs?$AAu?$AAp?$AAp?$AAo?$AAr?$AAt?$AAe?$AAd?$AA?5?$AAf@ 0000000140048040     libucrtd:cvt.obj
 0002:00009088       ??_C@_1BO@MHPFFFJJ@?$AAs?$AAt?$AAr?$AAe?$AAa?$AAm?$AA?4?$AAv?$AAa?$AAl?$AAi?$AAd?$AA?$CI?$AA?$CJ@ 0000000140048088     libucrtd:fileno.obj
 0002:000090b0       ??_C@_1GA@KCAHHNGP@?$AAm?$AAi?$AAn?$AAk?$AAe?$AAr?$AAn?$AAe?$AAl?$AA?2?$AAc?$AAr?$AAt?$AAs?$AA?2@ 00000001400480b0     libucrtd:fileno.obj
 0002:00009110       ??_C@_1BA@JGHIEKKM@?$AA_?$AAf?$AAi?$AAl?$AAe?$AAn?$AAo@ 0000000140048110     libucrtd:fileno.obj
 0002:00009120       ??_C@_1GC@GBMDABED@?$AAm?$AAi?$AAn?$AAk?$AAe?$AAr?$AAn?$AAe?$AAl?$AA?2?$AAc?$AAr?$AAt?$AAs?$AA?2@ 0000000140048120     libucrtd:_sftbuf.obj
 0002:00009188       ??_C@_0DB@EPIHMFLB@minkernel?2crts?2ucrt?2src?2appcrt?2@ 0000000140048188     libucrtd:_sftbuf.obj
 0002:000091c0       ??_C@_1DE@BCNCAIK@?$AA?$CI?$AA?$CC?$AAI?$AAn?$AAv?$AAa?$AAl?$AAi?$AAd?$AA?5?$AAe?$AAr?$AAr?$AAo?$AAr@ 00000001400481c0     libucrtd:set_error_mode.obj
 0002:00009200       ??_C@_1GO@EBFPMMIJ@?$AAm?$AAi?$AAn?$AAk?$AAe?$AAr?$AAn?$AAe?$AAl?$AA?2?$AAc?$AAr?$AAt?$AAs?$AA?2@ 0000000140048200     libucrtd:set_error_mode.obj
 0002:00009270       ??_C@_1CA@LFDHAMEM@?$AA_?$AAs?$AAe?$AAt?$AA_?$AAe?$AAr?$AAr?$AAo?$AAr?$AA_?$AAm?$AAo?$AAd?$AAe@ 0000000140048270     libucrtd:set_error_mode.obj
 0002:00009290       ??_C@_1CA@EOJJMFA@?$AAc?$AAo?$AAm?$AAm?$AAo?$AAn?$AA_?$AAt?$AAc?$AAs?$AAc?$AAa?$AAt?$AA_?$AAs@ 0000000140048290     libucrtd:wcscat_s.obj
 0002:000092b0       ??_C@_1DM@FHLMIEG@?$AAS?$AAt?$AAr?$AAi?$AAn?$AAg?$AA?5?$AAi?$AAs?$AA?5?$AAn?$AAo?$AAt?$AA?5?$AAn@ 00000001400482b0     libucrtd:wcscat_s.obj
 0002:000092f0       ??_C@_1FA@MJKDNFFB@?$AA?$CI?$AAL?$AA?$CC?$AAS?$AAt?$AAr?$AAi?$AAn?$AAg?$AA?5?$AAi?$AAs?$AA?5?$AAn?$AAo@ 00000001400482f0     libucrtd:wcscat_s.obj
 0002:00009340       ??_C@_1CC@CHNFGJIC@?$AAc?$AAo?$AAm?$AAm?$AAo?$AAn?$AA_?$AAt?$AAc?$AAs?$AAn?$AAc?$AAp?$AAy?$AA_@ 0000000140048340     libucrtd:wcsncpy_s.obj
 0002:00009390       ??_C@_0DI@DNFGFCIK@minkernel?2crts?2ucrt?2inc?2corecrt@ 0000000140048390     libucrtd:argv_wildcards.obj
 0002:000093d0       ??_C@_1HE@CEMHPOHH@?$AAm?$AAi?$AAn?$AAk?$AAe?$AAr?$AAn?$AAe?$AAl?$AA?2?$AAc?$AAr?$AAt?$AAs?$AA?2@ 00000001400483d0     libucrtd:argv_wildcards.obj
 0002:00009448       ??_C@_1DK@IBFFOJGB@?$AAc?$AAo?$AAm?$AAm?$AAo?$AAn?$AA_?$AAe?$AAx?$AAp?$AAa?$AAn?$AAd?$AA_?$AAa@ 0000000140048448     libucrtd:argv_wildcards.obj
 0002:00009490       ??_C@_1MC@FLPKOFON@?$AAt?$AAr?$AAa?$AAi?$AAt?$AAs?$AA?3?$AA?3?$AAt?$AAc?$AAs?$AAn?$AAc?$AAp?$AAy@ 0000000140048490     libucrtd:argv_wildcards.obj
 0002:00009558       ??_C@_0DK@FPFMIIJB@minkernel?2crts?2ucrt?2src?2appcrt?2@ 0000000140048558     libucrtd:argv_wildcards.obj
 0002:000095a0       ??_C@_1EA@KOCCBLAD@?$AAc?$AAo?$AAp?$AAy?$AA_?$AAa?$AAn?$AAd?$AA_?$AAa?$AAd?$AAd?$AA_?$AAa?$AAr@ 00000001400485a0     libucrtd:argv_wildcards.obj
 0002:000095e0       ??_C@_1KM@GDJIGAGL@?$AAt?$AAr?$AAa?$AAi?$AAt?$AAs?$AA?3?$AA?3?$AAt?$AAc?$AAs?$AAn?$AAc?$AAp?$AAy@ 00000001400485e0     libucrtd:argv_wildcards.obj
 0002:00009690       ??_C@_1PI@FGFLAGCC@?$AAt?$AAr?$AAa?$AAi?$AAt?$AAs?$AA?3?$AA?3?$AAt?$AAc?$AAs?$AAn?$AAc?$AAp?$AAy@ 0000000140048690     libucrtd:argv_wildcards.obj
 0002:000097d0       ??_C@_1M@HPNHIDJI@?$AAj?$AAa?$AA?9?$AAJ?$AAP@ 00000001400487d0     libucrtd:mbctype.obj
 0002:000097e0       ??_C@_1M@BIBDDEMK@?$AAz?$AAh?$AA?9?$AAC?$AAN@ 00000001400487e0     libucrtd:mbctype.obj
 0002:000097f0       ??_C@_1M@JLOOOEGK@?$AAk?$AAo?$AA?9?$AAK?$AAR@ 00000001400487f0     libucrtd:mbctype.obj
 0002:00009800       ??_C@_1M@CLNBBOPM@?$AAz?$AAh?$AA?9?$AAT?$AAW@ 0000000140048800     libucrtd:mbctype.obj
 0002:00009810       ??_C@_0DE@HGDKNBFD@minkernel?2crts?2ucrt?2src?2appcrt?2@ 0000000140048810     libucrtd:mbctype.obj
 0002:00009850       ??_C@_0ED@BLPEHJAI@minkernel?2crts?2ucrt?2src?2desktop@ 0000000140048850     libucrtd:get_environment_from_os.obj
 0002:00009898       ??_C@_1DO@PANKIJNP@?$AAe?$AAq?$AAu?$AAa?$AAl?$AA_?$AAs?$AAi?$AAg?$AAn?$AA?5?$AA?9?$AA?5?$AAo?$AAp@ 0000000140048898     libucrtd:setenv.obj
 0002:000098e0       ??_C@_1GE@MMOHBENP@?$AAm?$AAi?$AAn?$AAk?$AAe?$AAr?$AAn?$AAe?$AAl?$AA?2?$AAc?$AAr?$AAt?$AAs?$AA?2@ 00000001400488e0     libucrtd:setenv.obj
 0002:00009950       ??_C@_1GK@KBABANDM@?$AAt?$AAr?$AAa?$AAi?$AAt?$AAs?$AA?3?$AA?3?$AAt?$AAc?$AAs?$AAn?$AAl?$AAe?$AAn@ 0000000140048950     libucrtd:setenv.obj
 0002:000099c0       ??_C@_0DC@NJKMKCIL@minkernel?2crts?2ucrt?2src?2desktop@ 00000001400489c0     libucrtd:setenv.obj
 0002:00009a00       ??_C@_1EC@IKJPFBIM@?$AA?$CI?$AA?$CC?$AAC?$AAR?$AAT?$AA?5?$AAl?$AAo?$AAg?$AAi?$AAc?$AA?5?$AAe?$AAr?$AAr@ 0000000140048a00     libucrtd:setenv.obj
 0002:00009a50       ??_C@_1FE@KHMDCEEJ@?$AAc?$AAo?$AAm?$AAm?$AAo?$AAn?$AA_?$AAs?$AAe?$AAt?$AA_?$AAv?$AAa?$AAr?$AAi@ 0000000140048a50     libucrtd:setenv.obj
 0002:00009ab0       ??_C@_1EM@NIOJJLEA@?$AAt?$AAr?$AAa?$AAi?$AAt?$AAs?$AA?3?$AA?3?$AAt?$AAc?$AAs?$AAc?$AAp?$AAy?$AA_@ 0000000140048ab0     libucrtd:setenv.obj
 0002:00009b00       ??_C@_1CC@PIMGMDJH@?$AAc?$AAo?$AAp?$AAy?$AA_?$AAe?$AAn?$AAv?$AAi?$AAr?$AAo?$AAn?$AAm?$AAe?$AAn@ 0000000140048b00     libucrtd:setenv.obj
 0002:00009b30       ??_C@_1GG@EDHOMIDL@?$AAt?$AAr?$AAa?$AAi?$AAt?$AAs?$AA?3?$AA?3?$AAt?$AAc?$AAs?$AAc?$AAp?$AAy?$AA_@ 0000000140048b30     libucrtd:setenv.obj
 0002:00009b98       ??_C@_0DB@JFFPGLDM@minkernel?2crts?2ucrt?2src?2appcrt?2@ 0000000140048b98     libucrtd:osfinfo.obj
 0002:00009bd0       ??_C@_1EM@BPODPNEJ@?$AAs?$AAt?$AAa?$AAt?$AAi?$AAc?$AA_?$AAc?$AAa?$AAs?$AAt?$AA?$DM?$AAu?$AAn?$AAs@ 0000000140048bd0     libucrtd:osfinfo.obj
 0002:00009c20       ??_C@_1GC@LDGKBAFM@?$AAm?$AAi?$AAn?$AAk?$AAe?$AAr?$AAn?$AAe?$AAl?$AA?2?$AAc?$AAr?$AAt?$AAs?$AA?2@ 0000000140048c20     libucrtd:osfinfo.obj
 0002:00009c88       ??_C@_1DM@JELNOMLN@?$AA_?$AA_?$AAa?$AAc?$AAr?$AAt?$AA_?$AAl?$AAo?$AAw?$AAi?$AAo?$AA_?$AAe?$AAn@ 0000000140048c88     libucrtd:osfinfo.obj
 0002:00009cd0       ??_C@_1FK@MGHFJLAL@?$AAf?$AAh?$AA?5?$AA?$DO?$AA?$DN?$AA?5?$AA0?$AA?5?$AA?$CG?$AA?$CG?$AA?5?$AA?$CI?$AAu?$AAn?$AAs@ 0000000140048cd0     libucrtd:osfinfo.obj
 0002:00009d30       ??_C@_1BO@EMBOBGKE@?$AA_?$AAg?$AAe?$AAt?$AA_?$AAo?$AAs?$AAf?$AAh?$AAa?$AAn?$AAd?$AAl?$AAe@ 0000000140048d30     libucrtd:osfinfo.obj
 0002:00009d50       ??_C@_1CI@ILOIOBLM@?$AA_?$AAo?$AAs?$AAf?$AAi?$AAl?$AAe?$AA?$CI?$AAf?$AAh?$AA?$CJ?$AA?5?$AA?$CG?$AA?5?$AAF@ 0000000140048d50     libucrtd:osfinfo.obj
 0002:00009d80       __newctype                 0000000140048d80     libucrtd:ctype.obj
 0002:0000a080       __newclmap                 0000000140049080     libucrtd:ctype.obj
 0002:0000a200       __newcumap                 0000000140049200     libucrtd:ctype.obj
 0002:0000a380       _wctype                    0000000140049380     libucrtd:ctype.obj
 0002:0000a590       ??_C@_1FE@KNPCCODH@?$AA?$CI?$AA?$CC?$AAC?$AAo?$AAr?$AAr?$AAu?$AAp?$AAt?$AAe?$AAd?$AA?5?$AAp?$AAo?$AAi@ 0000000140049590     libucrtd:getstringtypea.obj
 0002:0000a5f0       ??_C@_1EM@GPJLADAA@?$AAV?$AAC?$AAC?$AAR?$AAT?$AA?2?$AAv?$AAc?$AAr?$AAu?$AAn?$AAt?$AAi?$AAm?$AAe@ 00000001400495f0     libucrtd:getstringtypea.obj
 0002:0000a640       ??_C@_0DJ@HCPJODDK@minkernel?2crts?2ucrt?2src?2appcrt?2@ 0000000140049640     libucrtd:getstringtypea.obj
 0002:0000a680       ??_C@_1BKC@NBNHJIDM@?$AA?$CI?$AAp?$AAt?$AAl?$AAo?$AAc?$AAi?$AA?9?$AA?$DO?$AAl?$AAc?$AA_?$AAc?$AAa?$AAt@ 0000000140049680     libucrtd:locale_refcounting.obj
 0002:0000a830       ??_C@_1HK@HCNMEOLA@?$AAm?$AAi?$AAn?$AAk?$AAe?$AAr?$AAn?$AAe?$AAl?$AA?2?$AAc?$AAr?$AAt?$AAs?$AA?2@ 0000000140049830     libucrtd:locale_refcounting.obj
 0002:0000a8ac       ??_C@_15PJPFLCCM@?$AAu?$AAk@ 00000001400498ac     libucrtd:get_qualified_locale.obj
 0002:0000a8b8       ??_C@_1DA@NBILLKNO@?$AAl?$AAo?$AAc?$AAa?$AAl?$AA_?$AAa?$AAc?$AAt?$AAi?$AAo?$AAn?$AA?5?$AA?$CB?$AA?$DN@ 00000001400498b8     libucrtd:signal.obj
 0002:0000a8f0       ??_C@_1FO@CCGDPEKE@?$AAm?$AAi?$AAn?$AAk?$AAe?$AAr?$AAn?$AAe?$AAl?$AA?2?$AAc?$AAr?$AAt?$AAs?$AA?2@ 00000001400498f0     libucrtd:signal.obj
 0002:0000a950       ??_C@_1M@DMJEIKHL@?$AAr?$AAa?$AAi?$AAs?$AAe@ 0000000140049950     libucrtd:signal.obj
 0002:0000a960       ??_C@_1DO@MLNEDKGB@?$AA?$CI?$AA?$CC?$AAI?$AAn?$AAv?$AAa?$AAl?$AAi?$AAd?$AA?5?$AAs?$AAi?$AAg?$AAn?$AAa@ 0000000140049960     libucrtd:signal.obj
 0002:0000a9a0       ??_C@_1FO@GEKPJHID@?$AAm?$AAi?$AAn?$AAk?$AAe?$AAr?$AAn?$AAe?$AAl?$AA?2?$AAc?$AAr?$AAt?$AAs?$AA?2@ 00000001400499a0     libucrtd:expand.obj
 0002:0000aa00       ??_C@_1BK@JMCGJOCC@?$AA_?$AAe?$AAx?$AAp?$AAa?$AAn?$AAd?$AA_?$AAb?$AAa?$AAs?$AAe@ 0000000140049a00     libucrtd:expand.obj
 0002:0000aa20       ??_C@_1GA@LFAOKOOP@?$AAm?$AAi?$AAn?$AAk?$AAe?$AAr?$AAn?$AAe?$AAl?$AA?2?$AAc?$AAr?$AAt?$AAs?$AA?2@ 0000000140049a20     libucrtd:dbgrptt.obj
 0002:0000aa80       ??_C@_1CA@KHJHLKA@?$AA_?$AAV?$AAC?$AAr?$AAt?$AAD?$AAb?$AAg?$AAR?$AAe?$AAp?$AAo?$AAr?$AAt?$AAA@ 0000000140049a80     libucrtd:dbgrptt.obj
 0002:0000aaa0       ??_C@_1FA@JPHJBHEM@?$AA_?$AAi?$AAt?$AAo?$AAa?$AA_?$AAs?$AA?$CI?$AAn?$AAL?$AAi?$AAn?$AAe?$AA?0?$AA?5@ 0000000140049aa0     libucrtd:dbgrptt.obj
 0002:0000aaf0       ??_C@_0CG@BNGLOCEO@Second?5Chance?5Assertion?5Failed?3@ 0000000140049af0     libucrtd:dbgrptt.obj
 0002:0000ab18       ??_C@_0P@DFJNDPOP@?$DMfile?5unknown?$DO@ 0000000140049b18     libucrtd:dbgrptt.obj
 0002:0000ab28       ??_C@_07BHGABMGB@?0?5Line?5@ 0000000140049b28     libucrtd:dbgrptt.obj
 0002:0000ab30       ??_C@_01EEMJAFIK@?6@       0000000140049b30     libucrtd:dbgrptt.obj
 0002:0000ab40       ??_C@_1JI@GAALPGBM@?$AAs?$AAt?$AAr?$AAc?$AAp?$AAy?$AA_?$AAs?$AA?$CI?$AAs?$AAz?$AAU?$AAs?$AAe?$AAr@ 0000000140049b40     libucrtd:dbgrptt.obj
 0002:0000abd8       ??_C@_0CL@EACFGMNB@_CrtDbgReport?3?5String?5too?5long?5@ 0000000140049bd8     libucrtd:dbgrptt.obj
 0002:0000ac10       ??_C@_1KK@GIGAEDMO@?$AAs?$AAt?$AAr?$AAc?$AAp?$AAy?$AA_?$AAs?$AA?$CI?$AAs?$AAz?$AAL?$AAi?$AAn?$AAe@ 0000000140049c10     libucrtd:dbgrptt.obj
 0002:0000acc0       ??_C@_0BD@CAENFOHP@Assertion?5failed?3?5@ 0000000140049cc0     libucrtd:dbgrptt.obj
 0002:0000acd8       ??_C@_0BC@LAIDCHCH@Assertion?5failed?$CB@ 0000000140049cd8     libucrtd:dbgrptt.obj
 0002:0000acf0       ??_C@_1FK@NPGBPOFO@?$AAs?$AAt?$AAr?$AAc?$AAa?$AAt?$AA_?$AAs?$AA?$CI?$AAs?$AAz?$AAL?$AAi?$AAn?$AAe@ 0000000140049cf0     libucrtd:dbgrptt.obj
 0002:0000ad50       ??_C@_1EI@CACDLAFK@?$AAs?$AAt?$AAr?$AAc?$AAa?$AAt?$AA_?$AAs?$AA?$CI?$AAs?$AAz?$AAL?$AAi?$AAn?$AAe@ 0000000140049d50     libucrtd:dbgrptt.obj
 0002:0000ad98       ??_C@_01LIIJDEN@?$AN@      0000000140049d98     libucrtd:dbgrptt.obj
 0002:0000ada0       ??_C@_1EI@LDHJEDO@?$AAs?$AAt?$AAr?$AAc?$AAa?$AAt?$AA_?$AAs?$AA?$CI?$AAs?$AAz?$AAL?$AAi?$AAn?$AAe@ 0000000140049da0     libucrtd:dbgrptt.obj
 0002:0000ade8       ??_C@_0M@IPILFDFN@?$CFs?$CI?$CFd?$CJ?5?3?5?$CFs@ 0000000140049de8     libucrtd:dbgrptt.obj
 0002:0000ae00       ??_C@_1JG@CPKCIOEE@?$AAs?$AAt?$AAr?$AAc?$AAp?$AAy?$AA_?$AAs?$AA?$CI?$AAs?$AAz?$AAO?$AAu?$AAt?$AAM@ 0000000140049e00     libucrtd:dbgrptt.obj
 0002:0000aea0       ??_C@_1FI@IBIOIHEG@?$AAs?$AAt?$AAr?$AAc?$AAp?$AAy?$AA_?$AAs?$AA?$CI?$AAs?$AAz?$AAO?$AAu?$AAt?$AAM@ 0000000140049ea0     libucrtd:dbgrptt.obj
 0002:0000af00       ??_C@_1IM@OOKIFKOH@?$AAe?$AA?5?$AA?$DN?$AA?5?$AAm?$AAb?$AAs?$AAt?$AAo?$AAw?$AAc?$AAs?$AA_?$AAs?$AA?$CI@ 0000000140049f00     libucrtd:dbgrptt.obj
 0002:0000af90       ??_C@_1MC@IGEECMDB@?$AAw?$AAc?$AAs?$AAc?$AAp?$AAy?$AA_?$AAs?$AA?$CI?$AAs?$AAz?$AAO?$AAu?$AAt?$AAM@ 0000000140049f90     libucrtd:dbgrptt.obj
 0002:0000b060       ??_C@_1HO@PJOFIKFE@?$AA_?$AAC?$AAr?$AAt?$AAD?$AAb?$AAg?$AAR?$AAe?$AAp?$AAo?$AAr?$AAt?$AA?3?$AA?5@ 000000014004a060     libucrtd:dbgrptt.obj
 0002:0000b0e0       ??_C@_1CA@HPALHDOD@?$AA_?$AAV?$AAC?$AAr?$AAt?$AAD?$AAb?$AAg?$AAR?$AAe?$AAp?$AAo?$AAr?$AAt?$AAW@ 000000014004a0e0     libucrtd:dbgrptt.obj
 0002:0000b100       ??_C@_1FA@CNLLOMHI@?$AA_?$AAi?$AAt?$AAo?$AAw?$AA_?$AAs?$AA?$CI?$AAn?$AAL?$AAi?$AAn?$AAe?$AA?0?$AA?5@ 000000014004a100     libucrtd:dbgrptt.obj
 0002:0000b150       ??_C@_1EM@MJFLEDMB@?$AAS?$AAe?$AAc?$AAo?$AAn?$AAd?$AA?5?$AAC?$AAh?$AAa?$AAn?$AAc?$AAe?$AA?5?$AAA@ 000000014004a150     libucrtd:dbgrptt.obj
 0002:0000b1a0       ??_C@_1BO@OCHMLCAG@?$AA?$DM?$AAf?$AAi?$AAl?$AAe?$AA?5?$AAu?$AAn?$AAk?$AAn?$AAo?$AAw?$AAn?$AA?$DO@ 000000014004a1a0     libucrtd:dbgrptt.obj
 0002:0000b1c0       ??_C@_1BA@ELMMDCFC@?$AA?0?$AA?5?$AAL?$AAi?$AAn?$AAe?$AA?5@ 000000014004a1c0     libucrtd:dbgrptt.obj
 0002:0000b1d0       ??_C@_13LBAGMAIH@?$AA?6@   000000014004a1d0     libucrtd:dbgrptt.obj
 0002:0000b1e0       ??_C@_1JK@KHFABAEO@?$AAw?$AAc?$AAs?$AAc?$AAp?$AAy?$AA_?$AAs?$AA?$CI?$AAs?$AAz?$AAU?$AAs?$AAe?$AAr@ 000000014004a1e0     libucrtd:dbgrptt.obj
 0002:0000b280       ??_C@_1KO@DGAHENCH@?$AAw?$AAc?$AAs?$AAc?$AAp?$AAy?$AA_?$AAs?$AA?$CI?$AAs?$AAz?$AAL?$AAi?$AAn?$AAe@ 000000014004a280     libucrtd:dbgrptt.obj
 0002:0000b330       ??_C@_1CG@FFFGGODN@?$AAA?$AAs?$AAs?$AAe?$AAr?$AAt?$AAi?$AAo?$AAn?$AA?5?$AAf?$AAa?$AAi?$AAl?$AAe@ 000000014004a330     libucrtd:dbgrptt.obj
 0002:0000b358       ??_C@_1CE@OJBNHDMO@?$AAA?$AAs?$AAs?$AAe?$AAr?$AAt?$AAi?$AAo?$AAn?$AA?5?$AAf?$AAa?$AAi?$AAl?$AAe@ 000000014004a358     libucrtd:dbgrptt.obj
 0002:0000b380       ??_C@_1FK@HPADHBBD@?$AAw?$AAc?$AAs?$AAc?$AAa?$AAt?$AA_?$AAs?$AA?$CI?$AAs?$AAz?$AAL?$AAi?$AAn?$AAe@ 000000014004a380     libucrtd:dbgrptt.obj
 0002:0000b3e0       ??_C@_1EK@NMDFGHMF@?$AAw?$AAc?$AAs?$AAc?$AAa?$AAt?$AA_?$AAs?$AA?$CI?$AAs?$AAz?$AAL?$AAi?$AAn?$AAe@ 000000014004a3e0     libucrtd:dbgrptt.obj
 0002:0000b42c       ??_C@_13CMNBPIDO@?$AA?$AN@ 000000014004a42c     libucrtd:dbgrptt.obj
 0002:0000b430       ??_C@_1EK@PHCBEDKB@?$AAw?$AAc?$AAs?$AAc?$AAa?$AAt?$AA_?$AAs?$AA?$CI?$AAs?$AAz?$AAL?$AAi?$AAn?$AAe@ 000000014004a430     libucrtd:dbgrptt.obj
 0002:0000b480       ??_C@_1BM@GIBPMLNL@?$AA?$CF?$AAl?$AAs?$AA?$CI?$AA?$CF?$AAd?$AA?$CJ?$AA?5?$AA?3?$AA?5?$AA?$CF?$AAl?$AAs@ 000000014004a480     libucrtd:dbgrptt.obj
 0002:0000b4a0       ??_C@_1JI@EACPGHID@?$AAw?$AAc?$AAs?$AAc?$AAp?$AAy?$AA_?$AAs?$AA?$CI?$AAs?$AAz?$AAO?$AAu?$AAt?$AAM@ 000000014004a4a0     libucrtd:dbgrptt.obj
 0002:0000b540       ??_C@_1FI@DBAIJPJE@?$AAw?$AAc?$AAs?$AAc?$AAp?$AAy?$AA_?$AAs?$AA?$CI?$AAs?$AAz?$AAO?$AAu?$AAt?$AAM@ 000000014004a540     libucrtd:dbgrptt.obj
 0002:0000b5a0       ??_C@_1IK@LEBMBAP@?$AAw?$AAc?$AAs?$AAt?$AAo?$AAm?$AAb?$AAs?$AA_?$AAs?$AA?$CI?$AAn?$AAu?$AAl?$AAl@ 000000014004a5a0     libucrtd:dbgrptt.obj
 0002:0000b630       ??_C@_1MA@LBAMNNOB@?$AAs?$AAt?$AAr?$AAc?$AAp?$AAy?$AA_?$AAs?$AA?$CI?$AAs?$AAz?$AAO?$AAu?$AAt?$AAM@ 000000014004a630     libucrtd:dbgrptt.obj
 0002:0000b6f0       ??_C@_0DP@GNPEPHJD@_CrtDbgReport?3?5String?5too?5long?5@ 000000014004a6f0     libucrtd:dbgrptt.obj
 0002:0000b730       ??_C@_1IE@CPGKIAGP@?$AAw?$AAc?$AAs?$AAt?$AAo?$AAm?$AAb?$AAs?$AA_?$AAs?$AA?$CI?$AA?$CG?$AAr?$AAe?$AAt@ 000000014004a730     libucrtd:dbgrptt.obj
 0002:0000c600       ??_C@_15EMKDOKLE@?$AAa?$AAr@ 000000014004b600     libucrtd:lcidtoname_downlevel.obj
 0002:0000c608       ??_C@_15KNPADPLH@?$AAb?$AAg@ 000000014004b608     libucrtd:lcidtoname_downlevel.obj
 0002:0000c610       ??_C@_15EDMHLDMO@?$AAc?$AAa@ 000000014004b610     libucrtd:lcidtoname_downlevel.obj
 0002:0000c618       ??_C@_1O@BPEAJADD@?$AAz?$AAh?$AA?9?$AAC?$AAH?$AAS@ 000000014004b618     libucrtd:lcidtoname_downlevel.obj
 0002:0000c628       ??_C@_15LJNHCMNK@?$AAc?$AAs@ 000000014004b628     libucrtd:lcidtoname_downlevel.obj
 0002:0000c630       ??_C@_15FOMCIDHG@?$AAd?$AAa@ 000000014004b630     libucrtd:lcidtoname_downlevel.obj
 0002:0000c638       ??_C@_15NBKABECB@?$AAd?$AAe@ 000000014004b638     libucrtd:lcidtoname_downlevel.obj
 0002:0000c640       ??_C@_15GHPEIIAO@?$AAe?$AAl@ 000000014004b640     libucrtd:lcidtoname_downlevel.obj
 0002:0000c648       ??_C@_15MNPNEAIF@?$AAe?$AAn@ 000000014004b648     libucrtd:lcidtoname_downlevel.obj
 0002:0000c650       ??_C@_15GPIOMPMH@?$AAe?$AAs@ 000000014004b650     libucrtd:lcidtoname_downlevel.obj
 0002:0000c658       ??_C@_15NGLOAKJC@?$AAf?$AAi@ 000000014004b658     libucrtd:lcidtoname_downlevel.obj
 0002:0000c660       ??_C@_15FBKGNKAM@?$AAf?$AAr@ 000000014004b660     libucrtd:lcidtoname_downlevel.obj
 0002:0000c668       ??_C@_15KGGCNEFK@?$AAh?$AAe@ 000000014004b668     libucrtd:lcidtoname_downlevel.obj
 0002:0000c670       ??_C@_15PGHLIDMF@?$AAh?$AAu@ 000000014004b670     libucrtd:lcidtoname_downlevel.obj
 0002:0000c678       ??_C@_15BIEMAPLM@?$AAi?$AAs@ 000000014004b678     libucrtd:lcidtoname_downlevel.obj
 0002:0000c680       ??_C@_15IFJLDHAF@?$AAi?$AAt@ 000000014004b680     libucrtd:lcidtoname_downlevel.obj
 0002:0000c688       ??_C@_15GEMIOCAG@?$AAj?$AAa@ 000000014004b688     libucrtd:lcidtoname_downlevel.obj
 0002:0000c690       ??_C@_15EPELEGJA@?$AAk?$AAo@ 000000014004b690     libucrtd:lcidtoname_downlevel.obj
 0002:0000c698       ??_C@_15NDDHIMN@?$AAn?$AAl@ 000000014004b698     libucrtd:lcidtoname_downlevel.obj
 0002:0000c6a0       ??_C@_15BPIGNHCD@?$AAn?$AAo@ 000000014004b6a0     libucrtd:lcidtoname_downlevel.obj
 0002:0000c6a8       ??_C@_15DEOPBLCG@?$AAp?$AAl@ 000000014004b6a8     libucrtd:lcidtoname_downlevel.obj
 0002:0000c6b0       ??_C@_15KBECGEFG@?$AAp?$AAt@ 000000014004b6b0     libucrtd:lcidtoname_downlevel.obj
 0002:0000c6b8       ??_C@_15GLJCBFMD@?$AAr?$AAo@ 000000014004b6b8     libucrtd:lcidtoname_downlevel.obj
 0002:0000c6c0       ??_C@_15FEDGKCDI@?$AAr?$AAu@ 000000014004b6c0     libucrtd:lcidtoname_downlevel.obj
 0002:0000c6c8       ??_C@_15GLKMLLHM@?$AAh?$AAr@ 000000014004b6c8     libucrtd:lcidtoname_downlevel.obj
 0002:0000c6d0       ??_C@_15CPKMFBDB@?$AAs?$AAk@ 000000014004b6d0     libucrtd:lcidtoname_downlevel.obj
 0002:0000c6d8       ??_C@_15BAAIOGMK@?$AAs?$AAq@ 000000014004b6d8     libucrtd:lcidtoname_downlevel.obj
 0002:0000c6e0       ??_C@_15INNPNOHD@?$AAs?$AAv@ 000000014004b6e0     libucrtd:lcidtoname_downlevel.obj
 0002:0000c6e8       ??_C@_15CABMMOGH@?$AAt?$AAh@ 000000014004b6e8     libucrtd:lcidtoname_downlevel.obj
 0002:0000c6f0       ??_C@_15BPLIHJJM@?$AAt?$AAr@ 000000014004b6f0     libucrtd:lcidtoname_downlevel.obj
 0002:0000c6f8       ??_C@_15NEOEKKDJ@?$AAu?$AAr@ 000000014004b6f8     libucrtd:lcidtoname_downlevel.obj
 0002:0000c700       ??_C@_15NFICGAJK@?$AAi?$AAd@ 000000014004b700     libucrtd:lcidtoname_downlevel.obj
 0002:0000c708       ??_C@_15HPJPHDM@?$AAb?$AAe@ 000000014004b708     libucrtd:lcidtoname_downlevel.obj
 0002:0000c710       ??_C@_15LCHLGJII@?$AAs?$AAl@ 000000014004b710     libucrtd:lcidtoname_downlevel.obj
 0002:0000c718       ??_C@_15PCFJPHHO@?$AAe?$AAt@ 000000014004b718     libucrtd:lcidtoname_downlevel.obj
 0002:0000c720       ??_C@_15HPFPGODN@?$AAl?$AAv@ 000000014004b720     libucrtd:lcidtoname_downlevel.obj
 0002:0000c728       ??_C@_15NFFGKGLG@?$AAl?$AAt@ 000000014004b728     libucrtd:lcidtoname_downlevel.obj
 0002:0000c730       ??_C@_15BDAKCCHN@?$AAf?$AAa@ 000000014004b730     libucrtd:lcidtoname_downlevel.obj
 0002:0000c738       ??_C@_15NFGIAIAJ@?$AAv?$AAi@ 000000014004b738     libucrtd:lcidtoname_downlevel.obj
 0002:0000c740       ??_C@_15LMKNDMHN@?$AAh?$AAy@ 000000014004b740     libucrtd:lcidtoname_downlevel.obj
 0002:0000c748       ??_C@_15IJBHMCFL@?$AAa?$AAz@ 000000014004b748     libucrtd:lcidtoname_downlevel.obj
 0002:0000c750       ??_C@_15EKOFJABL@?$AAe?$AAu@ 000000014004b750     libucrtd:lcidtoname_downlevel.obj
 0002:0000c758       ??_C@_15BGHADCNK@?$AAm?$AAk@ 000000014004b758     libucrtd:lcidtoname_downlevel.obj
 0002:0000c760       ??_C@_15JDNICKHM@?$AAa?$AAf@ 000000014004b760     libucrtd:lcidtoname_downlevel.obj
 0002:0000c768       ??_C@_15KPJEDBKD@?$AAk?$AAa@ 000000014004b768     libucrtd:lcidtoname_downlevel.obj
 0002:0000c770       ??_C@_15PDNFFFEO@?$AAf?$AAo@ 000000014004b770     libucrtd:lcidtoname_downlevel.obj
 0002:0000c778       ??_C@_15OMLEGLOC@?$AAh?$AAi@ 000000014004b778     libucrtd:lcidtoname_downlevel.obj
 0002:0000c780       ??_C@_15IDNNENKK@?$AAm?$AAs@ 000000014004b780     libucrtd:lcidtoname_downlevel.obj
 0002:0000c788       ??_C@_15MACJNBMH@?$AAk?$AAk@ 000000014004b788     libucrtd:lcidtoname_downlevel.obj
 0002:0000c790       ??_C@_15DKDJEOND@?$AAk?$AAy@ 000000014004b790     libucrtd:lcidtoname_downlevel.obj
 0002:0000c798       ??_C@_15DFGDLJBG@?$AAs?$AAw@ 000000014004b798     libucrtd:lcidtoname_downlevel.obj
 0002:0000c7a0       ??_C@_15BBFAICNG@?$AAu?$AAz@ 000000014004b7a0     libucrtd:lcidtoname_downlevel.obj
 0002:0000c7a8       ??_C@_15DKNDCGEA@?$AAt?$AAt@ 000000014004b7a8     libucrtd:lcidtoname_downlevel.obj
 0002:0000c7b0       ??_C@_15MGIFMDPL@?$AAp?$AAa@ 000000014004b7b0     libucrtd:lcidtoname_downlevel.obj
 0002:0000c7b8       ??_C@_15HCNDBBA@?$AAg?$AAu@ 000000014004b7b8     libucrtd:lcidtoname_downlevel.obj
 0002:0000c7c0       ??_C@_15FNBEIBON@?$AAt?$AAa@ 000000014004b7c0     libucrtd:lcidtoname_downlevel.obj
 0002:0000c7c8       ??_C@_15NCHGBGLK@?$AAt?$AAe@ 000000014004b7c8     libucrtd:lcidtoname_downlevel.obj
 0002:0000c7d0       ??_C@_15PHPHCBPF@?$AAk?$AAn@ 000000014004b7d0     libucrtd:lcidtoname_downlevel.obj
 0002:0000c7d8       ??_C@_15DLGBCKMP@?$AAm?$AAr@ 000000014004b7d8     libucrtd:lcidtoname_downlevel.obj
 0002:0000c7e0       ??_C@_15EABBLBFF@?$AAs?$AAa@ 000000014004b7e0     libucrtd:lcidtoname_downlevel.obj
 0002:0000c7e8       ??_C@_15CBKOMCOI@?$AAm?$AAn@ 000000014004b7e8     libucrtd:lcidtoname_downlevel.obj
 0002:0000c7f0       ??_C@_15CKDMCJAF@?$AAg?$AAl@ 000000014004b7f0     libucrtd:lcidtoname_downlevel.obj
 0002:0000c7f8       ??_C@_17CNJFBPG@?$AAk?$AAo?$AAk@ 000000014004b7f8     libucrtd:lcidtoname_downlevel.obj
 0002:0000c800       ??_C@_17FFBJICPL@?$AAs?$AAy?$AAr@ 000000014004b800     libucrtd:lcidtoname_downlevel.obj
 0002:0000c808       ??_C@_17KPNDCPAF@?$AAd?$AAi?$AAv@ 000000014004b808     libucrtd:lcidtoname_downlevel.obj
 0002:0000c810       ??_C@_1M@OKAHONE@?$AAa?$AAr?$AA?9?$AAS?$AAA@ 000000014004b810     libucrtd:lcidtoname_downlevel.obj
 0002:0000c820       ??_C@_1M@FFFIGIGK@?$AAb?$AAg?$AA?9?$AAB?$AAG@ 000000014004b820     libucrtd:lcidtoname_downlevel.obj
 0002:0000c830       ??_C@_1M@BJNKEDC@?$AAc?$AAa?$AA?9?$AAE?$AAS@ 000000014004b830     libucrtd:lcidtoname_downlevel.obj
 0002:0000c840       ??_C@_1M@IJJHFJHA@?$AAc?$AAs?$AA?9?$AAC?$AAZ@ 000000014004b840     libucrtd:lcidtoname_downlevel.obj
 0002:0000c850       ??_C@_1M@CLPEOBGI@?$AAd?$AAa?$AA?9?$AAD?$AAK@ 000000014004b850     libucrtd:lcidtoname_downlevel.obj
 0002:0000c860       ??_C@_1M@MCMADGCB@?$AAd?$AAe?$AA?9?$AAD?$AAE@ 000000014004b860     libucrtd:lcidtoname_downlevel.obj
 0002:0000c870       ??_C@_1M@OOCKEMAM@?$AAe?$AAl?$AA?9?$AAG?$AAR@ 000000014004b870     libucrtd:lcidtoname_downlevel.obj
 0002:0000c880       ??_C@_1M@DDNJFGID@?$AAf?$AAi?$AA?9?$AAF?$AAI@ 000000014004b880     libucrtd:lcidtoname_downlevel.obj
 0002:0000c890       ??_C@_1M@GLIPPMAC@?$AAf?$AAr?$AA?9?$AAF?$AAR@ 000000014004b890     libucrtd:lcidtoname_downlevel.obj
 0002:0000c8a0       ??_C@_1M@GFMCHPE@?$AAh?$AAe?$AA?9?$AAI?$AAL@ 000000014004b8a0     libucrtd:lcidtoname_downlevel.obj
 0002:0000c8b0       ??_C@_1M@MHLPGNKM@?$AAh?$AAu?$AA?9?$AAH?$AAU@ 000000014004b8b0     libucrtd:lcidtoname_downlevel.obj
 0002:0000c8c0       ??_C@_1M@LPDDNNPN@?$AAi?$AAs?$AA?9?$AAI?$AAS@ 000000014004b8c0     libucrtd:lcidtoname_downlevel.obj
 0002:0000c8d0       ??_C@_1M@MADIPODN@?$AAi?$AAt?$AA?9?$AAI?$AAT@ 000000014004b8d0     libucrtd:lcidtoname_downlevel.obj
 0002:0000c8e0       ??_C@_1M@IHBJJGG@?$AAn?$AAl?$AA?9?$AAN?$AAL@ 000000014004b8e0     libucrtd:lcidtoname_downlevel.obj
 0002:0000c8f0       ??_C@_1M@EANAGDL@?$AAn?$AAb?$AA?9?$AAN?$AAO@ 000000014004b8f0     libucrtd:lcidtoname_downlevel.obj
 0002:0000c900       ??_C@_1M@NEIEMEGP@?$AAp?$AAl?$AA?9?$AAP?$AAL@ 000000014004b900     libucrtd:lcidtoname_downlevel.obj
 0002:0000c910       ??_C@_1M@BOCFIGEP@?$AAp?$AAt?$AA?9?$AAB?$AAR@ 000000014004b910     libucrtd:lcidtoname_downlevel.obj
 0002:0000c920       ??_C@_1M@IMPFOPBG@?$AAr?$AAo?$AA?9?$AAR?$AAO@ 000000014004b920     libucrtd:lcidtoname_downlevel.obj
 0002:0000c930       ??_C@_1M@IDNNEJMM@?$AAr?$AAu?$AA?9?$AAR?$AAU@ 000000014004b930     libucrtd:lcidtoname_downlevel.obj
 0002:0000c940       ??_C@_1M@LILEEOGM@?$AAh?$AAr?$AA?9?$AAH?$AAR@ 000000014004b940     libucrtd:lcidtoname_downlevel.obj
 0002:0000c950       ??_C@_1M@FKIFEHPB@?$AAs?$AAk?$AA?9?$AAS?$AAK@ 000000014004b950     libucrtd:lcidtoname_downlevel.obj
 0002:0000c960       ??_C@_1M@LJMAMNPJ@?$AAs?$AAq?$AA?9?$AAA?$AAL@ 000000014004b960     libucrtd:lcidtoname_downlevel.obj
 0002:0000c970       ??_C@_1M@GIAKDKJK@?$AAs?$AAv?$AA?9?$AAS?$AAE@ 000000014004b970     libucrtd:lcidtoname_downlevel.obj
 0002:0000c980       ??_C@_1M@MKJKIKCL@?$AAt?$AAh?$AA?9?$AAT?$AAH@ 000000014004b980     libucrtd:lcidtoname_downlevel.obj
 0002:0000c990       ??_C@_1M@MFLCCMPB@?$AAt?$AAr?$AA?9?$AAT?$AAR@ 000000014004b990     libucrtd:lcidtoname_downlevel.obj
 0002:0000c9a0       ??_C@_1M@OIJHDKJN@?$AAu?$AAr?$AA?9?$AAP?$AAK@ 000000014004b9a0     libucrtd:lcidtoname_downlevel.obj
 0002:0000c9b0       ??_C@_1M@LHIPCIEK@?$AAi?$AAd?$AA?9?$AAI?$AAD@ 000000014004b9b0     libucrtd:lcidtoname_downlevel.obj
 0002:0000c9c0       ??_C@_1M@MFMOBGI@?$AAu?$AAk?$AA?9?$AAU?$AAA@ 000000014004b9c0     libucrtd:lcidtoname_downlevel.obj
 0002:0000c9d0       ??_C@_1M@OBGLJIPL@?$AAb?$AAe?$AA?9?$AAB?$AAY@ 000000014004b9d0     libucrtd:lcidtoname_downlevel.obj
 0002:0000c9e0       ??_C@_1M@BCFAJEAD@?$AAs?$AAl?$AA?9?$AAS?$AAI@ 000000014004b9e0     libucrtd:lcidtoname_downlevel.obj
 0002:0000c9f0       ??_C@_1M@FKFFEDDN@?$AAe?$AAt?$AA?9?$AAE?$AAE@ 000000014004b9f0     libucrtd:lcidtoname_downlevel.obj
 0002:0000ca00       ??_C@_1M@KGKKAACI@?$AAl?$AAv?$AA?9?$AAL?$AAV@ 000000014004ba00     libucrtd:lcidtoname_downlevel.obj
 0002:0000ca10       ??_C@_1M@IFGBIJO@?$AAl?$AAt?$AA?9?$AAL?$AAT@ 000000014004ba10     libucrtd:lcidtoname_downlevel.obj
 0002:0000ca20       ??_C@_1M@FGEAHEDM@?$AAf?$AAa?$AA?9?$AAI?$AAR@ 000000014004ba20     libucrtd:lcidtoname_downlevel.obj
 0002:0000ca30       ??_C@_1M@KBMAIBFN@?$AAv?$AAi?$AA?9?$AAV?$AAN@ 000000014004ba30     libucrtd:lcidtoname_downlevel.obj
 0002:0000ca40       ??_C@_1M@GPCBKDJK@?$AAh?$AAy?$AA?9?$AAA?$AAM@ 000000014004ba40     libucrtd:lcidtoname_downlevel.obj
 0002:0000ca50       ??_C@_1BG@BECMDDJB@?$AAa?$AAz?$AA?9?$AAA?$AAZ?$AA?9?$AAL?$AAa?$AAt?$AAn@ 000000014004ba50     libucrtd:lcidtoname_downlevel.obj
 0002:0000ca68       ??_C@_1M@MAOFCAEA@?$AAe?$AAu?$AA?9?$AAE?$AAS@ 000000014004ba68     libucrtd:lcidtoname_downlevel.obj
 0002:0000ca78       ??_C@_1M@IGHABKPI@?$AAm?$AAk?$AA?9?$AAM?$AAK@ 000000014004ba78     libucrtd:lcidtoname_downlevel.obj
 0002:0000ca88       ??_C@_1M@IAIGNEJG@?$AAt?$AAn?$AA?9?$AAZ?$AAA@ 000000014004ba88     libucrtd:lcidtoname_downlevel.obj
 0002:0000ca98       ??_C@_1M@IIJCOJFA@?$AAx?$AAh?$AA?9?$AAZ?$AAA@ 000000014004ba98     libucrtd:lcidtoname_downlevel.obj
 0002:0000caa8       ??_C@_1M@LGPJHNJH@?$AAz?$AAu?$AA?9?$AAZ?$AAA@ 000000014004baa8     libucrtd:lcidtoname_downlevel.obj
 0002:0000cab8       ??_C@_1M@HOKAOIO@?$AAa?$AAf?$AA?9?$AAZ?$AAA@ 000000014004bab8     libucrtd:lcidtoname_downlevel.obj
 0002:0000cac8       ??_C@_1M@DPCLHLIE@?$AAk?$AAa?$AA?9?$AAG?$AAE@ 000000014004bac8     libucrtd:lcidtoname_downlevel.obj
 0002:0000cad8       ??_C@_1M@BLKMHJBI@?$AAf?$AAo?$AA?9?$AAF?$AAO@ 000000014004bad8     libucrtd:lcidtoname_downlevel.obj
 0002:0000cae8       ??_C@_1M@LGGJAPPB@?$AAh?$AAi?$AA?9?$AAI?$AAN@ 000000014004bae8     libucrtd:lcidtoname_downlevel.obj
 0002:0000caf8       ??_C@_1M@FIKPIHFE@?$AAm?$AAt?$AA?9?$AAM?$AAT@ 000000014004baf8     libucrtd:lcidtoname_downlevel.obj
 0002:0000cb08       ??_C@_1M@HEGGPBFA@?$AAs?$AAe?$AA?9?$AAN?$AAO@ 000000014004bb08     libucrtd:lcidtoname_downlevel.obj
 0002:0000cb18       ??_C@_1M@EIBJEEPA@?$AAm?$AAs?$AA?9?$AAM?$AAY@ 000000014004bb18     libucrtd:lcidtoname_downlevel.obj
 0002:0000cb28       ??_C@_1M@FHLBGMPP@?$AAk?$AAk?$AA?9?$AAK?$AAZ@ 000000014004bb28     libucrtd:lcidtoname_downlevel.obj
 0002:0000cb38       ??_C@_1M@NGJJLCGI@?$AAk?$AAy?$AA?9?$AAK?$AAG@ 000000014004bb38     libucrtd:lcidtoname_downlevel.obj
 0002:0000cb48       ??_C@_1M@GIENNBFC@?$AAs?$AAw?$AA?9?$AAK?$AAE@ 000000014004bb48     libucrtd:lcidtoname_downlevel.obj
 0002:0000cb58       ??_C@_1BG@NDGMJIMJ@?$AAu?$AAz?$AA?9?$AAU?$AAZ?$AA?9?$AAL?$AAa?$AAt?$AAn@ 000000014004bb58     libucrtd:lcidtoname_downlevel.obj
 0002:0000cb70       ??_C@_1M@IDCCIHBC@?$AAt?$AAt?$AA?9?$AAR?$AAU@ 000000014004bb70     libucrtd:lcidtoname_downlevel.obj
 0002:0000cb80       ??_C@_1M@LOICPMOJ@?$AAb?$AAn?$AA?9?$AAI?$AAN@ 000000014004bb80     libucrtd:lcidtoname_downlevel.obj
 0002:0000cb90       ??_C@_1M@KPKKNEAH@?$AAp?$AAa?$AA?9?$AAI?$AAN@ 000000014004bb90     libucrtd:lcidtoname_downlevel.obj
 0002:0000cba0       ??_C@_1M@PJGPPBOG@?$AAg?$AAu?$AA?9?$AAI?$AAN@ 000000014004bba0     libucrtd:lcidtoname_downlevel.obj
 0002:0000cbb0       ??_C@_1M@KMKMOPHI@?$AAt?$AAa?$AA?9?$AAI?$AAN@ 000000014004bbb0     libucrtd:lcidtoname_downlevel.obj
 0002:0000cbc0       ??_C@_1M@KFEHEPAC@?$AAt?$AAe?$AA?9?$AAI?$AAN@ 000000014004bbc0     libucrtd:lcidtoname_downlevel.obj
 0002:0000cbd0       ??_C@_1M@CDCLMGHI@?$AAk?$AAn?$AA?9?$AAI?$AAN@ 000000014004bbd0     libucrtd:lcidtoname_downlevel.obj
 0002:0000cbe0       ??_C@_1M@MIODLDKF@?$AAm?$AAl?$AA?9?$AAI?$AAN@ 000000014004bbe0     libucrtd:lcidtoname_downlevel.obj
 0002:0000cbf0       ??_C@_1M@PBIEACPO@?$AAm?$AAr?$AA?9?$AAI?$AAN@ 000000014004bbf0     libucrtd:lcidtoname_downlevel.obj
 0002:0000cc00       ??_C@_1M@NIDEAGPH@?$AAs?$AAa?$AA?9?$AAI?$AAN@ 000000014004bc00     libucrtd:lcidtoname_downlevel.obj
 0002:0000cc10       ??_C@_1M@FHIHCBIO@?$AAm?$AAn?$AA?9?$AAM?$AAN@ 000000014004bc10     libucrtd:lcidtoname_downlevel.obj
 0002:0000cc20       ??_C@_1M@JAIJPENP@?$AAc?$AAy?$AA?9?$AAG?$AAB@ 000000014004bc20     libucrtd:lcidtoname_downlevel.obj
 0002:0000cc30       ??_C@_1M@PHGFBEPN@?$AAg?$AAl?$AA?9?$AAE?$AAS@ 000000014004bc30     libucrtd:lcidtoname_downlevel.obj
 0002:0000cc40       ??_C@_1O@KPIPDNCP@?$AAk?$AAo?$AAk?$AA?9?$AAI?$AAN@ 000000014004bc40     libucrtd:lcidtoname_downlevel.obj
 0002:0000cc50       ??_C@_1O@KNHJLDJA@?$AAs?$AAy?$AAr?$AA?9?$AAS?$AAY@ 000000014004bc50     libucrtd:lcidtoname_downlevel.obj
 0002:0000cc60       ??_C@_1O@MKEKBLAH@?$AAd?$AAi?$AAv?$AA?9?$AAM?$AAV@ 000000014004bc60     libucrtd:lcidtoname_downlevel.obj
 0002:0000cc70       ??_C@_1O@OHDCKDDF@?$AAq?$AAu?$AAz?$AA?9?$AAB?$AAO@ 000000014004bc70     libucrtd:lcidtoname_downlevel.obj
 0002:0000cc80       ??_C@_1M@LEPJNLFD@?$AAn?$AAs?$AA?9?$AAZ?$AAA@ 000000014004bc80     libucrtd:lcidtoname_downlevel.obj
 0002:0000cc90       ??_C@_1M@OMLEIIJB@?$AAm?$AAi?$AA?9?$AAN?$AAZ@ 000000014004bc90     libucrtd:lcidtoname_downlevel.obj
 0002:0000cca0       ??_C@_1M@PMPEAILG@?$AAa?$AAr?$AA?9?$AAI?$AAQ@ 000000014004bca0     libucrtd:lcidtoname_downlevel.obj
 0002:0000ccb0       ??_C@_1M@CNKPNOEE@?$AAd?$AAe?$AA?9?$AAC?$AAH@ 000000014004bcb0     libucrtd:lcidtoname_downlevel.obj
 0002:0000ccc0       ??_C@_1M@LKMGMLKO@?$AAe?$AAn?$AA?9?$AAG?$AAB@ 000000014004bcc0     libucrtd:lcidtoname_downlevel.obj
 0002:0000ccd0       ??_C@_1M@PGKJFFGL@?$AAe?$AAs?$AA?9?$AAM?$AAX@ 000000014004bcd0     libucrtd:lcidtoname_downlevel.obj
 0002:0000cce0       ??_C@_1M@DNNANBDC@?$AAf?$AAr?$AA?9?$AAB?$AAE@ 000000014004bce0     libucrtd:lcidtoname_downlevel.obj
 0002:0000ccf0       ??_C@_1M@HLGMDFHM@?$AAi?$AAt?$AA?9?$AAC?$AAH@ 000000014004bcf0     libucrtd:lcidtoname_downlevel.obj
 0002:0000cd00       ??_C@_1M@CLLBGJH@?$AAn?$AAl?$AA?9?$AAB?$AAE@ 000000014004bd00     libucrtd:lcidtoname_downlevel.obj
 0002:0000cd10       ??_C@_1M@BODBOGLF@?$AAn?$AAn?$AA?9?$AAN?$AAO@ 000000014004bd10     libucrtd:lcidtoname_downlevel.obj
 0002:0000cd20       ??_C@_1M@HFFAHKAD@?$AAp?$AAt?$AA?9?$AAP?$AAT@ 000000014004bd20     libucrtd:lcidtoname_downlevel.obj
 0002:0000cd30       ??_C@_1BG@LNOAKHIE@?$AAs?$AAr?$AA?9?$AAS?$AAP?$AA?9?$AAL?$AAa?$AAt?$AAn@ 000000014004bd30     libucrtd:lcidtoname_downlevel.obj
 0002:0000cd48       ??_C@_1M@HBMHBGAK@?$AAs?$AAv?$AA?9?$AAF?$AAI@ 000000014004bd48     libucrtd:lcidtoname_downlevel.obj
 0002:0000cd58       ??_C@_1BG@DGCJGJBE@?$AAa?$AAz?$AA?9?$AAA?$AAZ?$AA?9?$AAC?$AAy?$AAr?$AAl@ 000000014004bd58     libucrtd:lcidtoname_downlevel.obj
 0002:0000cd70       ??_C@_1M@KEJDAAHB@?$AAs?$AAe?$AA?9?$AAS?$AAE@ 000000014004bd70     libucrtd:lcidtoname_downlevel.obj
 0002:0000cd80       ??_C@_1M@HEIBJJAD@?$AAm?$AAs?$AA?9?$AAB?$AAN@ 000000014004bd80     libucrtd:lcidtoname_downlevel.obj
 0002:0000cd90       ??_C@_1BG@PBGJMCEM@?$AAu?$AAz?$AA?9?$AAU?$AAZ?$AA?9?$AAC?$AAy?$AAr?$AAl@ 000000014004bd90     libucrtd:lcidtoname_downlevel.obj
 0002:0000cda8       ??_C@_1O@LAOBCMDF@?$AAq?$AAu?$AAz?$AA?9?$AAE?$AAC@ 000000014004bda8     libucrtd:lcidtoname_downlevel.obj
 0002:0000cdb8       ??_C@_1M@POEEMAIO@?$AAa?$AAr?$AA?9?$AAE?$AAG@ 000000014004bdb8     libucrtd:lcidtoname_downlevel.obj
 0002:0000cdc8       ??_C@_1M@EFAKDEDL@?$AAz?$AAh?$AA?9?$AAH?$AAK@ 000000014004bdc8     libucrtd:lcidtoname_downlevel.obj
 0002:0000cdd8       ??_C@_1M@HKKIJHGI@?$AAd?$AAe?$AA?9?$AAA?$AAT@ 000000014004bdd8     libucrtd:lcidtoname_downlevel.obj
 0002:0000cde8       ??_C@_1M@KBFBEHJF@?$AAe?$AAn?$AA?9?$AAA?$AAU@ 000000014004bde8     libucrtd:lcidtoname_downlevel.obj
 0002:0000cdf8       ??_C@_1M@MNPLFAAH@?$AAe?$AAs?$AA?9?$AAE?$AAS@ 000000014004bdf8     libucrtd:lcidtoname_downlevel.obj
 0002:0000ce08       ??_C@_1M@HJOOJFMA@?$AAf?$AAr?$AA?9?$AAC?$AAA@ 000000014004be08     libucrtd:lcidtoname_downlevel.obj
 0002:0000ce18       ??_C@_1BG@JPOFPNAB@?$AAs?$AAr?$AA?9?$AAS?$AAP?$AA?9?$AAC?$AAy?$AAr?$AAl@ 000000014004be18     libucrtd:lcidtoname_downlevel.obj
 0002:0000ce30       ??_C@_1M@LNFOCMOB@?$AAs?$AAe?$AA?9?$AAF?$AAI@ 000000014004be30     libucrtd:lcidtoname_downlevel.obj
 0002:0000ce40       ??_C@_1O@MGJBOAMB@?$AAq?$AAu?$AAz?$AA?9?$AAP?$AAE@ 000000014004be40     libucrtd:lcidtoname_downlevel.obj
 0002:0000ce50       ??_C@_1M@GJINLBOK@?$AAa?$AAr?$AA?9?$AAL?$AAY@ 000000014004be50     libucrtd:lcidtoname_downlevel.obj
 0002:0000ce60       ??_C@_1M@GGMNHJNL@?$AAz?$AAh?$AA?9?$AAS?$AAG@ 000000014004be60     libucrtd:lcidtoname_downlevel.obj
 0002:0000ce70       ??_C@_1M@HOIKODND@?$AAd?$AAe?$AA?9?$AAL?$AAU@ 000000014004be70     libucrtd:lcidtoname_downlevel.obj
 0002:0000ce80       ??_C@_1M@DDOCCGFG@?$AAe?$AAn?$AA?9?$AAC?$AAA@ 000000014004be80     libucrtd:lcidtoname_downlevel.obj
 0002:0000ce90       ??_C@_1M@BNOEMJLF@?$AAe?$AAs?$AA?9?$AAG?$AAT@ 000000014004be90     libucrtd:lcidtoname_downlevel.obj
 0002:0000cea0       ??_C@_1M@EOGNKEK@?$AAf?$AAr?$AA?9?$AAC?$AAH@ 000000014004bea0     libucrtd:lcidtoname_downlevel.obj
 0002:0000ceb0       ??_C@_1M@FLIDJFHL@?$AAh?$AAr?$AA?9?$AAB?$AAA@ 000000014004beb0     libucrtd:lcidtoname_downlevel.obj
 0002:0000cec0       ??_C@_1O@FMCELNAJ@?$AAs?$AAm?$AAj?$AA?9?$AAN?$AAO@ 000000014004bec0     libucrtd:lcidtoname_downlevel.obj
 0002:0000ced0       ??_C@_1M@JHGLJMGJ@?$AAa?$AAr?$AA?9?$AAD?$AAZ@ 000000014004bed0     libucrtd:lcidtoname_downlevel.obj
 0002:0000cee0       ??_C@_1M@JKKFDCNP@?$AAz?$AAh?$AA?9?$AAM?$AAO@ 000000014004bee0     libucrtd:lcidtoname_downlevel.obj
 0002:0000cef0       ??_C@_1M@GEEFALPE@?$AAd?$AAe?$AA?9?$AAL?$AAI@ 000000014004bef0     libucrtd:lcidtoname_downlevel.obj
 0002:0000cf00       ??_C@_1M@IGEOFBG@?$AAe?$AAn?$AA?9?$AAN?$AAZ@ 000000014004bf00     libucrtd:lcidtoname_downlevel.obj
 0002:0000cf10       ??_C@_1M@KDBONEHP@?$AAe?$AAs?$AA?9?$AAC?$AAR@ 000000014004bf10     libucrtd:lcidtoname_downlevel.obj
 0002:0000cf20       ??_C@_1M@FHMDOHNN@?$AAf?$AAr?$AA?9?$AAL?$AAU@ 000000014004bf20     libucrtd:lcidtoname_downlevel.obj
 0002:0000cf30       ??_C@_1BG@NFKKMAFG@?$AAb?$AAs?$AA?9?$AAB?$AAA?$AA?9?$AAL?$AAa?$AAt?$AAn@ 000000014004bf30     libucrtd:lcidtoname_downlevel.obj
 0002:0000cf48       ??_C@_1O@IMNBEMCI@?$AAs?$AAm?$AAj?$AA?9?$AAS?$AAE@ 000000014004bf48     libucrtd:lcidtoname_downlevel.obj
 0002:0000cf58       ??_C@_1M@DHHMBNDP@?$AAa?$AAr?$AA?9?$AAM?$AAA@ 000000014004bf58     libucrtd:lcidtoname_downlevel.obj
 0002:0000cf68       ??_C@_1M@BNBLJCGH@?$AAe?$AAn?$AA?9?$AAI?$AAE@ 000000014004bf68     libucrtd:lcidtoname_downlevel.obj
 0002:0000cf78       ??_C@_1M@GEPAFMDL@?$AAe?$AAs?$AA?9?$AAP?$AAA@ 000000014004bf78     libucrtd:lcidtoname_downlevel.obj
 0002:0000cf88       ??_C@_1M@OJONDMDL@?$AAf?$AAr?$AA?9?$AAM?$AAC@ 000000014004bf88     libucrtd:lcidtoname_downlevel.obj
 0002:0000cf98       ??_C@_1BG@OBCNFJB@?$AAs?$AAr?$AA?9?$AAB?$AAA?$AA?9?$AAL?$AAa?$AAt?$AAn@ 000000014004bf98     libucrtd:lcidtoname_downlevel.obj
 0002:0000cfb0       ??_C@_1O@KEMEEGPO@?$AAs?$AAm?$AAa?$AA?9?$AAN?$AAO@ 000000014004bfb0     libucrtd:lcidtoname_downlevel.obj
 0002:0000cfc0       ??_C@_1M@ELMGFODK@?$AAa?$AAr?$AA?9?$AAT?$AAN@ 000000014004bfc0     libucrtd:lcidtoname_downlevel.obj
 0002:0000cfd0       ??_C@_1M@BHDLHFAF@?$AAe?$AAn?$AA?9?$AAZ?$AAA@ 000000014004bfd0     libucrtd:lcidtoname_downlevel.obj
 0002:0000cfe0       ??_C@_1M@BMGIGLIF@?$AAe?$AAs?$AA?9?$AAD?$AAO@ 000000014004bfe0     libucrtd:lcidtoname_downlevel.obj
 0002:0000cff0       ??_C@_1BG@CMBHIPBE@?$AAs?$AAr?$AA?9?$AAB?$AAA?$AA?9?$AAC?$AAy?$AAr?$AAl@ 000000014004bff0     libucrtd:lcidtoname_downlevel.obj
 0002:0000d008       ??_C@_1O@HEDBLHNP@?$AAs?$AAm?$AAa?$AA?9?$AAS?$AAE@ 000000014004c008     libucrtd:lcidtoname_downlevel.obj
 0002:0000d018       ??_C@_1M@DAGCADIM@?$AAa?$AAr?$AA?9?$AAO?$AAM@ 000000014004c018     libucrtd:lcidtoname_downlevel.obj
 0002:0000d028       ??_C@_1M@FODLMICG@?$AAe?$AAn?$AA?9?$AAJ?$AAM@ 000000014004c028     libucrtd:lcidtoname_downlevel.obj
 0002:0000d038       ??_C@_1M@DNMLCIHB@?$AAe?$AAs?$AA?9?$AAV?$AAE@ 000000014004c038     libucrtd:lcidtoname_downlevel.obj
 0002:0000d048       ??_C@_1O@EOKHMKJK@?$AAs?$AAm?$AAs?$AA?9?$AAF?$AAI@ 000000014004c048     libucrtd:lcidtoname_downlevel.obj
 0002:0000d058       ??_C@_1M@CAFJMKOF@?$AAa?$AAr?$AA?9?$AAY?$AAE@ 000000014004c058     libucrtd:lcidtoname_downlevel.obj
 0002:0000d068       ??_C@_1M@CBFHIJLI@?$AAe?$AAn?$AA?9?$AAC?$AAB@ 000000014004c068     libucrtd:lcidtoname_downlevel.obj
 0002:0000d078       ??_C@_1M@BGNFLDN@?$AAe?$AAs?$AA?9?$AAC?$AAO@ 000000014004c078     libucrtd:lcidtoname_downlevel.obj
 0002:0000d088       ??_C@_1O@JMPHMAMC@?$AAs?$AAm?$AAn?$AA?9?$AAF?$AAI@ 000000014004c088     libucrtd:lcidtoname_downlevel.obj
 0002:0000d098       ??_C@_1M@JLANABKE@?$AAa?$AAr?$AA?9?$AAS?$AAY@ 000000014004c098     libucrtd:lcidtoname_downlevel.obj
 0002:0000d0a8       ??_C@_1M@HPKGCFGN@?$AAe?$AAn?$AA?9?$AAB?$AAZ@ 000000014004c0a8     libucrtd:lcidtoname_downlevel.obj
 0002:0000d0b8       ??_C@_1M@OLJCMLGM@?$AAe?$AAs?$AA?9?$AAP?$AAE@ 000000014004c0b8     libucrtd:lcidtoname_downlevel.obj
 0002:0000d0c8       ??_C@_1M@MKKGFKLE@?$AAa?$AAr?$AA?9?$AAJ?$AAO@ 000000014004c0c8     libucrtd:lcidtoname_downlevel.obj
 0002:0000d0d8       ??_C@_1M@EKPGLDNI@?$AAe?$AAn?$AA?9?$AAT?$AAT@ 000000014004c0d8     libucrtd:lcidtoname_downlevel.obj
 0002:0000d0e8       ??_C@_1M@OONGHFHE@?$AAe?$AAs?$AA?9?$AAA?$AAR@ 000000014004c0e8     libucrtd:lcidtoname_downlevel.obj
 0002:0000d0f8       ??_C@_1M@OOJFGBHE@?$AAa?$AAr?$AA?9?$AAL?$AAB@ 000000014004c0f8     libucrtd:lcidtoname_downlevel.obj
 0002:0000d108       ??_C@_1M@GCEJHNEG@?$AAe?$AAn?$AA?9?$AAZ?$AAW@ 000000014004c108     libucrtd:lcidtoname_downlevel.obj
 0002:0000d118       ??_C@_1M@JNOCAHJI@?$AAe?$AAs?$AA?9?$AAE?$AAC@ 000000014004c118     libucrtd:lcidtoname_downlevel.obj
 0002:0000d128       ??_C@_1M@JEFHPGGB@?$AAa?$AAr?$AA?9?$AAK?$AAW@ 000000014004c128     libucrtd:lcidtoname_downlevel.obj
 0002:0000d138       ??_C@_1M@MLKIBJOJ@?$AAe?$AAn?$AA?9?$AAP?$AAH@ 000000014004c138     libucrtd:lcidtoname_downlevel.obj
 0002:0000d148       ??_C@_1M@BDNIPEND@?$AAe?$AAs?$AA?9?$AAC?$AAL@ 000000014004c148     libucrtd:lcidtoname_downlevel.obj
 0002:0000d158       ??_C@_1M@MPNMEKBD@?$AAa?$AAr?$AA?9?$AAA?$AAE@ 000000014004c158     libucrtd:lcidtoname_downlevel.obj
 0002:0000d168       ??_C@_1M@KBJALCPI@?$AAe?$AAs?$AA?9?$AAU?$AAY@ 000000014004c168     libucrtd:lcidtoname_downlevel.obj
 0002:0000d178       ??_C@_1M@LLCCOAGA@?$AAa?$AAr?$AA?9?$AAB?$AAH@ 000000014004c178     libucrtd:lcidtoname_downlevel.obj
 0002:0000d188       ??_C@_1M@PBFNCDEL@?$AAe?$AAs?$AA?9?$AAP?$AAY@ 000000014004c188     libucrtd:lcidtoname_downlevel.obj
 0002:0000d198       ??_C@_1M@EDGINPNP@?$AAa?$AAr?$AA?9?$AAQ?$AAA@ 000000014004c198     libucrtd:lcidtoname_downlevel.obj
 0002:0000d1a8       ??_C@_1M@MKDBIIJI@?$AAe?$AAs?$AA?9?$AAB?$AAO@ 000000014004c1a8     libucrtd:lcidtoname_downlevel.obj
 0002:0000d1b8       ??_C@_1M@CPKKEBLD@?$AAe?$AAs?$AA?9?$AAS?$AAV@ 000000014004c1b8     libucrtd:lcidtoname_downlevel.obj
 0002:0000d1c8       ??_C@_1M@NDBGMMJL@?$AAe?$AAs?$AA?9?$AAH?$AAN@ 000000014004c1c8     libucrtd:lcidtoname_downlevel.obj
 0002:0000d1d8       ??_C@_1M@JIJIBHDP@?$AAe?$AAs?$AA?9?$AAN?$AAI@ 000000014004c1d8     libucrtd:lcidtoname_downlevel.obj
 0002:0000d1e8       ??_C@_1M@CGFMKEEK@?$AAe?$AAs?$AA?9?$AAP?$AAR@ 000000014004c1e8     libucrtd:lcidtoname_downlevel.obj
 0002:0000d1f8       ??_C@_1O@ICJHKIIK@?$AAz?$AAh?$AA?9?$AAC?$AAH?$AAT@ 000000014004c1f8     libucrtd:lcidtoname_downlevel.obj
 0002:0000d208       ??_C@_15CLNEJCE@?$AAs?$AAr@ 000000014004c208     libucrtd:lcidtoname_downlevel.obj
 0002:0000e050       ??_C@_1M@KAHEKEIG@?$AAa?$AAf?$AA?9?$AAz?$AAa@ 000000014004d050     libucrtd:lcidtoname_downlevel.obj
 0002:0000e060       ??_C@_1M@GIECOABL@?$AAa?$AAr?$AA?9?$AAa?$AAe@ 000000014004d060     libucrtd:lcidtoname_downlevel.obj
 0002:0000e070       ??_C@_1M@BMLMEKGI@?$AAa?$AAr?$AA?9?$AAb?$AAh@ 000000014004d070     libucrtd:lcidtoname_downlevel.obj
 0002:0000e080       ??_C@_1M@DAPFDGGB@?$AAa?$AAr?$AA?9?$AAd?$AAz@ 000000014004d080     libucrtd:lcidtoname_downlevel.obj
 0002:0000e090       ??_C@_1M@FJNKGKIG@?$AAa?$AAr?$AA?9?$AAe?$AAg@ 000000014004d090     libucrtd:lcidtoname_downlevel.obj
 0002:0000e0a0       ??_C@_1M@FLGKKCLO@?$AAa?$AAr?$AA?9?$AAi?$AAq@ 000000014004d0a0     libucrtd:lcidtoname_downlevel.obj
 0002:0000e0b0       ??_C@_1M@GNDIPALM@?$AAa?$AAr?$AA?9?$AAj?$AAo@ 000000014004d0b0     libucrtd:lcidtoname_downlevel.obj
 0002:0000e0c0       ??_C@_1M@DDMJFMGJ@?$AAa?$AAr?$AA?9?$AAk?$AAw@ 000000014004d0c0     libucrtd:lcidtoname_downlevel.obj
 0002:0000e0d0       ??_C@_1M@EJALMLHM@?$AAa?$AAr?$AA?9?$AAl?$AAb@ 000000014004d0d0     libucrtd:lcidtoname_downlevel.obj
 0002:0000e0e0       ??_C@_1M@MOBDBLOC@?$AAa?$AAr?$AA?9?$AAl?$AAy@ 000000014004d0e0     libucrtd:lcidtoname_downlevel.obj
 0002:0000e0f0       ??_C@_1M@JAOCLHDH@?$AAa?$AAr?$AA?9?$AAm?$AAa@ 000000014004d0f0     libucrtd:lcidtoname_downlevel.obj
 0002:0000e100       ??_C@_1M@JHPMKJIE@?$AAa?$AAr?$AA?9?$AAo?$AAm@ 000000014004d100     libucrtd:lcidtoname_downlevel.obj
 0002:0000e110       ??_C@_1M@OEPGHFNH@?$AAa?$AAr?$AA?9?$AAq?$AAa@ 000000014004d110     libucrtd:lcidtoname_downlevel.obj
 0002:0000e120       ??_C@_1M@KJDONENM@?$AAa?$AAr?$AA?9?$AAs?$AAa@ 000000014004d120     libucrtd:lcidtoname_downlevel.obj
 0002:0000e130       ??_C@_1M@DMJDKLKM@?$AAa?$AAr?$AA?9?$AAs?$AAy@ 000000014004d130     libucrtd:lcidtoname_downlevel.obj
 0002:0000e140       ??_C@_1M@OMFIPEDC@?$AAa?$AAr?$AA?9?$AAt?$AAn@ 000000014004d140     libucrtd:lcidtoname_downlevel.obj
 0002:0000e150       ??_C@_1M@IHMHGAON@?$AAa?$AAr?$AA?9?$AAy?$AAe@ 000000014004d150     libucrtd:lcidtoname_downlevel.obj
 0002:0000e160       ??_C@_1BG@KDCPGJGB@?$AAa?$AAz?$AA?9?$AAa?$AAz?$AA?9?$AAc?$AAy?$AAr?$AAl@ 000000014004d160     libucrtd:lcidtoname_downlevel.obj
 0002:0000e178       ??_C@_1BG@IBCKDDOE@?$AAa?$AAz?$AA?9?$AAa?$AAz?$AA?9?$AAl?$AAa?$AAt?$AAn@ 000000014004d178     libucrtd:lcidtoname_downlevel.obj
 0002:0000e190       ??_C@_1M@EGPFDCPD@?$AAb?$AAe?$AA?9?$AAb?$AAy@ 000000014004d190     libucrtd:lcidtoname_downlevel.obj
 0002:0000e1a0       ??_C@_1M@PCMGMCGC@?$AAb?$AAg?$AA?9?$AAb?$AAg@ 000000014004d1a0     libucrtd:lcidtoname_downlevel.obj
 0002:0000e1b0       ??_C@_1M@BJBMFGOB@?$AAb?$AAn?$AA?9?$AAi?$AAn@ 000000014004d1b0     libucrtd:lcidtoname_downlevel.obj
 0002:0000e1c0       ??_C@_1BG@EAKMMACD@?$AAb?$AAs?$AA?9?$AAb?$AAa?$AA?9?$AAl?$AAa?$AAt?$AAn@ 000000014004d1c0     libucrtd:lcidtoname_downlevel.obj
 0002:0000e1d8       ??_C@_1M@KGADAODK@?$AAc?$AAa?$AA?9?$AAe?$AAs@ 000000014004d1d8     libucrtd:lcidtoname_downlevel.obj
 0002:0000e1e8       ??_C@_1M@COAJPDHI@?$AAc?$AAs?$AA?9?$AAc?$AAz@ 000000014004d1e8     libucrtd:lcidtoname_downlevel.obj
 0002:0000e1f8       ??_C@_1M@DHBHFONH@?$AAc?$AAy?$AA?9?$AAg?$AAb@ 000000014004d1f8     libucrtd:lcidtoname_downlevel.obj
 0002:0000e208       ??_C@_1M@IMGKELGA@?$AAd?$AAa?$AA?9?$AAd?$AAk@ 000000014004d208     libucrtd:lcidtoname_downlevel.obj
 0002:0000e218       ??_C@_1M@NNDGDNGA@?$AAd?$AAe?$AA?9?$AAa?$AAt@ 000000014004d218     libucrtd:lcidtoname_downlevel.obj
 0002:0000e228       ??_C@_1M@IKDBHEEM@?$AAd?$AAe?$AA?9?$AAc?$AAh@ 000000014004d228     libucrtd:lcidtoname_downlevel.obj
 0002:0000e238       ??_C@_1M@GFFOJMCJ@?$AAd?$AAe?$AA?9?$AAd?$AAe@ 000000014004d238     libucrtd:lcidtoname_downlevel.obj
 0002:0000e248       ??_C@_1M@MDNLKBPM@?$AAd?$AAe?$AA?9?$AAl?$AAi@ 000000014004d248     libucrtd:lcidtoname_downlevel.obj
 0002:0000e258       ??_C@_1M@NJBEEJNL@?$AAd?$AAe?$AA?9?$AAl?$AAu@ 000000014004d258     libucrtd:lcidtoname_downlevel.obj
 0002:0000e268       ??_C@_1O@GNNELBAP@?$AAd?$AAi?$AAv?$AA?9?$AAm?$AAv@ 000000014004d268     libucrtd:lcidtoname_downlevel.obj
 0002:0000e278       ??_C@_1M@EJLEOGAE@?$AAe?$AAl?$AA?9?$AAg?$AAr@ 000000014004d278     libucrtd:lcidtoname_downlevel.obj
 0002:0000e288       ??_C@_1M@GMPONJN@?$AAe?$AAn?$AA?9?$AAa?$AAu@ 000000014004d288     libucrtd:lcidtoname_downlevel.obj
 0002:0000e298       ??_C@_1M@NIDIIPGF@?$AAe?$AAn?$AA?9?$AAb?$AAz@ 000000014004d298     libucrtd:lcidtoname_downlevel.obj
 0002:0000e2a8       ??_C@_1M@JEHMIMFO@?$AAe?$AAn?$AA?9?$AAc?$AAa@ 000000014004d2a8     libucrtd:lcidtoname_downlevel.obj
 0002:0000e2b8       ??_C@_1M@IGMJCDLA@?$AAe?$AAn?$AA?9?$AAc?$AAb@ 000000014004d2b8     libucrtd:lcidtoname_downlevel.obj
 0002:0000e2c8       ??_C@_1M@BNFIGBKG@?$AAe?$AAn?$AA?9?$AAg?$AAb@ 000000014004d2c8     libucrtd:lcidtoname_downlevel.obj
 0002:0000e2d8       ??_C@_1M@LKIFDIGP@?$AAe?$AAn?$AA?9?$AAi?$AAe@ 000000014004d2d8     libucrtd:lcidtoname_downlevel.obj
 0002:0000e2e8       ??_C@_1M@PJKFGCCO@?$AAe?$AAn?$AA?9?$AAj?$AAm@ 000000014004d2e8     libucrtd:lcidtoname_downlevel.obj
 0002:0000e2f8       ??_C@_1M@KPPKEPBO@?$AAe?$AAn?$AA?9?$AAn?$AAz@ 000000014004d2f8     libucrtd:lcidtoname_downlevel.obj
 0002:0000e308       ??_C@_1M@GMDGLDOB@?$AAe?$AAn?$AA?9?$AAp?$AAh@ 000000014004d308     libucrtd:lcidtoname_downlevel.obj
 0002:0000e318       ??_C@_1M@ONGIBJNA@?$AAe?$AAn?$AA?9?$AAt?$AAt@ 000000014004d318     libucrtd:lcidtoname_downlevel.obj
 0002:0000e328       ??_C@_1M@LLODPCMM@?$AAe?$AAn?$AA?9?$AAu?$AAs@ 000000014004d328     libucrtd:lcidtoname_downlevel.obj
 0002:0000e338       ??_C@_1M@LAKFNPAN@?$AAe?$AAn?$AA?9?$AAz?$AAa@ 000000014004d338     libucrtd:lcidtoname_downlevel.obj
 0002:0000e348       ??_C@_1M@MFNHNHEO@?$AAe?$AAn?$AA?9?$AAz?$AAw@ 000000014004d348     libucrtd:lcidtoname_downlevel.obj
 0002:0000e358       ??_C@_1M@EJEINPHM@?$AAe?$AAs?$AA?9?$AAa?$AAr@ 000000014004d358     libucrtd:lcidtoname_downlevel.obj
 0002:0000e368       ??_C@_1M@GNKPCCJA@?$AAe?$AAs?$AA?9?$AAb?$AAo@ 000000014004d368     libucrtd:lcidtoname_downlevel.obj
 0002:0000e378       ??_C@_1M@LEEGFONL@?$AAe?$AAs?$AA?9?$AAc?$AAl@ 000000014004d378     libucrtd:lcidtoname_downlevel.obj
 0002:0000e388       ??_C@_1M@KGPDPBDF@?$AAe?$AAs?$AA?9?$AAc?$AAo@ 000000014004d388     libucrtd:lcidtoname_downlevel.obj
 0002:0000e398       ??_C@_1M@EIAHOHH@?$AAe?$AAs?$AA?9?$AAc?$AAr@ 000000014004d398     libucrtd:lcidtoname_downlevel.obj
 0002:0000e3a8       ??_C@_1M@LLPGMBIN@?$AAe?$AAs?$AA?9?$AAd?$AAo@ 000000014004d3a8     libucrtd:lcidtoname_downlevel.obj
 0002:0000e3b8       ??_C@_1M@DKHMKNJA@?$AAe?$AAs?$AA?9?$AAe?$AAc@ 000000014004d3b8     libucrtd:lcidtoname_downlevel.obj
 0002:0000e3c8       ??_C@_1M@GKGFPKAP@?$AAe?$AAs?$AA?9?$AAe?$AAs@ 000000014004d3c8     libucrtd:lcidtoname_downlevel.obj
 0002:0000e3d8       ??_C@_1M@LKHKGDLN@?$AAe?$AAs?$AA?9?$AAg?$AAt@ 000000014004d3d8     libucrtd:lcidtoname_downlevel.obj
 0002:0000e3e8       ??_C@_1M@HEIIGGJD@?$AAe?$AAs?$AA?9?$AAh?$AAn@ 000000014004d3e8     libucrtd:lcidtoname_downlevel.obj
 0002:0000e3f8       ??_C@_1M@FBDHPPGD@?$AAe?$AAs?$AA?9?$AAm?$AAx@ 000000014004d3f8     libucrtd:lcidtoname_downlevel.obj
 0002:0000e408       ??_C@_1M@DPAGLNDH@?$AAe?$AAs?$AA?9?$AAn?$AAi@ 000000014004d408     libucrtd:lcidtoname_downlevel.obj
 0002:0000e418       ??_C@_1M@MDGOPGDD@?$AAe?$AAs?$AA?9?$AAp?$AAa@ 000000014004d418     libucrtd:lcidtoname_downlevel.obj
 0002:0000e428       ??_C@_1M@EMAMGBGE@?$AAe?$AAs?$AA?9?$AAp?$AAe@ 000000014004d428     libucrtd:lcidtoname_downlevel.obj
 0002:0000e438       ??_C@_1M@IBMCAOEC@?$AAe?$AAs?$AA?9?$AAp?$AAr@ 000000014004d438     libucrtd:lcidtoname_downlevel.obj
 0002:0000e448       ??_C@_1M@FGMDIJED@?$AAe?$AAs?$AA?9?$AAp?$AAy@ 000000014004d448     libucrtd:lcidtoname_downlevel.obj
 0002:0000e458       ??_C@_1M@IIDEOLLL@?$AAe?$AAs?$AA?9?$AAs?$AAv@ 000000014004d458     libucrtd:lcidtoname_downlevel.obj
 0002:0000e468       ??_C@_1M@GAOBIPA@?$AAe?$AAs?$AA?9?$AAu?$AAy@ 000000014004d468     libucrtd:lcidtoname_downlevel.obj
 0002:0000e478       ??_C@_1M@JKFFICHJ@?$AAe?$AAs?$AA?9?$AAv?$AAe@ 000000014004d478     libucrtd:lcidtoname_downlevel.obj
 0002:0000e488       ??_C@_1M@PNMLOJDF@?$AAe?$AAt?$AA?9?$AAe?$AAe@ 000000014004d488     libucrtd:lcidtoname_downlevel.obj
 0002:0000e498       ??_C@_1M@GHHLIKEI@?$AAe?$AAu?$AA?9?$AAe?$AAs@ 000000014004d498     libucrtd:lcidtoname_downlevel.obj
 0002:0000e4a8       ??_C@_1M@PBNONODE@?$AAf?$AAa?$AA?9?$AAi?$AAr@ 000000014004d4a8     libucrtd:lcidtoname_downlevel.obj
 0002:0000e4b8       ??_C@_1M@JEEHPMIL@?$AAf?$AAi?$AA?9?$AAf?$AAi@ 000000014004d4b8     libucrtd:lcidtoname_downlevel.obj
 0002:0000e4c8       ??_C@_1M@LMDCNDBA@?$AAf?$AAo?$AA?9?$AAf?$AAo@ 000000014004d4c8     libucrtd:lcidtoname_downlevel.obj
 0002:0000e4d8       ??_C@_1M@JKEOHLDK@?$AAf?$AAr?$AA?9?$AAb?$AAe@ 000000014004d4d8     libucrtd:lcidtoname_downlevel.obj
 0002:0000e4e8       ??_C@_1M@NOHADPMI@?$AAf?$AAr?$AA?9?$AAc?$AAa@ 000000014004d4e8     libucrtd:lcidtoname_downlevel.obj
 0002:0000e4f8       ??_C@_1M@KDHIHAEC@?$AAf?$AAr?$AA?9?$AAc?$AAh@ 000000014004d4f8     libucrtd:lcidtoname_downlevel.obj
 0002:0000e508       ??_C@_1M@MMBBFGAK@?$AAf?$AAr?$AA?9?$AAf?$AAr@ 000000014004d508     libucrtd:lcidtoname_downlevel.obj
 0002:0000e518       ??_C@_1M@PAFNENNF@?$AAf?$AAr?$AA?9?$AAl?$AAu@ 000000014004d518     libucrtd:lcidtoname_downlevel.obj
 0002:0000e528       ??_C@_1M@EOHDJGDD@?$AAf?$AAr?$AA?9?$AAm?$AAc@ 000000014004d528     libucrtd:lcidtoname_downlevel.obj
 0002:0000e538       ??_C@_1M@FAPLLOPF@?$AAg?$AAl?$AA?9?$AAe?$AAs@ 000000014004d538     libucrtd:lcidtoname_downlevel.obj
 0002:0000e548       ??_C@_1M@FOPBFLOO@?$AAg?$AAu?$AA?9?$AAi?$AAn@ 000000014004d548     libucrtd:lcidtoname_downlevel.obj
 0002:0000e558       ??_C@_1M@KBMCINPM@?$AAh?$AAe?$AA?9?$AAi?$AAl@ 000000014004d558     libucrtd:lcidtoname_downlevel.obj
 0002:0000e568       ??_C@_1M@BBPHKFPJ@?$AAh?$AAi?$AA?9?$AAi?$AAn@ 000000014004d568     libucrtd:lcidtoname_downlevel.obj
 0002:0000e578       ??_C@_1M@PMBNDPHD@?$AAh?$AAr?$AA?9?$AAb?$AAa@ 000000014004d578     libucrtd:lcidtoname_downlevel.obj
 0002:0000e588       ??_C@_1M@BPCKOEGE@?$AAh?$AAr?$AA?9?$AAh?$AAr@ 000000014004d588     libucrtd:lcidtoname_downlevel.obj
 0002:0000e598       ??_C@_1M@GACBMHKE@?$AAh?$AAu?$AA?9?$AAh?$AAu@ 000000014004d598     libucrtd:lcidtoname_downlevel.obj
 0002:0000e5a8       ??_C@_1M@MILPAJJC@?$AAh?$AAy?$AA?9?$AAa?$AAm@ 000000014004d5a8     libucrtd:lcidtoname_downlevel.obj
 0002:0000e5b8       ??_C@_1M@BABBICEC@?$AAi?$AAd?$AA?9?$AAi?$AAd@ 000000014004d5b8     libucrtd:lcidtoname_downlevel.obj
 0002:0000e5c8       ??_C@_1M@BIKNHHPF@?$AAi?$AAs?$AA?9?$AAi?$AAs@ 000000014004d5c8     libucrtd:lcidtoname_downlevel.obj
 0002:0000e5d8       ??_C@_1M@NMPCJPHE@?$AAi?$AAt?$AA?9?$AAc?$AAh@ 000000014004d5d8     libucrtd:lcidtoname_downlevel.obj
 0002:0000e5e8       ??_C@_1M@GHKGFEDF@?$AAi?$AAt?$AA?9?$AAi?$AAt@ 000000014004d5e8     libucrtd:lcidtoname_downlevel.obj
 0002:0000e5f8       ??_C@_1M@NIEJCJJA@?$AAj?$AAa?$AA?9?$AAj?$AAp@ 000000014004d5f8     libucrtd:lcidtoname_downlevel.obj
 0002:0000e608       ??_C@_1M@JILFNBIM@?$AAk?$AAa?$AA?9?$AAg?$AAe@ 000000014004d608     libucrtd:lcidtoname_downlevel.obj
 0002:0000e618       ??_C@_1M@PACPMGPH@?$AAk?$AAk?$AA?9?$AAk?$AAz@ 000000014004d618     libucrtd:lcidtoname_downlevel.obj
 0002:0000e628       ??_C@_1M@IELFGMHA@?$AAk?$AAn?$AA?9?$AAi?$AAn@ 000000014004d628     libucrtd:lcidtoname_downlevel.obj
 0002:0000e638       ??_C@_1O@IBBJHCH@?$AAk?$AAo?$AAk?$AA?9?$AAi?$AAn@ 000000014004d638     libucrtd:lcidtoname_downlevel.obj
 0002:0000e648       ??_C@_1M@DMHAEOGC@?$AAk?$AAo?$AA?9?$AAk?$AAr@ 000000014004d648     libucrtd:lcidtoname_downlevel.obj
 0002:0000e658       ??_C@_1M@HBAHBIGA@?$AAk?$AAy?$AA?9?$AAk?$AAg@ 000000014004d658     libucrtd:lcidtoname_downlevel.obj
 0002:0000e668       ??_C@_1M@KPMILCJG@?$AAl?$AAt?$AA?9?$AAl?$AAt@ 000000014004d668     libucrtd:lcidtoname_downlevel.obj
 0002:0000e678       ??_C@_1M@BDEKKCA@?$AAl?$AAv?$AA?9?$AAl?$AAv@ 000000014004d678     libucrtd:lcidtoname_downlevel.obj
 0002:0000e688       ??_C@_1M@ELCKCCJJ@?$AAm?$AAi?$AA?9?$AAn?$AAz@ 000000014004d688     libucrtd:lcidtoname_downlevel.obj
 0002:0000e698       ??_C@_1M@CBOOLAPA@?$AAm?$AAk?$AA?9?$AAm?$AAk@ 000000014004d698     libucrtd:lcidtoname_downlevel.obj
 0002:0000e6a8       ??_C@_1M@GPHNBJKN@?$AAm?$AAl?$AA?9?$AAi?$AAn@ 000000014004d6a8     libucrtd:lcidtoname_downlevel.obj
 0002:0000e6b8       ??_C@_1M@PABJILIG@?$AAm?$AAn?$AA?9?$AAm?$AAn@ 000000014004d6b8     libucrtd:lcidtoname_downlevel.obj
 0002:0000e6c8       ??_C@_1M@FGBKKIPG@?$AAm?$AAr?$AA?9?$AAi?$AAn@ 000000014004d6c8     libucrtd:lcidtoname_downlevel.obj
 0002:0000e6d8       ??_C@_1M@NDBPDDAL@?$AAm?$AAs?$AA?9?$AAb?$AAn@ 000000014004d6d8     libucrtd:lcidtoname_downlevel.obj
 0002:0000e6e8       ??_C@_1M@OPIHOOPI@?$AAm?$AAs?$AA?9?$AAm?$AAy@ 000000014004d6e8     libucrtd:lcidtoname_downlevel.obj
 0002:0000e6f8       ??_C@_1M@PPDBCNFM@?$AAm?$AAt?$AA?9?$AAm?$AAt@ 000000014004d6f8     libucrtd:lcidtoname_downlevel.obj
 0002:0000e708       ??_C@_1M@KDJDKMDD@?$AAn?$AAb?$AA?9?$AAn?$AAo@ 000000014004d708     libucrtd:lcidtoname_downlevel.obj
 0002:0000e718       ??_C@_1M@KFCFLMJP@?$AAn?$AAl?$AA?9?$AAb?$AAe@ 000000014004d718     libucrtd:lcidtoname_downlevel.obj
 0002:0000e728       ??_C@_1M@KPOPDDGO@?$AAn?$AAl?$AA?9?$AAn?$AAl@ 000000014004d728     libucrtd:lcidtoname_downlevel.obj
 0002:0000e738       ??_C@_1M@LJKPEMLN@?$AAn?$AAn?$AA?9?$AAn?$AAo@ 000000014004d738     libucrtd:lcidtoname_downlevel.obj
 0002:0000e748       ??_C@_1M@BDGHHBFL@?$AAn?$AAs?$AA?9?$AAz?$AAa@ 000000014004d748     libucrtd:lcidtoname_downlevel.obj
 0002:0000e758       ??_C@_1M@IDEHOAP@?$AAp?$AAa?$AA?9?$AAi?$AAn@ 000000014004d758     libucrtd:lcidtoname_downlevel.obj
 0002:0000e768       ??_C@_1M@HDBKGOGH@?$AAp?$AAl?$AA?9?$AAp?$AAl@ 000000014004d768     libucrtd:lcidtoname_downlevel.obj
 0002:0000e778       ??_C@_1M@LJLLCMEH@?$AAp?$AAt?$AA?9?$AAb?$AAr@ 000000014004d778     libucrtd:lcidtoname_downlevel.obj
 0002:0000e788       ??_C@_1M@NCMONAAL@?$AAp?$AAt?$AA?9?$AAp?$AAt@ 000000014004d788     libucrtd:lcidtoname_downlevel.obj
 0002:0000e798       ??_C@_1O@EAKMAJDN@?$AAq?$AAu?$AAz?$AA?9?$AAb?$AAo@ 000000014004d798     libucrtd:lcidtoname_downlevel.obj
 0002:0000e7a8       ??_C@_1O@BHHPIGDN@?$AAq?$AAu?$AAz?$AA?9?$AAe?$AAc@ 000000014004d7a8     libucrtd:lcidtoname_downlevel.obj
 0002:0000e7b8       ??_C@_1O@GBAPEKMJ@?$AAq?$AAu?$AAz?$AA?9?$AAp?$AAe@ 000000014004d7b8     libucrtd:lcidtoname_downlevel.obj
 0002:0000e7c8       ??_C@_1M@CLGLEFBO@?$AAr?$AAo?$AA?9?$AAr?$AAo@ 000000014004d7c8     libucrtd:lcidtoname_downlevel.obj
 0002:0000e7d8       ??_C@_1M@CEEDODME@?$AAr?$AAu?$AA?9?$AAr?$AAu@ 000000014004d7d8     libucrtd:lcidtoname_downlevel.obj
 0002:0000e7e8       ??_C@_1M@HPKKKMPP@?$AAs?$AAa?$AA?9?$AAi?$AAn@ 000000014004d7e8     libucrtd:lcidtoname_downlevel.obj
 0002:0000e7f8       ??_C@_1M@BKMAIGOJ@?$AAs?$AAe?$AA?9?$AAf?$AAi@ 000000014004d7f8     libucrtd:lcidtoname_downlevel.obj
 0002:0000e808       ??_C@_1M@NDPIFLFI@?$AAs?$AAe?$AA?9?$AAn?$AAo@ 000000014004d808     libucrtd:lcidtoname_downlevel.obj
 0002:0000e818       ??_C@_1M@DANKKHJ@?$AAs?$AAe?$AA?9?$AAs?$AAe@ 000000014004d818     libucrtd:lcidtoname_downlevel.obj
 0002:0000e828       ??_C@_1M@PNBLONPJ@?$AAs?$AAk?$AA?9?$AAs?$AAk@ 000000014004d828     libucrtd:lcidtoname_downlevel.obj
 0002:0000e838       ??_C@_1M@LFMODOAL@?$AAs?$AAl?$AA?9?$AAs?$AAi@ 000000014004d838     libucrtd:lcidtoname_downlevel.obj
 0002:0000e848       ??_C@_1O@DFKOMPG@?$AAs?$AAm?$AAa?$AA?9?$AAn?$AAo@ 000000014004d848     libucrtd:lcidtoname_downlevel.obj
 0002:0000e858       ??_C@_1O@NDKPBNNH@?$AAs?$AAm?$AAa?$AA?9?$AAs?$AAe@ 000000014004d858     libucrtd:lcidtoname_downlevel.obj
 0002:0000e868       ??_C@_1O@PLLKBHAB@?$AAs?$AAm?$AAj?$AA?9?$AAn?$AAo@ 000000014004d868     libucrtd:lcidtoname_downlevel.obj
 0002:0000e878       ??_C@_1O@CLEPOGCA@?$AAs?$AAm?$AAj?$AA?9?$AAs?$AAe@ 000000014004d878     libucrtd:lcidtoname_downlevel.obj
 0002:0000e888       ??_C@_1O@DLGJGKMK@?$AAs?$AAm?$AAn?$AA?9?$AAf?$AAi@ 000000014004d888     libucrtd:lcidtoname_downlevel.obj
 0002:0000e898       ??_C@_1O@OJDJGAJC@?$AAs?$AAm?$AAs?$AA?9?$AAf?$AAi@ 000000014004d898     libucrtd:lcidtoname_downlevel.obj
 0002:0000e8a8       ??_C@_1M@BOFOGHPB@?$AAs?$AAq?$AA?9?$AAa?$AAl@ 000000014004d8a8     libucrtd:lcidtoname_downlevel.obj
 0002:0000e8b8       ??_C@_1BG@LJBBIPGB@?$AAs?$AAr?$AA?9?$AAb?$AAa?$AA?9?$AAc?$AAy?$AAr?$AAl@ 000000014004d8b8     libucrtd:lcidtoname_downlevel.obj
 0002:0000e8d0       ??_C@_1BG@JLBENFOE@?$AAs?$AAr?$AA?9?$AAb?$AAa?$AA?9?$AAl?$AAa?$AAt?$AAn@ 000000014004d8d0     libucrtd:lcidtoname_downlevel.obj
 0002:0000e8e8       ??_C@_1BG@KODPNHE@?$AAs?$AAr?$AA?9?$AAs?$AAp?$AA?9?$AAc?$AAy?$AAr?$AAl@ 000000014004d8e8     libucrtd:lcidtoname_downlevel.obj
 0002:0000e900       ??_C@_1BG@CIOGKHPB@?$AAs?$AAr?$AA?9?$AAs?$AAp?$AA?9?$AAl?$AAa?$AAt?$AAn@ 000000014004d900     libucrtd:lcidtoname_downlevel.obj
 0002:0000e918       ??_C@_1M@NGFJLMAC@?$AAs?$AAv?$AA?9?$AAf?$AAi@ 000000014004d918     libucrtd:lcidtoname_downlevel.obj
 0002:0000e928       ??_C@_1M@MPJEJAJC@?$AAs?$AAv?$AA?9?$AAs?$AAe@ 000000014004d928     libucrtd:lcidtoname_downlevel.obj
 0002:0000e938       ??_C@_1M@MPNDHLFK@?$AAs?$AAw?$AA?9?$AAk?$AAe@ 000000014004d938     libucrtd:lcidtoname_downlevel.obj
 0002:0000e948       ??_C@_1O@KOHBJJI@?$AAs?$AAy?$AAr?$AA?9?$AAs?$AAy@ 000000014004d948     libucrtd:lcidtoname_downlevel.obj
 0002:0000e958       ??_C@_1M@LDCEFHA@?$AAt?$AAa?$AA?9?$AAi?$AAn@ 000000014004d958     libucrtd:lcidtoname_downlevel.obj
 0002:0000e968       ??_C@_1M@CNJOFAK@?$AAt?$AAe?$AA?9?$AAi?$AAn@ 000000014004d968     libucrtd:lcidtoname_downlevel.obj
 0002:0000e978       ??_C@_1M@GNAECACD@?$AAt?$AAh?$AA?9?$AAt?$AAh@ 000000014004d978     libucrtd:lcidtoname_downlevel.obj
 0002:0000e988       ??_C@_1M@CHBIHOJO@?$AAt?$AAn?$AA?9?$AAz?$AAa@ 000000014004d988     libucrtd:lcidtoname_downlevel.obj
 0002:0000e998       ??_C@_1M@GCCMIGPJ@?$AAt?$AAr?$AA?9?$AAt?$AAr@ 000000014004d998     libucrtd:lcidtoname_downlevel.obj
 0002:0000e9a8       ??_C@_1M@CELMCNBK@?$AAt?$AAt?$AA?9?$AAr?$AAu@ 000000014004d9a8     libucrtd:lcidtoname_downlevel.obj
 0002:0000e9b8       ??_C@_1M@KLMCELGA@?$AAu?$AAk?$AA?9?$AAu?$AAa@ 000000014004d9b8     libucrtd:lcidtoname_downlevel.obj
 0002:0000e9c8       ??_C@_1M@EPAJJAJF@?$AAu?$AAr?$AA?9?$AAp?$AAk@ 000000014004d9c8     libucrtd:lcidtoname_downlevel.obj
 0002:0000e9d8       ??_C@_1BG@GEGPMCDJ@?$AAu?$AAz?$AA?9?$AAu?$AAz?$AA?9?$AAc?$AAy?$AAr?$AAl@ 000000014004d9d8     libucrtd:lcidtoname_downlevel.obj
 0002:0000e9f0       ??_C@_1BG@EGGKJILM@?$AAu?$AAz?$AA?9?$AAu?$AAz?$AA?9?$AAl?$AAa?$AAt?$AAn@ 000000014004d9f0     libucrtd:lcidtoname_downlevel.obj
 0002:0000ea08       ??_C@_1M@GFOCLFF@?$AAv?$AAi?$AA?9?$AAv?$AAn@ 000000014004da08     libucrtd:lcidtoname_downlevel.obj
 0002:0000ea18       ??_C@_1M@CPAMEDFI@?$AAx?$AAh?$AA?9?$AAz?$AAa@ 000000014004da18     libucrtd:lcidtoname_downlevel.obj
 0002:0000ea28       ??_C@_1O@EBKIFIGN@?$AAz?$AAh?$AA?9?$AAc?$AAh?$AAs@ 000000014004da28     libucrtd:lcidtoname_downlevel.obj
 0002:0000ea38       ??_C@_1O@NMHPGANE@?$AAz?$AAh?$AA?9?$AAc?$AAh?$AAt@ 000000014004da38     libucrtd:lcidtoname_downlevel.obj
 0002:0000ea48       ??_C@_1M@LPINJOMC@?$AAz?$AAh?$AA?9?$AAc?$AAn@ 000000014004da48     libucrtd:lcidtoname_downlevel.obj
 0002:0000ea58       ??_C@_1M@OCJEJODD@?$AAz?$AAh?$AA?9?$AAh?$AAk@ 000000014004da58     libucrtd:lcidtoname_downlevel.obj
 0002:0000ea68       ??_C@_1M@DNDLJINH@?$AAz?$AAh?$AA?9?$AAm?$AAo@ 000000014004da68     libucrtd:lcidtoname_downlevel.obj
 0002:0000ea78       ??_C@_1M@MBFDNDND@?$AAz?$AAh?$AA?9?$AAs?$AAg@ 000000014004da78     libucrtd:lcidtoname_downlevel.obj
 0002:0000ea88       ??_C@_1M@IMEPLEPE@?$AAz?$AAh?$AA?9?$AAt?$AAw@ 000000014004da88     libucrtd:lcidtoname_downlevel.obj
 0002:0000ea98       ??_C@_1M@BBGHNHJP@?$AAz?$AAu?$AA?9?$AAz?$AAa@ 000000014004da98     libucrtd:lcidtoname_downlevel.obj
 0002:0000eab0       ??_C@_1GA@DKNOMDCL@?$AAm?$AAi?$AAn?$AAk?$AAe?$AAr?$AAn?$AAe?$AAl?$AA?2?$AAc?$AAr?$AAt?$AAs?$AA?2@ 000000014004dab0     libucrtd:fclose.obj
 0002:0000eb10       ??_C@_1O@EGMJNCOI@?$AAf?$AAc?$AAl?$AAo?$AAs?$AAe@ 000000014004db10     libucrtd:fclose.obj
 0002:0000eb20       ??_C@_1BO@JINCABEC@?$AA_?$AAf?$AAc?$AAl?$AAo?$AAs?$AAe?$AA_?$AAn?$AAo?$AAl?$AAo?$AAc?$AAk@ 000000014004db20     libucrtd:fclose.obj
 0002:0000eb40       ??_C@_1GA@MPOOLHCO@?$AAm?$AAi?$AAn?$AAk?$AAe?$AAr?$AAn?$AAe?$AAl?$AA?2?$AAc?$AAr?$AAt?$AAs?$AA?2@ 000000014004db40     libucrtd:commit.obj
 0002:0000eba0       ??_C@_1BA@FLNMBBIM@?$AA_?$AAc?$AAo?$AAm?$AAm?$AAi?$AAt@ 000000014004dba0     libucrtd:commit.obj
 0002:0000ebb0       ??_C@_1FO@CAMPMGCN@?$AAm?$AAi?$AAn?$AAk?$AAe?$AAr?$AAn?$AAe?$AAl?$AA?2?$AAc?$AAr?$AAt?$AAs?$AA?2@ 000000014004dbb0     libucrtd:write.obj
 0002:0000ec10       ??_C@_1O@KOFKDHPL@?$AA_?$AAw?$AAr?$AAi?$AAt?$AAe@ 000000014004dc10     libucrtd:write.obj
 0002:0000ec20       ??_C@_1CK@MMEFCHHN@?$AA?$CB?$AA_?$AAd?$AAb?$AAc?$AAs?$AAB?$AAu?$AAf?$AAf?$AAe?$AAr?$AAU?$AAs?$AAe@ 000000014004dc20     libucrtd:write.obj
 0002:0000ec50       ??_C@_1EG@LICJGLJJ@?$AA1?$AA?5?$AA?$DM?$AA?5?$AAm?$AAb?$AA_?$AAl?$AAe?$AAn?$AA?5?$AA?$CG?$AA?$CG?$AA?5?$AAm@ 000000014004dc50     libucrtd:write.obj
 0002:0000eca0       ??_C@_1FC@NFILPJB@?$AAm?$AAb?$AA_?$AAb?$AAu?$AAf?$AA_?$AAu?$AAs?$AAe?$AAd?$AA?5?$AA?$CL?$AA?5?$AAb@ 000000014004dca0     libucrtd:write.obj
 0002:0000ed00       ??_C@_1FC@HEJOPHLA@?$AAa?$AAv?$AAa?$AAi?$AAl?$AAa?$AAb?$AAl?$AAe?$AA_?$AAb?$AAy?$AAt?$AAe?$AAs@ 000000014004dd00     libucrtd:write.obj
 0002:0000ed58       ??_C@_1DI@CNMHHHLG@?$AAi?$AAs?$AAl?$AAe?$AAa?$AAd?$AAb?$AAy?$AAt?$AAe?$AA?$CI?$AA_?$AAd?$AAb?$AAc@ 000000014004dd58     libucrtd:write.obj
 0002:0000ed90       ??_C@_1CE@MCCHPLBM@?$AAb?$AAu?$AAf?$AAf?$AAe?$AAr?$AA?5?$AA?$CB?$AA?$DN?$AA?5?$AAn?$AAu?$AAl?$AAl?$AAp@ 000000014004dd90     libucrtd:write.obj
 0002:0000edb8       ??_C@_1BM@NCANHCIP@?$AA_?$AAw?$AAr?$AAi?$AAt?$AAe?$AA_?$AAn?$AAo?$AAl?$AAo?$AAc?$AAk@ 000000014004ddb8     libucrtd:write.obj
 0002:0000edd8       ??_C@_1CK@CPEAGIIP@?$AAb?$AAu?$AAf?$AAf?$AAe?$AAr?$AA_?$AAs?$AAi?$AAz?$AAe?$AA?5?$AA?$CF?$AA?5?$AA2@ 000000014004ddd8     libucrtd:write.obj
 0002:0000ee10       ??_C@_1GG@MCCIENJO@?$AAm?$AAi?$AAn?$AAk?$AAe?$AAr?$AAn?$AAe?$AAl?$AA?2?$AAc?$AAr?$AAt?$AAs?$AA?2@ 000000014004de10     libucrtd:mbrtowc.obj
 0002:0000ee80       ??_C@_1EK@MCEFBPIK@?$AAr?$AAe?$AAt?$AAv?$AAa?$AAl?$AA?5?$AA?$CB?$AA?$DN?$AA?5?$AA_?$AA_?$AAc?$AAr?$AAt@ 000000014004de80     libucrtd:mbrtowc.obj
 0002:0000eed0       ??_C@_1EK@OANGPA@?$AA1?$AA?5?$AA?$DM?$AA?$DN?$AA?5?$AAt?$AAr?$AAa?$AAi?$AAl?$AA_?$AAb?$AAy?$AAt?$AAe@ 000000014004ded0     libucrtd:c32rtomb.obj
 0002:0000ef20       ??_C@_1GI@FBFKMNDD@?$AAm?$AAi?$AAn?$AAk?$AAe?$AAr?$AAn?$AAe?$AAl?$AA?2?$AAc?$AAr?$AAt?$AAs?$AA?2@ 000000014004df20     libucrtd:c32rtomb.obj
 0002:0000ef90       ??_C@_1EA@DDDCIHI@?$AAc?$AA3?$AA2?$AA?5?$AA?$DM?$AA?5?$AA?$CI?$AA1?$AAu?$AA?5?$AA?$DM?$AA?$DM?$AA?5?$AA?$CI?$AA7@ 000000014004df90     libucrtd:c32rtomb.obj
 0002:0000efd0       ??_C@_1GI@IMEEHIAK@?$AAm?$AAi?$AAn?$AAk?$AAe?$AAr?$AAn?$AAe?$AAl?$AA?2?$AAc?$AAr?$AAt?$AAs?$AA?2@ 000000014004dfd0     libucrtd:_fptostr.obj
 0002:0000f038       ??_C@_1DG@NMGBKPMI@?$AA_?$AA_?$AAa?$AAc?$AAr?$AAt?$AA_?$AAf?$AAp?$AA_?$AAs?$AAt?$AAr?$AAf?$AAl@ 000000014004e038     libucrtd:_fptostr.obj
 0002:0000f070       ??_C@_1CC@ONIJBMJF@?$AAb?$AAu?$AAf?$AAf?$AAe?$AAr?$AA_?$AAc?$AAo?$AAu?$AAn?$AAt?$AA?5?$AA?$DO?$AA?5@ 000000014004e070     libucrtd:_fptostr.obj
 0002:0000f0a0       ??_C@_1IE@EAOKIIFP@?$AAb?$AAu?$AAf?$AAf?$AAe?$AAr?$AA_?$AAc?$AAo?$AAu?$AAn?$AAt?$AA?5?$AA?$DO?$AA?5@ 000000014004e0a0     libucrtd:_fptostr.obj
 0002:0000f128       ??_C@_1CA@EDEEBMBB@?$AAp?$AAf?$AAl?$AAt?$AA?5?$AA?$CB?$AA?$DN?$AA?5?$AAn?$AAu?$AAl?$AAl?$AAp?$AAt?$AAr@ 000000014004e128     libucrtd:_fptostr.obj
 0002:0000f150       ?large_power_data@?1??multiply_by_power_of_ten@__crt_strtox@@YA_NAEAUbig_integer@2@I@Z@4QBIB 000000014004e150     libucrtd:cfout.obj
 0002:0000fa60       ?large_power_indices@?1??multiply_by_power_of_ten@__crt_strtox@@YA_NAEAUbig_integer@2@I@Z@4QBUunpack_index@?1??12@YA_N0I@Z@B 000000014004ea60     libucrtd:cfout.obj
 0002:0000faf8       ?small_powers_of_ten@?1??multiply_by_power_of_ten@__crt_strtox@@YA_NAEAUbig_integer@2@I@Z@4QBIB 000000014004eaf8     libucrtd:cfout.obj
 0002:0000fb20       ??_C@_1DI@GICAMMFM@?$AA?$CI?$AA?$CC?$AAD?$AAi?$AAv?$AAi?$AAs?$AAi?$AAo?$AAn?$AA?5?$AAb?$AAy?$AA?5?$AAz@ 000000014004eb20     libucrtd:cfout.obj
 0002:0000fb60       ??_C@_1GO@BFGDDONN@?$AAm?$AAi?$AAn?$AAk?$AAe?$AAr?$AAn?$AAe?$AAl?$AA?2?$AAc?$AAr?$AAt?$AAs?$AA?2@ 000000014004eb60     libucrtd:cfout.obj
 0002:0000fbd0       ??_C@_1GC@DDAKNBNC@?$AAm?$AAi?$AAn?$AAk?$AAe?$AAr?$AAn?$AAe?$AAl?$AA?2?$AAc?$AAr?$AAt?$AAs?$AA?2@ 000000014004ebd0     libucrtd:cfout.obj
 0002:0000fc38       ??_C@_1BM@FAAOAKKO@?$AA_?$AA_?$AAa?$AAc?$AAr?$AAt?$AA_?$AAf?$AAl?$AAt?$AAo?$AAu?$AAt@ 000000014004ec38     libucrtd:cfout.obj
 0002:0000fc60       ??_C@_1EI@OACEJKEP@?$AAs?$AAt?$AAr?$AAc?$AAp?$AAy?$AA_?$AAs?$AA?$CI?$AAr?$AAe?$AAs?$AAu?$AAl?$AAt@ 000000014004ec60     libucrtd:cfout.obj
 0002:0000fca8       ??_C@_01GBGANLPD@0@        000000014004eca8     libucrtd:cfout.obj
 0002:0000fcb0       ??_C@_1FC@KIECGFMP@?$AAs?$AAt?$AAr?$AAc?$AAp?$AAy?$AA_?$AAs?$AA?$CI?$AAr?$AAe?$AAs?$AAu?$AAl?$AAt@ 000000014004ecb0     libucrtd:cfout.obj
 0002:0000fd04       ??_C@_05DNEBIAHO@1?$CDINF@ 000000014004ed04     libucrtd:cfout.obj
 0002:0000fd10       ??_C@_1FC@NFPJEIBD@?$AAs?$AAt?$AAr?$AAc?$AAp?$AAy?$AA_?$AAs?$AA?$CI?$AAr?$AAe?$AAs?$AAu?$AAl?$AAt@ 000000014004ed10     libucrtd:cfout.obj
 0002:0000fd64       ??_C@_06IMKFLFPG@1?$CDQNAN@ 000000014004ed64     libucrtd:cfout.obj
 0002:0000fd70       ??_C@_1FC@DEJHIMLO@?$AAs?$AAt?$AAr?$AAc?$AAp?$AAy?$AA_?$AAs?$AA?$CI?$AAr?$AAe?$AAs?$AAu?$AAl?$AAt@ 000000014004ed70     libucrtd:cfout.obj
 0002:0000fdc4       ??_C@_06PGGFOGJG@1?$CDSNAN@ 000000014004edc4     libucrtd:cfout.obj
 0002:0000fdd0       ??_C@_1FC@KMLHLFPC@?$AAs?$AAt?$AAr?$AAc?$AAp?$AAy?$AA_?$AAs?$AA?$CI?$AAr?$AAe?$AAs?$AAu?$AAl?$AAt@ 000000014004edd0     libucrtd:cfout.obj
 0002:0000fe24       ??_C@_05PHHOCPM@1?$CDIND@  000000014004ee24     libucrtd:cfout.obj
 0002:0000fe30       ??_C@_1DE@KHKADFOO@?$AAm?$AAa?$AAn?$AAt?$AAi?$AAs?$AAs?$AAa?$AA_?$AAb?$AAu?$AAf?$AAf?$AAe?$AAr@ 000000014004ee30     libucrtd:cfout.obj
 0002:0000fe70       ??_C@_1FI@LFKLOPAC@?$AA?$CI?$AA?$CC?$AAu?$AAn?$AAe?$AAx?$AAp?$AAe?$AAc?$AAt?$AAe?$AAd?$AA?5?$AAi?$AAn@ 000000014004ee70     libucrtd:cfout.obj
 0002:0000fed0       ??_C@_1FG@MLHBDPBG@?$AAq?$AAu?$AAo?$AAt?$AAi?$AAe?$AAn?$AAt?$AA?5?$AA?$DM?$AA?5?$AAd?$AAi?$AAg?$AAi@ 000000014004eed0     libucrtd:cfout.obj
 0002:0000ff30       ??_C@_1GC@DFIGBGJI@?$AAm?$AAi?$AAn?$AAk?$AAe?$AAr?$AAn?$AAe?$AAl?$AA?2?$AAc?$AAr?$AAt?$AAs?$AA?2@ 000000014004ef30     libucrtd:_flsbuf.obj
 0002:0000ffa0       ??_C@_1HO@MLMGPAFH@?$AA?$CI?$AA?$CC?$AAi?$AAn?$AAc?$AAo?$AAn?$AAs?$AAi?$AAs?$AAt?$AAe?$AAn?$AAt?$AA?5@ 000000014004efa0     libucrtd:_flsbuf.obj
 0002:00010020       ??_C@_1GA@DEPMKPD@?$AAm?$AAi?$AAn?$AAk?$AAe?$AAr?$AAn?$AAe?$AAl?$AA?2?$AAc?$AAr?$AAt?$AAs?$AA?2@ 000000014004f020     libucrtd:isatty.obj
 0002:00010080       ??_C@_1BA@LEBDGIHM@?$AA_?$AAi?$AAs?$AAa?$AAt?$AAt?$AAy@ 000000014004f080     libucrtd:isatty.obj
 0002:000100b8       ??_C@_1DI@OOEEHOBJ@?$AAb?$AAa?$AAs?$AAe?$AA?5?$AA?$CB?$AA?$DN?$AA?5?$AAn?$AAu?$AAl?$AAl?$AAp?$AAt?$AAr@ 000000014004f0b8     libucrtd:qsort.obj
 0002:000100f0       ??_C@_1GA@KPPCKKGE@?$AAm?$AAi?$AAn?$AAk?$AAe?$AAr?$AAn?$AAe?$AAl?$AA?2?$AAc?$AAr?$AAt?$AAs?$AA?2@ 000000014004f0f0     libucrtd:qsort.obj
 0002:00010150       ??_C@_1M@INMHODIG@?$AAq?$AAs?$AAo?$AAr?$AAt@ 000000014004f150     libucrtd:qsort.obj
 0002:00010160       ??_C@_1BE@NJBEBBME@?$AAw?$AAi?$AAd?$AAt?$AAh?$AA?5?$AA?$DO?$AA?5?$AA0@ 000000014004f160     libucrtd:qsort.obj
 0002:00010178       ??_C@_1CA@LIDFOMIN@?$AAc?$AAo?$AAm?$AAp?$AA?5?$AA?$CB?$AA?$DN?$AA?5?$AAn?$AAu?$AAl?$AAl?$AAp?$AAt?$AAr@ 000000014004f178     libucrtd:qsort.obj
 0002:00010198       ??_C@_1CE@BLLJFLOH@?$AAs?$AAt?$AAr?$AAi?$AAn?$AAg?$AA?5?$AA?$CB?$AA?$DN?$AA?5?$AAn?$AAu?$AAl?$AAl?$AAp@ 000000014004f198     libucrtd:mbsdec.obj
 0002:000101c0       ??_C@_1GO@DDOMFNGF@?$AAm?$AAi?$AAn?$AAk?$AAe?$AAr?$AAn?$AAe?$AAl?$AA?2?$AAc?$AAr?$AAt?$AAs?$AA?2@ 000000014004f1c0     libucrtd:mbsdec.obj
 0002:00010230       ??_C@_1BE@KLNCOLCD@?$AA_?$AAm?$AAb?$AAs?$AAd?$AAe?$AAc?$AA_?$AAl@ 000000014004f230     libucrtd:mbsdec.obj
 0002:00010248       ??_C@_1CG@CMGPGAOD@?$AAc?$AAu?$AAr?$AAr?$AAe?$AAn?$AAt?$AA?5?$AA?$CB?$AA?$DN?$AA?5?$AAn?$AAu?$AAl?$AAl@ 000000014004f248     libucrtd:mbsdec.obj
 0002:00010270       ??_C@_0DH@IKPCBLP@minkernel?2crts?2ucrt?2src?2appcrt?2@ 000000014004f270     libucrtd:lcmapstringa.obj
 0002:000102a8       ??_C@_1CI@CCKDLILB@?$AA_?$AAs?$AAt?$AAr?$AAi?$AAn?$AAg?$AA1?$AA?5?$AA?$CB?$AA?$DN?$AA?5?$AAn?$AAu?$AAl@ 000000014004f2a8     libucrtd:wcsnicol.obj
 0002:000102d0       ??_C@_1CI@NAPEFFEJ@?$AA_?$AAs?$AAt?$AAr?$AAi?$AAn?$AAg?$AA2?$AA?5?$AA?$CB?$AA?$DN?$AA?5?$AAn?$AAu?$AAl@ 000000014004f2d0     libucrtd:wcsnicol.obj
 0002:000102f8       ??_C@_1CC@JLPHKJPH@?$AAc?$AAo?$AAu?$AAn?$AAt?$AA?5?$AA?$DM?$AA?$DN?$AA?5?$AAI?$AAN?$AAT?$AA_?$AAM?$AAA@ 000000014004f2f8     libucrtd:wcsnicol.obj
 0002:00010320       ??_C@_1GG@LACFCIFA@?$AAm?$AAi?$AAn?$AAk?$AAe?$AAr?$AAn?$AAe?$AAl?$AA?2?$AAc?$AAr?$AAt?$AAs?$AA?2@ 000000014004f320     libucrtd:strnicol.obj
 0002:00010388       ??_C@_1BK@IOJEBPLP@?$AA_?$AAs?$AAt?$AAr?$AAn?$AAi?$AAc?$AAo?$AAl?$AAl?$AA_?$AAl@ 000000014004f388     libucrtd:strnicol.obj
 0002:000103b0       ??_C@_1GA@HBEFGMHK@?$AAm?$AAi?$AAn?$AAk?$AAe?$AAr?$AAn?$AAe?$AAl?$AA?2?$AAc?$AAr?$AAt?$AAs?$AA?2@ 000000014004f3b0     libucrtd:xtoa.obj
 0002:00010410       ??_C@_1BM@HMPEMLNP@?$AAc?$AAo?$AAm?$AAm?$AAo?$AAn?$AA_?$AAx?$AAt?$AAo?$AAx?$AA_?$AAs@ 000000014004f410     libucrtd:xtoa.obj
 0002:00010430       ??_C@_1HA@JFIOFNKD@?$AAb?$AAu?$AAf?$AAf?$AAe?$AAr?$AA_?$AAc?$AAo?$AAu?$AAn?$AAt?$AA?5?$AA?$DO?$AA?5@ 000000014004f430     libucrtd:xtoa.obj
 0002:000104a0       ??_C@_1DE@PCJGDBBD@?$AA2?$AA?5?$AA?$DM?$AA?$DN?$AA?5?$AAr?$AAa?$AAd?$AAi?$AAx?$AA?5?$AA?$CG?$AA?$CG?$AA?5?$AAr@ 000000014004f4a0     libucrtd:xtoa.obj
 0002:000104d8       ??_C@_1CM@LONILNIJ@?$AAl?$AAe?$AAn?$AAg?$AAt?$AAh?$AA?5?$AA?$DM?$AA?5?$AAb?$AAu?$AAf?$AAf?$AAe?$AAr@ 000000014004f4d8     libucrtd:xtoa.obj
 0002:00010508       ??_C@_1BI@OLPLFKOE@?$AAc?$AAo?$AAm?$AAm?$AAo?$AAn?$AA_?$AAx?$AAt?$AAo?$AAx@ 000000014004f508     libucrtd:xtoa.obj
 0002:00010520       ??_C@_1BO@JGGHCINF@?$AAl?$AAh?$AAs?$AA?5?$AA?$CB?$AA?$DN?$AA?5?$AAn?$AAu?$AAl?$AAl?$AAp?$AAt?$AAr@ 000000014004f520     libucrtd:wcsicmp.obj
 0002:00010540       ??_C@_1BO@FHLPEAOG@?$AAr?$AAh?$AAs?$AA?5?$AA?$CB?$AA?$DN?$AA?5?$AAn?$AAu?$AAl?$AAl?$AAp?$AAt?$AAr@ 000000014004f540     libucrtd:wcsicmp.obj
 0002:00010560       ??_C@_1BK@FPAMLIDG@?$AAs?$AA?5?$AA?$CB?$AA?$DN?$AA?5?$AAn?$AAu?$AAl?$AAl?$AAp?$AAt?$AAr@ 000000014004f560     libucrtd:mbstowcs.obj
 0002:00010580       ??_C@_1GI@KABMHNPH@?$AAm?$AAi?$AAn?$AAk?$AAe?$AAr?$AAn?$AAe?$AAl?$AA?2?$AAc?$AAr?$AAt?$AAs?$AA?2@ 000000014004f580     libucrtd:mbstowcs.obj
 0002:000105e8       ??_C@_1CG@JEHFHLNG@?$AA_?$AAm?$AAb?$AAs?$AAt?$AAo?$AAw?$AAc?$AAs?$AA_?$AAl?$AA_?$AAh?$AAe?$AAl@ 000000014004f5e8     libucrtd:mbstowcs.obj
 0002:00010610       ??_C@_1JM@MEKBACIG@?$AA?$CI?$AAp?$AAw?$AAc?$AAs?$AA?5?$AA?$DN?$AA?$DN?$AA?5?$AAn?$AAu?$AAl?$AAl?$AAp?$AAt@ 000000014004f610     libucrtd:mbstowcs.obj
 0002:000106b0       ??_C@_1BM@PHENIGHD@?$AA_?$AAm?$AAb?$AAs?$AAt?$AAo?$AAw?$AAc?$AAs?$AA_?$AAs?$AA_?$AAl@ 000000014004f6b0     libucrtd:mbstowcs.obj
 0002:000106d0       ??_C@_1CM@LLECFMFH@?$AAb?$AAu?$AAf?$AAf?$AAe?$AAr?$AAS?$AAi?$AAz?$AAe?$AA?5?$AA?$DM?$AA?$DN?$AA?5?$AAI@ 000000014004f6d0     libucrtd:mbstowcs.obj
 0002:00010700       ??_C@_1CO@JNPEPJAL@?$AAr?$AAe?$AAt?$AAs?$AAi?$AAz?$AAe?$AA?5?$AA?$DM?$AA?$DN?$AA?5?$AAs?$AAi?$AAz?$AAe@ 000000014004f700     libucrtd:mbstowcs.obj
 0002:00010758       ??_C@_1CA@NOKNKDIG@?$AAp?$AAw?$AAc?$AAs?$AA?5?$AA?$CB?$AA?$DN?$AA?5?$AAn?$AAu?$AAl?$AAl?$AAp?$AAt?$AAr@ 000000014004f758     libucrtd:wcstombs.obj
 0002:00010780       ??_C@_1GI@EEJDEALP@?$AAm?$AAi?$AAn?$AAk?$AAe?$AAr?$AAn?$AAe?$AAl?$AA?2?$AAc?$AAr?$AAt?$AAs?$AA?2@ 000000014004f780     libucrtd:wcstombs.obj
 0002:000107e8       ??_C@_1CG@LLJCAOHF@?$AA_?$AAw?$AAc?$AAs?$AAt?$AAo?$AAm?$AAb?$AAs?$AA_?$AAl?$AA_?$AAh?$AAe?$AAl@ 000000014004f7e8     libucrtd:wcstombs.obj
 0002:00010810       ??_C@_1JI@DFNKFCLG@?$AA?$CI?$AAd?$AAs?$AAt?$AA?5?$AA?$CB?$AA?$DN?$AA?5?$AAn?$AAu?$AAl?$AAl?$AAp?$AAt?$AAr@ 000000014004f810     libucrtd:wcstombs.obj
 0002:000108a8       ??_C@_1BM@BDMCLLDL@?$AA_?$AAw?$AAc?$AAs?$AAt?$AAo?$AAm?$AAb?$AAs?$AA_?$AAs?$AA_?$AAl@ 000000014004f8a8     libucrtd:wcstombs.obj
 0002:000108c8       ??_C@_1CM@KEOGBFLI@?$AAs?$AAi?$AAz?$AAe?$AAI?$AAn?$AAB?$AAy?$AAt?$AAe?$AAs?$AA?5?$AA?$DO?$AA?5?$AAr@ 000000014004f8c8     libucrtd:wcstombs.obj
 0002:00010900       ??_C@_1FO@IPDGALOE@?$AAm?$AAi?$AAn?$AAk?$AAe?$AAr?$AAn?$AAe?$AAl?$AA?2?$AAc?$AAr?$AAt?$AAs?$AA?2@ 000000014004f900     libucrtd:close.obj
 0002:00010960       ??_C@_1O@EDEJGJBM@?$AA_?$AAc?$AAl?$AAo?$AAs?$AAe@ 000000014004f960     libucrtd:close.obj
 0002:00010970       ??_C@_1FO@KIIHJNFN@?$AAm?$AAi?$AAn?$AAk?$AAe?$AAr?$AAn?$AAe?$AAl?$AA?2?$AAc?$AAr?$AAt?$AAs?$AA?2@ 000000014004f970     libucrtd:lseek.obj
 0002:000109d0       ??_C@_1BK@JOMBNFIM@?$AAc?$AAo?$AAm?$AAm?$AAo?$AAn?$AA_?$AAl?$AAs?$AAe?$AAe?$AAk@ 000000014004f9d0     libucrtd:lseek.obj
 0002:000109f0       ??_C@_1DM@LMLOLGJ@?$AA?$CI?$AA?$CC?$AAI?$AAn?$AAv?$AAa?$AAl?$AAi?$AAd?$AA?5?$AAf?$AAi?$AAl?$AAe?$AA?5@ 000000014004f9f0     libucrtd:lseek.obj
 0002:00010c80       __real@3ff0000000000000    000000014004fc80     libucrtd:ceil.obj
 0002:00010c88       ??_C@_1DG@JNDMIEJL@?$AA?$CI?$AA?$CC?$AAI?$AAn?$AAv?$AAa?$AAl?$AAi?$AAd?$AA?5?$AAi?$AAn?$AAp?$AAu?$AAt@ 000000014004fc88     libucrtd:contrlfp.obj
 0002:00010cc0       ??_C@_1FO@HHLKCIKB@?$AAm?$AAi?$AAn?$AAk?$AAe?$AAr?$AAn?$AAe?$AAl?$AA?2?$AAc?$AAr?$AAt?$AAs?$AA?2@ 000000014004fcc0     libucrtd:contrlfp.obj
 0002:00010d20       ??_C@_1BK@CDOALEA@?$AA_?$AAc?$AAo?$AAn?$AAt?$AAr?$AAo?$AAl?$AAf?$AAp?$AA_?$AAs@ 000000014004fd20     libucrtd:contrlfp.obj
 0002:00010d40       ??_C@_1GC@DLDMJFMI@?$AAm?$AAi?$AAn?$AAk?$AAe?$AAr?$AAn?$AAe?$AAl?$AA?2?$AAc?$AAr?$AAt?$AAs?$AA?2@ 000000014004fd40     libucrtd:_getbuf.obj
 0002:00010da8       ??_C@_0DB@LKJPMJPL@minkernel?2crts?2ucrt?2src?2appcrt?2@ 000000014004fda8     libucrtd:_getbuf.obj
 0002:00010de0       ??_C@_1GG@FIFJEMIA@?$AAm?$AAi?$AAn?$AAk?$AAe?$AAr?$AAn?$AAe?$AAl?$AA?2?$AAc?$AAr?$AAt?$AAs?$AA?2@ 000000014004fde0     libucrtd:strnicmp.obj
 0002:00010e48       ??_C@_1BI@BJLEPLEF@?$AA_?$AAs?$AAt?$AAr?$AAn?$AAi?$AAc?$AAm?$AAp?$AA_?$AAl@ 000000014004fe48     libucrtd:strnicmp.obj
 0002:00010e60       ??_C@_1BE@BHJDFFNA@?$AA_?$AAs?$AAt?$AAr?$AAn?$AAi?$AAc?$AAm?$AAp@ 000000014004fe60     libucrtd:strnicmp.obj
 0002:00010e80       ??_C@_1HK@ELDMAMK@?$AAc?$AAc?$AAh?$AAC?$AAo?$AAu?$AAn?$AAt?$AA1?$AA?$DN?$AA?$DN?$AA0?$AA?5?$AA?$CG?$AA?$CG@ 000000014004fe80     libucrtd:comparestringa.obj
 0002:00010f00       ??_C@_1HC@NLKDIKED@?$AAm?$AAi?$AAn?$AAk?$AAe?$AAr?$AAn?$AAe?$AAl?$AA?2?$AAc?$AAr?$AAt?$AAs?$AA?2@ 000000014004ff00     libucrtd:comparestringa.obj
 0002:00010f78       ??_C@_0DJ@MBLHFEOE@minkernel?2crts?2ucrt?2src?2appcrt?2@ 000000014004ff78     libucrtd:comparestringa.obj
 0002:00010fb8       ??_C@_1BA@BALFACEM@?$AAC?$AAO?$AAN?$AAO?$AAU?$AAT?$AA$@ 000000014004ffb8     libucrtd:initcon.obj
 0002:00010fd0       __log10_256_lead           000000014004ffd0     libucrtd:log10_256_lead_tail_table.obj
 0002:000117e0       __log10_256_tail           00000001400507e0     libucrtd:log10_256_lead_tail_table.obj
 0002:00011ff0       __log_F_inv_qword          0000000140050ff0     libucrtd:log_f_inv_qword_table.obj
 0002:00012800       ??_C@_05HGHHAHAP@log10@    0000000140051800     libucrtd:log_special.obj
 0002:00012810       ??_C@_1EK@PDBKILLM@?$AA?$CI?$AAm?$AAa?$AAs?$AAk?$AA?$CG?$AA?$HO?$AA?$CI?$AA_?$AAM?$AAC?$AAW?$AA_?$AAD?$AAN@ 0000000140051810     libucrtd:ieee.obj
 0002:00012860       ??_C@_1GC@IEFABLII@?$AAm?$AAi?$AAn?$AAk?$AAe?$AAr?$AAn?$AAe?$AAl?$AA?2?$AAc?$AAr?$AAt?$AAs?$AA?2@ 0000000140051860     libucrtd:ieee.obj
 0002:000128e8       ??_7type_info@@6B@         00000001400518e8     LIBCMTD:std_type_info_static.obj
 0002:00012950       _load_config_used          0000000140051950     LIBCMTD:loadcfg.obj
 0002:00012b00       ??_R4exception@std@@6B@    0000000140051b00     libvcruntimed:frame.obj
 0002:00012b28       ??_R3exception@std@@8      0000000140051b28     libvcruntimed:frame.obj
 0002:00012b40       ??_R2exception@std@@8      0000000140051b40     libvcruntimed:frame.obj
 0002:00012b50       ??_R1A@?0A@EA@exception@std@@8 0000000140051b50     libvcruntimed:frame.obj
 0002:00012b78       ??_R4bad_exception@std@@6B@ 0000000140051b78     libvcruntimed:frame.obj
 0002:00012ba0       ??_R3bad_exception@std@@8  0000000140051ba0     libvcruntimed:frame.obj
 0002:00012bb8       ??_R2bad_exception@std@@8  0000000140051bb8     libvcruntimed:frame.obj
 0002:00012bd0       ??_R1A@?0A@EA@bad_exception@std@@8 0000000140051bd0     libvcruntimed:frame.obj
 0002:00012bf8       ??_R4type_info@@6B@        0000000140051bf8     LIBCMTD:std_type_info_static.obj
 0002:00012c20       ??_R3type_info@@8          0000000140051c20     LIBCMTD:std_type_info_static.obj
 0002:00012c38       ??_R2type_info@@8          0000000140051c38     LIBCMTD:std_type_info_static.obj
 0002:00012c48       ??_R1A@?0A@EA@type_info@@8 0000000140051c48     LIBCMTD:std_type_info_static.obj
 0002:00012c6c       __volatile_metadata        0000000140051c6c     <linker-defined>
 0002:00012ff8       __rtc_iaa                  0000000140051ff8     LIBCMTD:initsect.obj
 0002:00013000       __rtc_izz                  0000000140052000     LIBCMTD:initsect.obj
 0002:00013008       __rtc_taa                  0000000140052008     LIBCMTD:initsect.obj
 0002:00013010       __rtc_tzz                  0000000140052010     LIBCMTD:initsect.obj
 0002:000141d8       _TI2?AVbad_exception@std@@ 00000001400531d8     libvcruntimed:frame.obj
 0002:000141f8       _CTA2?AVbad_exception@std@@ 00000001400531f8     libvcruntimed:frame.obj
 0002:00014210       _CT??_R0?AVbad_exception@std@@@8??0bad_exception@std@@QEAA@AEBV01@@Z24 0000000140053210     libvcruntimed:frame.obj
 0002:00014238       _CT??_R0?AVexception@std@@@8??0exception@std@@QEAA@AEBV01@@Z24 0000000140053238     libvcruntimed:frame.obj
 0002:0001425c       __IMPORT_DESCRIPTOR_WS2_32 000000014005325c     Ws2_32:WS2_32.dll
 0002:00014270       __IMPORT_DESCRIPTOR_KERNEL32 0000000140053270     kernel32:KERNEL32.dll
 0002:00014284       __NULL_IMPORT_DESCRIPTOR   0000000140053284     Ws2_32:WS2_32.dll
 0003:00000000       __security_cookie          0000000140054000     LIBCMTD:gs_cookie.obj
 0003:00000008       __security_cookie_complement 0000000140054008     LIBCMTD:gs_cookie.obj
 0003:00000010       __scrt_native_dllmain_reason 0000000140054010     LIBCMTD:utility.obj
 0003:00000014       __scrt_default_matherr     0000000140054014     LIBCMTD:matherr.obj
 0003:00000018       __isa_available            0000000140054018     LIBCMTD:cpu_disp.obj
 0003:0000001c       __isa_enabled              000000014005401c     LIBCMTD:cpu_disp.obj
 0003:00000020       __memcpy_nt_iters          0000000140054020     LIBCMTD:cpu_disp.obj
 0003:00000028       __memset_nt_iters          0000000140054028     LIBCMTD:cpu_disp.obj
 0003:00000050       _iob                       0000000140054050     libucrtd:_file.obj
 0003:0000015c       _crtDbgFlag                000000014005415c     libucrtd:debug_heap.obj
 0003:00000160       _crtBreakAlloc             0000000140054160     libucrtd:debug_heap.obj
 0003:00000170       __abort_behavior           0000000140054170     libucrtd:abort.obj
 0003:00000190       __acrt_initial_locale_data 0000000140054190     libucrtd:nlsdata.obj
 0003:000002e8       __acrt_initial_locale_pointers 00000001400542e8     libucrtd:nlsdata.obj
 0003:000002f8       __acrt_wide_c_locale_string 00000001400542f8     libucrtd:nlsdata.obj
 0003:00000300       __badioinfo                0000000140054300     libucrtd:ioinit.obj
 0003:00000350       __acrt_initial_multibyte_data 0000000140054350     libucrtd:mbctype.obj
 0003:00000890       _pwctype                   0000000140054890     libucrtd:ctype.obj
 0003:000008a0       __acrt_lconv_c             00000001400548a0     libucrtd:localeconv.obj
 0003:00000938       __acrt_lconv_static_decimal 0000000140054938     libucrtd:localeconv.obj
 0003:0000093c       __acrt_lconv_static_W_decimal 000000014005493c     libucrtd:localeconv.obj
 0003:00000940       __globallocalestatus       0000000140054940     libucrtd:glstatus.obj
 0003:00000948       _pfnAllocHook              0000000140054948     libucrtd:debug_heap_hook.obj
 0003:00000950       _crtAssertBusy             0000000140054950     libucrtd:dbgrptt.obj
 0003:00000958       _CrtDbgMode                0000000140054958     libucrtd:dbgrptt.obj
 0003:00000968       _CrtDbgFile                0000000140054968     libucrtd:dbgrptt.obj
 0003:00000980       _lookuptrailbytes          0000000140054980     libucrtd:read.obj
 0003:00000aa0       _fltused                   0000000140054aa0     LIBCMTD:fltused.obj
 0003:00000ab0       ??_R0?AVbad_exception@std@@@8 0000000140054ab0     libvcruntimed:frame.obj
 0003:00000ad8       ??_R0?AVexception@std@@@8  0000000140054ad8     libvcruntimed:frame.obj
 0003:00000b00       ??_R0?AVtype_info@@@8      0000000140054b00     LIBCMTD:std_type_info_static.obj
 0003:00000b20       ?_OptionsStorage@?1??__local_stdio_printf_options@@9@4_KA 0000000140054b20     testserver.obj
 0003:000010a0       __scrt_current_native_startup_state 00000001400550a0     LIBCMTD:utility.obj
 0003:000010a8       __scrt_native_startup_lock 00000001400550a8     LIBCMTD:utility.obj
 0003:000010f0       ?__type_info_root_node@@3U__type_info_node@@A 00000001400550f0     LIBCMTD:tncleanup.obj
 0003:00001100       ?_OptionsStorage@?1??__local_stdio_scanf_options@@9@4_KA 0000000140055100     LIBCMTD:default_local_stdio_options.obj
 0003:00001108       __scrt_debugger_hook_flag  0000000140055108     LIBCMTD:utility_desktop.obj
 0003:0000110c       __favor                    000000014005510c     LIBCMTD:cpu_disp.obj
 0003:00001110       ?__WinRTOutOfMemoryExceptionCallback@@3P6APEAXXZEA 0000000140055110     libvcruntimed:ehhelpers.obj
 0003:000011d0       ?pArgList@UnDecorator@@0PEAVReplicator@@EA 00000001400551d0     libvcruntimed:undname.obj
 0003:000011d8       ?pZNameList@UnDecorator@@0PEAVReplicator@@EA 00000001400551d8     libvcruntimed:undname.obj
 0003:000011e0       ?pTemplateArgList@UnDecorator@@0PEAVReplicator@@EA 00000001400551e0     libvcruntimed:undname.obj
 0003:000011e8       ?gName@UnDecorator@@0PEBDEB 00000001400551e8     libvcruntimed:undname.obj
 0003:000011f0       ?name@UnDecorator@@0PEBDEB 00000001400551f0     libvcruntimed:undname.obj
 0003:000011f8       ?disableFlags@UnDecorator@@0KA 00000001400551f8     libvcruntimed:undname.obj
 0003:000011fc       ?fExplicitTemplateParams@UnDecorator@@0_NA 00000001400551fc     libvcruntimed:undname.obj
 0003:000011fd       ?fGetTemplateArgumentList@UnDecorator@@0_NA 00000001400551fd     libvcruntimed:undname.obj
 0003:00001200       ?m_pGetParameter@UnDecorator@@0P6APEADJ@ZEA 0000000140055200     libvcruntimed:undname.obj
 0003:00001208       ?m_CHPENameOffset@UnDecorator@@0KA 0000000140055208     libvcruntimed:undname.obj
 0003:0000120c       ?m_recursionLevel@UnDecorator@@0KA 000000014005520c     libvcruntimed:undname.obj
 0003:00001278       __pPurecall                0000000140055278     libvcruntimed:purevirt_data.obj
 0003:00001290       ?c_exit_complete@?1???R<lambda_6e4b09c48022b2350581041d5f6b0c4c>@@QEBA@XZ@4_NA 0000000140055290     libucrtd:exit.obj
 0003:00001298       _nstream                   0000000140055298     libucrtd:_file.obj
 0003:000012a0       __piob                     00000001400552a0     libucrtd:_file.obj
 0003:000012a8       _cflush                    00000001400552a8     libucrtd:_file.obj
 0003:000019e8       _environ_table             00000001400559e8     libucrtd:environment_initialization.obj
 0003:000019f0       _wenviron_table            00000001400559f0     libucrtd:environment_initialization.obj
 0003:000019f8       __dcrt_initial_wide_environment 00000001400559f8     libucrtd:environment_initialization.obj
 0003:00001a00       __dcrt_initial_narrow_environment 0000000140055a00     libucrtd:environment_initialization.obj
 0003:00001a08       _pgmptr                    0000000140055a08     libucrtd:argv_data.obj
 0003:00001a10       __argc                     0000000140055a10     libucrtd:argv_data.obj
 0003:00001a18       __argv                     0000000140055a18     libucrtd:argv_data.obj
 0003:00001a20       __wargv                    0000000140055a20     libucrtd:argv_data.obj
 0003:00001a28       _acmdln                    0000000140055a28     libucrtd:argv_data.obj
 0003:00001a30       _wcmdln                    0000000140055a30     libucrtd:argv_data.obj
 0003:00001a38       __acrt_locale_changed_data 0000000140055a38     libucrtd:wsetlocale.obj
 0003:00001a40       _commode                   0000000140055a40     libucrtd:ncommode.obj
 0003:00001a48       __acrt_atexit_table        0000000140055a48     libucrtd:onexit.obj
 0003:00001a60       __acrt_at_quick_exit_table 0000000140055a60     libucrtd:onexit.obj
 0003:00001aa8       _pfnDumpClient             0000000140055aa8     libucrtd:debug_heap.obj
 0003:00001d00       __acrt_current_locale_data 0000000140055d00     libucrtd:nlsdata.obj
 0003:00001ec0       __pioinfo                  0000000140055ec0     libucrtd:ioinit.obj
 0003:000022c0       _nhandle                   00000001400562c0     libucrtd:ioinit.obj
 0003:000022d8       __acrt_stdout_buffer       00000001400562d8     libucrtd:_sftbuf.obj
 0003:000022e0       __acrt_stderr_buffer       00000001400562e0     libucrtd:_sftbuf.obj
 0003:000022f0       _mbctype                   00000001400562f0     libucrtd:mbctype.obj
 0003:000022f8       _mbcasemap                 00000001400562f8     libucrtd:mbctype.obj
 0003:00002300       __acrt_current_multibyte_data 0000000140056300     libucrtd:mbctype.obj
 0003:00002310       _fmode                     0000000140056310     libucrtd:txtmode.obj
 0003:00002314       __acrt_lconv_static_null   0000000140056314     libucrtd:localeconv.obj
 0003:00002318       __acrt_lconv_static_W_null 0000000140056318     libucrtd:localeconv.obj
 0003:00002320       __acrt_heap                0000000140056320     libucrtd:heap_handle.obj
 0003:00002350       _pfnReportHook             0000000140056350     libucrtd:dbgrptt.obj
 0003:00002358       _pReportHookList           0000000140056358     libucrtd:dbgrptt.obj
 0003:00002360       _pReportHookListW          0000000140056360     libucrtd:dbgrptt.obj
 0003:00002370       __fma3_is_available        0000000140056370     libucrtd:fma3_available.obj
 0003:00002374       __use_fma3_lib             0000000140056374     libucrtd:fma3_available.obj
 0003:00002380       __scrt_ucrt_dll_is_in_use  0000000140056380     <common>
 0003:00002388       __dyn_tls_dtor_callback    0000000140056388     <common>
 0003:00002390       __dyn_tls_init_callback    0000000140056390     <common>

 entry point at        0001:00001340

 Static symbols

 0000:fffa3000       .debug$S                   0000000140000000     Ws2_32:WS2_32.dll
 0000:fffa3000       .debug$S                   0000000140000000     Ws2_32:WS2_32.dll
 0000:fffa3000       .debug$S                   0000000140000000     Ws2_32:WS2_32.dll
 0000:fffa3000       .debug$S                   0000000140000000     Ws2_32:WS2_32.dll
 0000:fffa3000       .debug$S                   0000000140000000     Ws2_32:WS2_32.dll
 0000:fffa3000       .debug$S                   0000000140000000     Ws2_32:WS2_32.dll
 0000:fffa3000       .debug$S                   0000000140000000     Ws2_32:WS2_32.dll
 0000:fffa3000       .debug$S                   0000000140000000     Ws2_32:WS2_32.dll
 0000:fffa3000       .debug$S                   0000000140000000     Ws2_32:WS2_32.dll
 0000:fffa3000       .debug$S                   0000000140000000     Ws2_32:WS2_32.dll
 0000:fffa3000       .debug$S                   0000000140000000     Ws2_32:WS2_32.dll
 0000:fffa3000       .debug$S                   0000000140000000     kernel32:KERNEL32.dll
 0000:fffa3000       .debug$S                   0000000140000000     kernel32:KERNEL32.dll
 0000:fffa3000       .debug$S                   0000000140000000     kernel32:KERNEL32.dll
 0000:fffa3000       .debug$S                   0000000140000000     kernel32:KERNEL32.dll
 0000:fffa3000       .debug$S                   0000000140000000     kernel32:KERNEL32.dll
 0000:fffa3000       .debug$S                   0000000140000000     kernel32:KERNEL32.dll
 0000:fffa3000       .debug$S                   0000000140000000     kernel32:KERNEL32.dll
 0000:fffa3000       .debug$S                   0000000140000000     kernel32:KERNEL32.dll
 0000:fffa3000       .debug$S                   0000000140000000     kernel32:KERNEL32.dll
 0000:fffa3000       .debug$S                   0000000140000000     kernel32:KERNEL32.dll
 0000:fffa3000       .debug$S                   0000000140000000     kernel32:KERNEL32.dll
 0000:fffa3000       .debug$S                   0000000140000000     kernel32:KERNEL32.dll
 0000:fffa3000       .debug$S                   0000000140000000     kernel32:KERNEL32.dll
 0000:fffa3000       .debug$S                   0000000140000000     kernel32:KERNEL32.dll
 0000:fffa3000       .debug$S                   0000000140000000     kernel32:KERNEL32.dll
 0000:fffa3000       .debug$S                   0000000140000000     kernel32:KERNEL32.dll
 0000:fffa3000       .debug$S                   0000000140000000     kernel32:KERNEL32.dll
 0000:fffa3000       .debug$S                   0000000140000000     kernel32:KERNEL32.dll
 0000:fffa3000       .debug$S                   0000000140000000     kernel32:KERNEL32.dll
 0000:fffa3000       .debug$S                   0000000140000000     kernel32:KERNEL32.dll
 0000:fffa3000       .debug$S                   0000000140000000     kernel32:KERNEL32.dll
 0000:fffa3000       .debug$S                   0000000140000000     kernel32:KERNEL32.dll
 0000:fffa3000       .debug$S                   0000000140000000     kernel32:KERNEL32.dll
 0000:fffa3000       .debug$S                   0000000140000000     kernel32:KERNEL32.dll
 0000:fffa3000       .debug$S                   0000000140000000     kernel32:KERNEL32.dll
 0000:fffa3000       .debug$S                   0000000140000000     kernel32:KERNEL32.dll
 0000:fffa3000       .debug$S                   0000000140000000     kernel32:KERNEL32.dll
 0000:fffa3000       .debug$S                   0000000140000000     kernel32:KERNEL32.dll
 0000:fffa3000       .debug$S                   0000000140000000     kernel32:KERNEL32.dll
 0000:fffa3000       .debug$S                   0000000140000000     kernel32:KERNEL32.dll
 0000:fffa3000       .debug$S                   0000000140000000     kernel32:KERNEL32.dll
 0000:fffa3000       .debug$S                   0000000140000000     kernel32:KERNEL32.dll
 0000:fffa3000       .debug$S                   0000000140000000     kernel32:KERNEL32.dll
 0000:fffa3000       .debug$S                   0000000140000000     kernel32:KERNEL32.dll
 0000:fffa3000       .debug$S                   0000000140000000     kernel32:KERNEL32.dll
 0000:fffa3000       .debug$S                   0000000140000000     kernel32:KERNEL32.dll
 0000:fffa3000       .debug$S                   0000000140000000     kernel32:KERNEL32.dll
 0000:fffa3000       .debug$S                   0000000140000000     kernel32:KERNEL32.dll
 0000:fffa3000       .debug$S                   0000000140000000     kernel32:KERNEL32.dll
 0000:fffa3000       .debug$S                   0000000140000000     kernel32:KERNEL32.dll
 0000:fffa3000       .debug$S                   0000000140000000     kernel32:KERNEL32.dll
 0000:fffa3000       .debug$S                   0000000140000000     kernel32:KERNEL32.dll
 0000:fffa3000       .debug$S                   0000000140000000     kernel32:KERNEL32.dll
 0000:fffa3000       .debug$S                   0000000140000000     kernel32:KERNEL32.dll
 0000:fffa3000       .debug$S                   0000000140000000     kernel32:KERNEL32.dll
 0000:fffa3000       .debug$S                   0000000140000000     kernel32:KERNEL32.dll
 0000:fffa3000       .debug$S                   0000000140000000     kernel32:KERNEL32.dll
 0000:fffa3000       .debug$S                   0000000140000000     kernel32:KERNEL32.dll
 0000:fffa3000       .debug$S                   0000000140000000     kernel32:KERNEL32.dll
 0000:fffa3000       .debug$S                   0000000140000000     kernel32:KERNEL32.dll
 0000:fffa3000       .debug$S                   0000000140000000     kernel32:KERNEL32.dll
 0000:fffa3000       .debug$S                   0000000140000000     kernel32:KERNEL32.dll
 0000:fffa3000       .debug$S                   0000000140000000     kernel32:KERNEL32.dll
 0000:fffa3000       .debug$S                   0000000140000000     kernel32:KERNEL32.dll
 0000:fffa3000       .debug$S                   0000000140000000     kernel32:KERNEL32.dll
 0000:fffa3000       .debug$S                   0000000140000000     kernel32:KERNEL32.dll
 0000:fffa3000       .debug$S                   0000000140000000     kernel32:KERNEL32.dll
 0000:fffa3000       .debug$S                   0000000140000000     kernel32:KERNEL32.dll
 0000:fffa3000       .debug$S                   0000000140000000     kernel32:KERNEL32.dll
 0000:fffa3000       .debug$S                   0000000140000000     kernel32:KERNEL32.dll
 0000:fffa3000       .debug$S                   0000000140000000     kernel32:KERNEL32.dll
 0000:fffa3000       .debug$S                   0000000140000000     kernel32:KERNEL32.dll
 0000:fffa3000       .debug$S                   0000000140000000     kernel32:KERNEL32.dll
 0000:fffa3000       .debug$S                   0000000140000000     kernel32:KERNEL32.dll
 0000:fffa3000       .debug$S                   0000000140000000     kernel32:KERNEL32.dll
 0000:fffa3000       .debug$S                   0000000140000000     kernel32:KERNEL32.dll
 0000:fffa3000       .debug$S                   0000000140000000     kernel32:KERNEL32.dll
 0000:fffa3000       .debug$S                   0000000140000000     kernel32:KERNEL32.dll
 0000:fffa3000       .debug$S                   0000000140000000     kernel32:KERNEL32.dll
 0000:fffa3000       .debug$S                   0000000140000000     kernel32:KERNEL32.dll
 0000:fffa3000       .debug$S                   0000000140000000     kernel32:KERNEL32.dll
 0000:fffa3000       .debug$S                   0000000140000000     kernel32:KERNEL32.dll
 0000:fffa3000       .debug$S                   0000000140000000     kernel32:KERNEL32.dll
 0000:fffa3000       .debug$S                   0000000140000000     kernel32:KERNEL32.dll
 0000:fffa3000       .debug$S                   0000000140000000     kernel32:KERNEL32.dll
 0000:fffa3000       .debug$S                   0000000140000000     kernel32:KERNEL32.dll
 0000:fffa3000       .debug$S                   0000000140000000     kernel32:KERNEL32.dll
 0000:fffa3000       .debug$S                   0000000140000000     kernel32:KERNEL32.dll
 0000:fffa3000       .debug$S                   0000000140000000     kernel32:KERNEL32.dll
 0000:fffa3000       .debug$S                   0000000140000000     kernel32:KERNEL32.dll
 0000:fffa3000       .debug$S                   0000000140000000     kernel32:KERNEL32.dll
 0000:fffa3000       .debug$S                   0000000140000000     kernel32:KERNEL32.dll
 0000:fffa3000       .debug$S                   0000000140000000     kernel32:KERNEL32.dll
 0000:fffa3000       .debug$S                   0000000140000000     kernel32:KERNEL32.dll
 0000:fffa3000       .debug$S                   0000000140000000     kernel32:KERNEL32.dll
 0000:fffa3000       .debug$S                   0000000140000000     kernel32:KERNEL32.dll
 0000:fffa3000       .debug$S                   0000000140000000     kernel32:KERNEL32.dll
 0001:00000000       ?createServer@@YAXPEAUServer@@PEADH@Z 0000000140001000 f   testserver.obj
 0001:000000e0       ?waitForConnection@@YAXPEAUServer@@@Z 00000001400010e0 f   testserver.obj
 0001:00000130       ?recvq@@YAXPEAUServer@@PEADH@Z 0000000140001130 f   testserver.obj
 0001:000001e0       ?sendq@@YAXPEAUServer@@PEADH@Z 00000001400011e0 f   testserver.obj
 0001:00000270       ?recvBuffer@@YAHHPEAUaddrinfo@@HHPEADH@Z 0000000140001270 f   testserver.obj
 0001:000004a0       ?sendBuffer@@YAHHPEAUaddrinfo@@HPEADH@Z 00000001400014a0 f   testserver.obj
 0001:000006f0       ?timeout@@YAHH@Z           00000001400016f0 f   testserver.obj
 0001:00000830       ?recvPlatform@@YAHHPEADHH@Z 0000000140001830 f   testserver.obj
 0001:00000870       ?recvfromPlatform@@YAHHPEADHHPEAUaddrinfo@@@Z 0000000140001870 f   testserver.obj
 0001:000008d0       ?sendPlatform@@YAHHPEADHH@Z 00000001400018d0 f   testserver.obj
 0001:00000910       ?addressInit@@YAPEAUaddrinfo@@PEADH@Z 0000000140001910 f   testserver.obj
 0001:00000a00       ?socketq@@YAHUaddrinfo@@@Z 0000000140001a00 f   testserver.obj
 0001:00000a70       ?bindq@@YAXHUaddrinfo@@@Z  0000000140001a70 f   testserver.obj
 0001:00000ad0       ?listenq@@YAXH@Z           0000000140001ad0 f   testserver.obj
 0001:00000b20       ?acceptq@@YAHHUaddrinfo@@@Z 0000000140001b20 f   testserver.obj
 0001:00000f90       $$000000                   0000000140001f90     LIBCMTD:amdsecgs.obj
 0001:00000fc0       ?pre_c_initialization@@YAHXZ 0000000140001fc0 f   LIBCMTD:exe_main.obj
 0001:00001080       ?post_pgo_initialization@@YAHXZ 0000000140002080 f   LIBCMTD:exe_main.obj
 0001:00001090       ?pre_cpp_initialization@@YAXXZ 0000000140002090 f   LIBCMTD:exe_main.obj
 0001:000010b0       ?__scrt_common_main@@YAHXZ 00000001400020b0 f   LIBCMTD:exe_main.obj
 0001:000010d0       ?__scrt_common_main_seh@@YAHXZ 00000001400020d0 f   LIBCMTD:exe_main.obj
 0001:000012a0       ?invoke_main@@YAHXZ        00000001400022a0 f   LIBCMTD:exe_main.obj
 0001:00001540       ?capture_current_context@@YAXQEAU_CONTEXT@@@Z 0000000140002540 f   libucrtd:invalid_parameter.obj
 0001:00001540       capture_current_context    0000000140002540 f   LIBCMTD:gs_report.obj
 0001:000015e0       capture_previous_context   00000001400025e0 f   LIBCMTD:gs_report.obj
 0001:000016a0       ?find_pe_section@@YAPEAU_IMAGE_SECTION_HEADER@@QEAE_K@Z 00000001400026a0 f   LIBCMTD:utility.obj
 0001:00001770       ?is_potentially_valid_image_base@@YA_NQEAX@Z 0000000140002770 f   LIBCMTD:utility.obj
 0001:00001ba0       __get_entropy              0000000140002ba0 f   LIBCMTD:gs_support.obj
 0001:00001d40       initialize_environment     0000000140002d40 f   libucrtd:initialization.obj
 0001:00001d40       initialize_global_state_isolation 0000000140002d40 f   libucrtd:initialization.obj
 0001:00001d50       init_memcpy_functions      0000000140002d50 f   libvcruntimed:initialization.obj
 0001:00002b40       ??0<lambda_8d0ee55de4b1038c4002e0adecdf1839>@@QEAA@AEBQEAU__acrt_ptd@@@Z 0000000140003b40 f i libucrtd:per_thread_data.obj
 0001:00002b40       ??0<lambda_8f455de75cd7d7f24b4096f044d8b9e6>@@QEAA@AEBQEAU__acrt_ptd@@@Z 0000000140003b40 f i libucrtd:per_thread_data.obj
 0001:00002b40       ??0<lambda_e157831efee4ea0afb0a2ace5dd5fd0d>@@QEAA@AEBQEAU__acrt_ptd@@@Z 0000000140003b40 f i libucrtd:per_thread_data.obj
 0001:00002b40       ??0<lambda_4e7105787b7b0e0227fbf2b2d883fa65>@@QEAA@AEBH@Z 0000000140003b40 f i libucrtd:close.obj
 0001:00002b40       ??0<lambda_5533cddd4bda0037814beee657757329>@@QEAA@AEBH@Z 0000000140003b40 f i libucrtd:commit.obj
 0001:00002b40       ??0<lambda_df1553121bfa390f1154bd84936f2730>@@QEAA@AEAV?$__crt_unique_heap_ptr@PEADU__crt_internal_free_policy@@@@@Z 0000000140003b40 f i libucrtd:argv_parsing.obj
 0001:00002b40       ??0<lambda_d121dba8a4adeaf3a9819e48611155df>@@QEAA@AEBQEAU_onexit_table_t@@@Z 0000000140003b40 f i libucrtd:onexit.obj
 0001:00002bc0       ?begin@?$argument_list@D@?A0x5f5c8891@@QEBAPEAPEADXZ 0000000140003bc0 f i libucrtd:argv_wildcards.obj
 0001:00002da0       ?_FilterSetCurrentException@@YAKPEAU_EXCEPTION_POINTERS@@E@Z 0000000140003da0 f   libvcruntimed:ehhelpers.obj
 0001:00003000       $$000000                   0000000140004000     libvcruntimed:notify.obj
 0001:000030b0       ??0scoped_get_last_error_reset@?A0x842715fc@@QEAA@XZ 00000001400040b0 f   libvcruntimed:per_thread_data.obj
 0001:000030d0       ??1scoped_get_last_error_reset@?A0x842715fc@@QEAA@XZ 00000001400040d0 f   libvcruntimed:per_thread_data.obj
 0001:00003120       ?store_and_initialize_ptd@@YA_NQEAU__vcrt_ptd@@@Z 0000000140004120 f   libvcruntimed:per_thread_data.obj
 0001:00003560       ?invalid_function_sentinel@@YAPEAXXZ 0000000140004560 f   libucrtd:winapi_thunks.obj
 0001:00003560       ?invalid_function_sentinel@@YAPEAXXZ 0000000140004560 f   libvcruntimed:winapi_downlevel.obj
 0001:00003570       ?try_get_FlsAlloc@@YAP6AKP6AXPEAX@Z@ZXZ 0000000140004570 f   libvcruntimed:winapi_downlevel.obj
 0001:000035a0       ?try_get_FlsFree@@YAP6AHK@ZXZ 00000001400045a0 f   libvcruntimed:winapi_downlevel.obj
 0001:000035d0       ?try_get_FlsGetValue@@YAP6APEAXK@ZXZ 00000001400045d0 f   libvcruntimed:winapi_downlevel.obj
 0001:00003600       ?try_get_FlsSetValue@@YAP6AHKPEAX@ZXZ 0000000140004600 f   libvcruntimed:winapi_downlevel.obj
 0001:00003630       ?try_get_InitializeCriticalSectionEx@@YAP6AHPEAU_RTL_CRITICAL_SECTION@@KK@ZXZ 0000000140004630 f   libvcruntimed:winapi_downlevel.obj
 0001:00003660       ?try_get_first_available_module@@YAPEAUHINSTANCE__@@QEBW4module_id@?A0xbc0cc709@@0@Z 0000000140004660 f   libvcruntimed:winapi_downlevel.obj
 0001:000036c0       ?try_get_function@@YAPEAXW4function_id@?A0xbc0cc709@@QEBDQEBW4module_id@2@2@Z 00000001400046c0 f   libvcruntimed:winapi_downlevel.obj
 0001:00003830       ?try_get_module@@YAPEAUHINSTANCE__@@W4module_id@?A0xbc0cc709@@@Z 0000000140004830 f   libvcruntimed:winapi_downlevel.obj
 0001:00003990       ?try_get_proc_address_from_first_available_module@@YAPEAXQEBDQEBW4module_id@?A0xbc0cc709@@1@Z 0000000140004990 f   libvcruntimed:winapi_downlevel.obj
 0001:000039e0       ?try_load_library_from_system_directory@@YAPEAUHINSTANCE__@@QEB_W@Z 00000001400049e0 f   libvcruntimed:winapi_downlevel.obj
 0001:00003c10       $$000000                   0000000140004c10     libvcruntimed:memcpy.obj
 0001:00004320       ??$SehTransFilter@V__FrameHandler3@@@@YAHPEAU_EXCEPTION_POINTERS@@PEAUEHExceptionRecord@@PEA_KPEAU_CONTEXT@@PEAU_xDISPATCHER_CONTEXT@@PEBU_s_FuncInfo@@HPEAH@Z 0000000140005320 f   libvcruntimed:risctrnsctrl.obj
 0001:00005030       ?adjustIp@@YA_KPEAU_xDISPATCHER_CONTEXT@@_K@Z 0000000140006030 f   libvcruntimed:ehstate.obj
 0001:00005040       ??$BuildCatchObjectHelperInternal@V__FrameHandler3@@@@YAHPEAUEHExceptionRecord@@PEAXPEBU_s_HandlerType@@PEBU_s_CatchableType@@@Z 0000000140006040 f   libvcruntimed:frame.obj
 0001:00005420       ??$BuildCatchObjectInternal@V__FrameHandler3@@@@YAXPEAUEHExceptionRecord@@PEAXPEBU_s_HandlerType@@PEBU_s_CatchableType@@@Z 0000000140006420 f   libvcruntimed:frame.obj
 0001:00005570       ??$CatchIt@V__FrameHandler3@@@@YAXPEAUEHExceptionRecord@@PEA_KPEAU_CONTEXT@@PEAU_xDISPATCHER_CONTEXT@@PEBU_s_FuncInfo@@PEBU_s_HandlerType@@PEBU_s_CatchableType@@PEBU_s_TryBlockMapEntry@@H1EE@Z 0000000140006570 f   libvcruntimed:frame.obj
 0001:000056b0       ??$FindHandler@V__FrameHandler3@@@@YAXPEAUEHExceptionRecord@@PEA_KPEAU_CONTEXT@@PEAU_xDISPATCHER_CONTEXT@@PEBU_s_FuncInfo@@EH1@Z 00000001400066b0 f   libvcruntimed:frame.obj
 0001:00005e80       ??$FindHandlerForForeignException@V__FrameHandler3@@@@YAXPEAUEHExceptionRecord@@PEA_KPEAU_CONTEXT@@PEAU_xDISPATCHER_CONTEXT@@PEBU_s_FuncInfo@@HH1@Z 0000000140006e80 f   libvcruntimed:frame.obj
 0001:000068a0       ??0<lambda_92619d2358a28f41a33ba319515a20b9>@@QEAA@AEBQEAU__acrt_ptd@@AEBQEAPEAU__crt_locale_data@@@Z 00000001400078a0 f i libucrtd:per_thread_data.obj
 0001:000068a0       ??0<lambda_bd5a608237428601b7e45fbdc72b1ae8>@@QEAA@AEBQEAU__acrt_ptd@@AEBQEAPEAU__crt_multibyte_data@@@Z 00000001400078a0 f i libucrtd:mbctype.obj
 0001:000068a0       ??0<lambda_3b83eb014488ad801d84acef5aaf14d3>@@QEAA@AEBQEAU_onexit_table_t@@AEBQ6AHXZ@Z 00000001400078a0 f i libucrtd:onexit.obj
 0001:00006f30       ?ExFilterRethrow@@YAHPEAU_EXCEPTION_POINTERS@@PEAUEHExceptionRecord@@PEAH@Z 0000000140007f30 f   libvcruntimed:frame.obj
 0001:00007350       ?IsInExceptionSpec@@YAEPEAUEHExceptionRecord@@PEBU_s_ESTypeList@@@Z 0000000140008350 f   libvcruntimed:frame.obj
 0001:00007470       ?Is_bad_exception_allowed@@YAEPEBU_s_ESTypeList@@@Z 0000000140008470 f   libvcruntimed:frame.obj
 0001:000075f0       ?__RethrowException@@YAXPEAUEHExceptionRecord@@@Z 00000001400085f0 f   libvcruntimed:frame.obj
 0001:00007810       $$000000                   0000000140008810     libvcruntimed:memset.obj
 0001:000079d0       $$000000                   00000001400089d0     libvcruntimed:handlers.obj
 0001:00007f70       ??$?RV<lambda_d80eeec6fff315bfe5c115232f3240e3>@@AEAV<lambda_6e4b09c48022b2350581041d5f6b0c4c>@@V<lambda_2358e3775559c9db80273638284d5e45>@@@?$__crt_seh_guarded_call@X@@QEAAX$$QEAV<lambda_d80eeec6fff315bfe5c115232f3240e3>@@AEAV<lambda_6e4b09c48022b2350581041d5f6b0c4c>@@$$QEAV<lambda_2358e3775559c9db80273638284d5e45>@@@Z 0000000140008f70 f   libucrtd:exit.obj
 0001:00007fb0       ??$__acrt_lock_and_call@V<lambda_6e4b09c48022b2350581041d5f6b0c4c>@@@@YAXW4__acrt_lock_id@@$$QEAV<lambda_6e4b09c48022b2350581041d5f6b0c4c>@@@Z 0000000140008fb0 f   libucrtd:exit.obj
 0001:000080d0       ??0<lambda_04ddeca75b7c13fd67716e8dfcef87ee>@@QEAA@AEBW4__acrt_lock_id@@@Z 00000001400090d0 f   libucrtd:per_thread_data.obj
 0001:000080d0       ??0<lambda_0ae27a3a962d80f24befdcbee591983d>@@QEAA@AEBW4__acrt_lock_id@@@Z 00000001400090d0 f   libucrtd:per_thread_data.obj
 0001:000080d0       ??0<lambda_2d41944a1d46af3157314b8a01080d33>@@QEAA@AEBW4__acrt_lock_id@@@Z 00000001400090d0 f   libucrtd:per_thread_data.obj
 0001:000080d0       ??0<lambda_6992ecaafeb10aed2b74cb1fae11a551>@@QEAA@AEBW4__acrt_lock_id@@@Z 00000001400090d0 f   libucrtd:per_thread_data.obj
 0001:000080d0       ??0<lambda_74a0ef281e44d15e1136f792f539efb3>@@QEAA@AEBW4__acrt_lock_id@@@Z 00000001400090d0 f   libucrtd:per_thread_data.obj
 0001:000080d0       ??0<lambda_aa500f224e6afead328df44964fe2772>@@QEAA@AEBW4__acrt_lock_id@@@Z 00000001400090d0 f   libucrtd:per_thread_data.obj
 0001:000080d0       ??0<lambda_aa87e3671a710a21b5dc78c0bdf72e11>@@QEAA@AEBW4__acrt_lock_id@@@Z 00000001400090d0 f   libucrtd:per_thread_data.obj
 0001:000080d0       ??0<lambda_dc504788e8f1664fe9b84e20bfb512f2>@@QEAA@AEBW4__acrt_lock_id@@@Z 00000001400090d0 f   libucrtd:per_thread_data.obj
 0001:000080d0       ??0<lambda_38119f0e861e05405d8a144b9b982f0a>@@QEAA@AEBW4__acrt_lock_id@@@Z 00000001400090d0 f   libucrtd:wsetlocale.obj
 0001:000080d0       ??0<lambda_410d79af7f07d98d83a3f525b3859a53>@@QEAA@AEBW4__acrt_lock_id@@@Z 00000001400090d0 f   libucrtd:wsetlocale.obj
 0001:000080d0       ??0<lambda_53fc7fc888e23d815d7080162c0aeeb2>@@QEAA@AEBH@Z 00000001400090d0 f   libucrtd:close.obj
 0001:000080d0       ??0<lambda_8ddc48ad9d26c778cb15812d1d88fc8a>@@QEAA@AEBH@Z 00000001400090d0 f   libucrtd:close.obj
 0001:000080d0       ??0<lambda_47cffbaa968af5c721c38a4a6f8da44d>@@QEAA@AEBH@Z 00000001400090d0 f   libucrtd:commit.obj
 0001:000080d0       ??0<lambda_4e3dbe6921bc0b5a1a6bc6573fdc859e>@@QEAA@AEBH@Z 00000001400090d0 f   libucrtd:commit.obj
 0001:000080d0       ??0<lambda_728235dc0fc2b1f82d1fa5b3e7102d8f>@@QEAA@AEBW4__acrt_lock_id@@@Z 00000001400090d0 f   libucrtd:mbctype.obj
 0001:000080d0       ??0<lambda_efa02eb69bf647d2f7ff0dd6f1103f72>@@QEAA@AEBW4__acrt_lock_id@@@Z 00000001400090d0 f   libucrtd:mbctype.obj
 0001:000080d0       ??0<lambda_450d765d439847d4c735a33c368b5fc0>@@QEAA@AEBW4__acrt_lock_id@@@Z 00000001400090d0 f   libucrtd:signal.obj
 0001:000080d0       ??0<lambda_601a2a7da3b7a96e9554ac7215c4b07c>@@QEAA@AEBW4__acrt_lock_id@@@Z 00000001400090d0 f   libucrtd:signal.obj
 0001:000080d0       ??0<lambda_2358e3775559c9db80273638284d5e45>@@QEAA@AEBW4__acrt_lock_id@@@Z 00000001400090d0 f   libucrtd:exit.obj
 0001:000080d0       ??0<lambda_d80eeec6fff315bfe5c115232f3240e3>@@QEAA@AEBW4__acrt_lock_id@@@Z 00000001400090d0 f   libucrtd:exit.obj
 0001:000080d0       ??0<lambda_00e911965883f7966597d4c465c83ebc>@@QEAA@AEBW4__acrt_lock_id@@@Z 00000001400090d0 f   libucrtd:onexit.obj
 0001:000080d0       ??0<lambda_6a47f4c8fd0152770a780fc1d70204eb>@@QEAA@AEBW4__acrt_lock_id@@@Z 00000001400090d0 f   libucrtd:onexit.obj
 0001:000080d0       ??0<lambda_6aaa2265f5b6a89667e7d7630012e97a>@@QEAA@AEBW4__acrt_lock_id@@@Z 00000001400090d0 f   libucrtd:onexit.obj
 0001:000080d0       ??0<lambda_dce957679fd779aa27c4ca5c39e09098>@@QEAA@AEBW4__acrt_lock_id@@@Z 00000001400090d0 f   libucrtd:onexit.obj
 0001:000080d0       ??0<lambda_886d6c58226a84441f68b9f2b8217b83>@@QEAA@AEBW4__acrt_lock_id@@@Z 00000001400090d0 f   libucrtd:fflush.obj
 0001:000080d0       ??0<lambda_f7f22ab5edc0698d5f6905b0d3f44752>@@QEAA@AEBW4__acrt_lock_id@@@Z 00000001400090d0 f   libucrtd:fflush.obj
 0001:000080f0       ??0<lambda_6e4b09c48022b2350581041d5f6b0c4c>@@QEAA@AEBW4_crt_exit_cleanup_mode@@AEBW4_crt_exit_return_mode@@AEA_N@Z 00000001400090f0 f   libucrtd:exit.obj
 0001:000080f0       ??0<lambda_ab61a845afdef5b7c387490eaf3616ee>@@QEAA@AEAHAEB_N0@Z 00000001400090f0 f   libucrtd:fflush.obj
 0001:00008160       ??R<lambda_04ddeca75b7c13fd67716e8dfcef87ee>@@QEBAXXZ 0000000140009160 f   libucrtd:per_thread_data.obj
 0001:00008160       ??R<lambda_6992ecaafeb10aed2b74cb1fae11a551>@@QEBAXXZ 0000000140009160 f   libucrtd:per_thread_data.obj
 0001:00008160       ??R<lambda_aa500f224e6afead328df44964fe2772>@@QEBAXXZ 0000000140009160 f   libucrtd:per_thread_data.obj
 0001:00008160       ??R<lambda_dc504788e8f1664fe9b84e20bfb512f2>@@QEBAXXZ 0000000140009160 f   libucrtd:per_thread_data.obj
 0001:00008160       ??R<lambda_38119f0e861e05405d8a144b9b982f0a>@@QEBAXXZ 0000000140009160 f   libucrtd:wsetlocale.obj
 0001:00008160       ??R<lambda_728235dc0fc2b1f82d1fa5b3e7102d8f>@@QEBAXXZ 0000000140009160 f   libucrtd:mbctype.obj
 0001:00008160       ??R<lambda_601a2a7da3b7a96e9554ac7215c4b07c>@@QEBAXXZ 0000000140009160 f   libucrtd:signal.obj
 0001:00008160       ??R<lambda_2358e3775559c9db80273638284d5e45>@@QEBAXXZ 0000000140009160 f   libucrtd:exit.obj
 0001:00008160       ??R<lambda_00e911965883f7966597d4c465c83ebc>@@QEBAXXZ 0000000140009160 f   libucrtd:onexit.obj
 0001:00008160       ??R<lambda_6aaa2265f5b6a89667e7d7630012e97a>@@QEBAXXZ 0000000140009160 f   libucrtd:onexit.obj
 0001:00008160       ??R<lambda_f7f22ab5edc0698d5f6905b0d3f44752>@@QEBAXXZ 0000000140009160 f   libucrtd:fflush.obj
 0001:00008180       ??R<lambda_6e4b09c48022b2350581041d5f6b0c4c>@@QEBA@XZ 0000000140009180 f   libucrtd:exit.obj
 0001:00008280       ??R<lambda_0ae27a3a962d80f24befdcbee591983d>@@QEBAXXZ 0000000140009280 f   libucrtd:per_thread_data.obj
 0001:00008280       ??R<lambda_2d41944a1d46af3157314b8a01080d33>@@QEBAXXZ 0000000140009280 f   libucrtd:per_thread_data.obj
 0001:00008280       ??R<lambda_74a0ef281e44d15e1136f792f539efb3>@@QEBAXXZ 0000000140009280 f   libucrtd:per_thread_data.obj
 0001:00008280       ??R<lambda_aa87e3671a710a21b5dc78c0bdf72e11>@@QEBAXXZ 0000000140009280 f   libucrtd:per_thread_data.obj
 0001:00008280       ??R<lambda_410d79af7f07d98d83a3f525b3859a53>@@QEBAXXZ 0000000140009280 f   libucrtd:wsetlocale.obj
 0001:00008280       ??R<lambda_efa02eb69bf647d2f7ff0dd6f1103f72>@@QEBAXXZ 0000000140009280 f   libucrtd:mbctype.obj
 0001:00008280       ??R<lambda_450d765d439847d4c735a33c368b5fc0>@@QEBAXXZ 0000000140009280 f   libucrtd:signal.obj
 0001:00008280       ??R<lambda_d80eeec6fff315bfe5c115232f3240e3>@@QEBAXXZ 0000000140009280 f   libucrtd:exit.obj
 0001:00008280       ??R<lambda_6a47f4c8fd0152770a780fc1d70204eb>@@QEBAXXZ 0000000140009280 f   libucrtd:onexit.obj
 0001:00008280       ??R<lambda_dce957679fd779aa27c4ca5c39e09098>@@QEBAXXZ 0000000140009280 f   libucrtd:onexit.obj
 0001:00008280       ??R<lambda_886d6c58226a84441f68b9f2b8217b83>@@QEBAXXZ 0000000140009280 f   libucrtd:fflush.obj
 0001:00008310       ?atexit_exception_filter@@YAHK@Z 0000000140009310 f   libucrtd:exit.obj
 0001:000083b0       ?common_exit@@YAXHW4_crt_exit_cleanup_mode@@W4_crt_exit_return_mode@@@Z 00000001400093b0 f   libucrtd:exit.obj
 0001:00008440       ?exit_or_terminate_process@@YAXI@Z 0000000140009440 f   libucrtd:exit.obj
 0001:00008480       ?is_managed_app@@YA_NXZ    0000000140009480 f   libucrtd:exit.obj
 0001:00008530       ?should_call_terminate_process@@YA_NXZ 0000000140009530 f   libucrtd:exit.obj
 0001:00008590       ?try_cor_exit_process@@YAXI@Z 0000000140009590 f   libucrtd:exit.obj
 0001:0000a2c0       ??$?RV<lambda_fe5404e9642edbb7c8ae71e1dcfa4018>@@AEAV<lambda_36eeb330e99a4f0bf8a7da86d0894cb9>@@V<lambda_2fa474834de80dc12f7a3c6eddd7a366>@@@?$__crt_seh_guarded_call@H@@QEAAH$$QEAV<lambda_fe5404e9642edbb7c8ae71e1dcfa4018>@@AEAV<lambda_36eeb330e99a4f0bf8a7da86d0894cb9>@@$$QEAV<lambda_2fa474834de80dc12f7a3c6eddd7a366>@@@Z 000000014000b2c0 f   libucrtd:output.obj
 0001:0000a310       ??$__acrt_lock_stream_and_call@V<lambda_36eeb330e99a4f0bf8a7da86d0894cb9>@@@@YAHQEAU_iobuf@@$$QEAV<lambda_36eeb330e99a4f0bf8a7da86d0894cb9>@@@Z 000000014000b310 f   libucrtd:output.obj
 0001:0000a360       ??$common_vfprintf@Vstandard_base@__crt_stdio_output@@D@@YAH_KQEAU_iobuf@@QEBDQEAU__crt_locale_pointers@@QEAD@Z 000000014000b360 f   libucrtd:output.obj
 0001:0000a520       ??$common_vsnprintf_s@D@@YAH_KQEAD00QEBDQEAU__crt_locale_pointers@@1@Z 000000014000b520 f   libucrtd:output.obj
 0001:0000aae0       ??$common_vsnprintf_s@_W@@YAH_KQEA_W00QEB_WQEAU__crt_locale_pointers@@QEAD@Z 000000014000bae0 f   libucrtd:output.obj
 0001:0000b0b0       ??$common_vsprintf@Vformat_validation_base@__crt_stdio_output@@D@@YAH_KQEAD0QEBDQEAU__crt_locale_pointers@@1@Z 000000014000c0b0 f   libucrtd:output.obj
 0001:0000b590       ??$common_vsprintf@Vformat_validation_base@__crt_stdio_output@@_W@@YAH_KQEA_W0QEB_WQEAU__crt_locale_pointers@@QEAD@Z 000000014000c590 f   libucrtd:output.obj
 0001:0000ba60       ??$common_vsprintf_s@D@@YAH_KQEAD0QEBDQEAU__crt_locale_pointers@@1@Z 000000014000ca60 f   libucrtd:output.obj
 0001:0000ce60       ??0<lambda_842d9ff0dc9ef11c61343bbaebe7f885>@@QEAA@AEBQEAU_iobuf@@@Z 000000014000de60 f   libucrtd:fflush.obj
 0001:0000ce60       ??0<lambda_d90129c13df834fdcbf8d2b88dafcf2d>@@QEAA@AEBQEAU_iobuf@@@Z 000000014000de60 f   libucrtd:fflush.obj
 0001:0000ce60       ??0<lambda_2fa474834de80dc12f7a3c6eddd7a366>@@QEAA@AEBQEAU_iobuf@@@Z 000000014000de60 f   libucrtd:output.obj
 0001:0000ce60       ??0<lambda_fe5404e9642edbb7c8ae71e1dcfa4018>@@QEAA@AEBQEAU_iobuf@@@Z 000000014000de60 f   libucrtd:output.obj
 0001:0000ce80       ??0<lambda_36eeb330e99a4f0bf8a7da86d0894cb9>@@QEAA@AEBQEAU_iobuf@@AEBQEAU__crt_locale_pointers@@AEB_KAEBQEBDAEBQEAD@Z 000000014000de80 f   libucrtd:output.obj
 0001:0000d510       ??R<lambda_d90129c13df834fdcbf8d2b88dafcf2d>@@QEBAXXZ 000000014000e510 f   libucrtd:fflush.obj
 0001:0000d510       ??R<lambda_2fa474834de80dc12f7a3c6eddd7a366>@@QEBAXXZ 000000014000e510 f   libucrtd:output.obj
 0001:0000d530       ??R<lambda_36eeb330e99a4f0bf8a7da86d0894cb9>@@QEBAHXZ 000000014000e530 f   libucrtd:output.obj
 0001:0000d660       ??R<lambda_842d9ff0dc9ef11c61343bbaebe7f885>@@QEBAXXZ 000000014000e660 f   libucrtd:fflush.obj
 0001:0000d660       ??R<lambda_fe5404e9642edbb7c8ae71e1dcfa4018>@@QEBAXXZ 000000014000e660 f   libucrtd:output.obj
 0001:0000e11c       $LN39                      000000014000f11c     libucrtd:output.obj
 0001:0000e47c       $LN39                      000000014000f47c     libucrtd:output.obj
 0001:0000e7dc       $LN39                      000000014000f7dc     libucrtd:output.obj
 0001:0000f538       $LN54                      0000000140010538     libucrtd:output.obj
 0001:0000f560       $LN53                      0000000140010560     libucrtd:output.obj
 0001:0000f9b8       $LN54                      00000001400109b8     libucrtd:output.obj
 0001:0000f9e0       $LN53                      00000001400109e0     libucrtd:output.obj
 0001:0000fe38       $LN54                      0000000140010e38     libucrtd:output.obj
 0001:0000fe60       $LN53                      0000000140010e60     libucrtd:output.obj
 0001:000102d4       $LN44                      00000001400112d4     libucrtd:output.obj
 0001:00010304       $LN43                      0000000140011304     libucrtd:output.obj
 0001:00010774       $LN44                      0000000140011774     libucrtd:output.obj
 0001:000107a4       $LN43                      00000001400117a4     libucrtd:output.obj
 0001:00010ccc       $LN44                      0000000140011ccc     libucrtd:output.obj
 0001:00010cfc       $LN43                      0000000140011cfc     libucrtd:output.obj
 0001:00010fa0       $LN19                      0000000140011fa0     libucrtd:output.obj
 0001:00014a50       ?xcptlookup@@YAPEAU__crt_signal_action_t@@KQEAU1@@Z 0000000140015a50 f   libucrtd:exception_filter.obj
 0001:00014d40       $LN33                      0000000140015d40     libucrtd:exception_filter.obj
 0001:00014d60       ?issue_debug_notification@@YA_NQEB_W@Z 0000000140015d60 f   libucrtd:report_runtime_error.obj
 0001:00014dc0       ?should_write_error_to_console@@YA_NXZ 0000000140015dc0 f   libucrtd:report_runtime_error.obj
 0001:00014e00       ?write_string_to_console@@YAXQEB_W@Z 0000000140015e00 f   libucrtd:report_runtime_error.obj
 0001:00015380       ??$common_configure_argv@D@@YAHW4_crt_argv_mode@@@Z 0000000140016380 f   libucrtd:argv_parsing.obj
 0001:00015750       ??$parse_command_line@D@@YAXPEADPEAPEAD0PEA_K2@Z 0000000140016750 f   libucrtd:argv_parsing.obj
 0001:00015c00       ??R<lambda_df1553121bfa390f1154bd84936f2730>@@QEBAHXZ 0000000140016c00 f   libucrtd:argv_parsing.obj
 0001:00015c60       ?do_locale_initialization@@YAXD@Z 0000000140016c60 f   libucrtd:argv_parsing.obj
 0001:00015c80       ?expand_argv_wildcards@@YAHQEAPEADQEAPEAPEAD@Z 0000000140016c80 f   libucrtd:argv_parsing.obj
 0001:00015cb0       ?get_argv@@YAAEAPEAPEADD@Z 0000000140016cb0 f   libucrtd:argv_parsing.obj
 0001:00015cc0       ?get_command_line@@YAPEADD@Z 0000000140016cc0 f   libucrtd:argv_parsing.obj
 0001:00015cd0       ?should_copy_another_character@@YA_ND@Z 0000000140016cd0 f   libucrtd:argv_parsing.obj
 0001:00015e64       ??$common_initialize_environment_nolock@D@@YAHXZ 0000000140016e64 f   libucrtd:environment_initialization.obj
 0001:00015edc       ??$create_environment@D@@YAQEAPEADQEAD@Z 0000000140016edc f   libucrtd:environment_initialization.obj
 0001:00016038       ??$free_environment@D@@YAXQEAPEAD@Z 0000000140017038 f   libucrtd:environment_initialization.obj
 0001:00016038       ??$free_environment@_W@@YAXQEAPEA_W@Z 0000000140017038 f   libucrtd:environment_initialization.obj
 0001:00016080       ??$initialize_environment_by_cloning_nolock@D@@YAHXZ 0000000140017080 f   libucrtd:environment_initialization.obj
 0001:00016184       ??$uninitialize_environment_internal@D@@YAXAEAPEAPEAD@Z 0000000140017184 f   libucrtd:environment_initialization.obj
 0001:000161a0       ??$uninitialize_environment_internal@_W@@YAXAEAPEAPEA_W@Z 00000001400171a0 f   libucrtd:environment_initialization.obj
 0001:000164b0       uninitialize_c             00000001400174b0 f   libucrtd:initialization.obj
 0001:000164b0       uninitialize_global_state_isolation 00000001400174b0 f   libucrtd:initialization.obj
 0001:000164e0       ??$?RV<lambda_410d79af7f07d98d83a3f525b3859a53>@@AEAV<lambda_3e16ef9562a7dcce91392c22ab16ea36>@@V<lambda_38119f0e861e05405d8a144b9b982f0a>@@@?$__crt_seh_guarded_call@X@@QEAAX$$QEAV<lambda_410d79af7f07d98d83a3f525b3859a53>@@AEAV<lambda_3e16ef9562a7dcce91392c22ab16ea36>@@$$QEAV<lambda_38119f0e861e05405d8a144b9b982f0a>@@@Z 00000001400174e0 f   libucrtd:wsetlocale.obj
 0001:00016520       ??$__acrt_lock_and_call@V<lambda_3e16ef9562a7dcce91392c22ab16ea36>@@@@YAXW4__acrt_lock_id@@$$QEAV<lambda_3e16ef9562a7dcce91392c22ab16ea36>@@@Z 0000000140017520 f   libucrtd:wsetlocale.obj
 0001:00016570       ??$uninitialize@V<lambda_363eea9039da1e8169e2d060c7fe5cbc>@@@?$dual_state_global@PEAU__crt_locale_data@@@__crt_state_management@@QEAAX$$QEAV<lambda_363eea9039da1e8169e2d060c7fe5cbc>@@@Z 0000000140017570 f   libucrtd:wsetlocale.obj
 0001:000165c0       ??R<lambda_363eea9039da1e8169e2d060c7fe5cbc>@@QEBAXAEAPEAU__crt_locale_data@@@Z 00000001400175c0 f   libucrtd:wsetlocale.obj
 0001:00016600       ??R<lambda_3e16ef9562a7dcce91392c22ab16ea36>@@QEBA@XZ 0000000140017600 f   libucrtd:wsetlocale.obj
 0001:00016920       ??$?RV<lambda_6a47f4c8fd0152770a780fc1d70204eb>@@AEAV<lambda_d121dba8a4adeaf3a9819e48611155df>@@V<lambda_6aaa2265f5b6a89667e7d7630012e97a>@@@?$__crt_seh_guarded_call@H@@QEAAH$$QEAV<lambda_6a47f4c8fd0152770a780fc1d70204eb>@@AEAV<lambda_d121dba8a4adeaf3a9819e48611155df>@@$$QEAV<lambda_6aaa2265f5b6a89667e7d7630012e97a>@@@Z 0000000140017920 f   libucrtd:onexit.obj
 0001:00016970       ??$?RV<lambda_dce957679fd779aa27c4ca5c39e09098>@@AEAV<lambda_3b83eb014488ad801d84acef5aaf14d3>@@V<lambda_00e911965883f7966597d4c465c83ebc>@@@?$__crt_seh_guarded_call@H@@QEAAH$$QEAV<lambda_dce957679fd779aa27c4ca5c39e09098>@@AEAV<lambda_3b83eb014488ad801d84acef5aaf14d3>@@$$QEAV<lambda_00e911965883f7966597d4c465c83ebc>@@@Z 0000000140017970 f   libucrtd:onexit.obj
 0001:000169c0       ??$__acrt_lock_and_call@V<lambda_3b83eb014488ad801d84acef5aaf14d3>@@@@YAHW4__acrt_lock_id@@$$QEAV<lambda_3b83eb014488ad801d84acef5aaf14d3>@@@Z 00000001400179c0 f   libucrtd:onexit.obj
 0001:00016a10       ??$__acrt_lock_and_call@V<lambda_d121dba8a4adeaf3a9819e48611155df>@@@@YAHW4__acrt_lock_id@@$$QEAV<lambda_d121dba8a4adeaf3a9819e48611155df>@@@Z 0000000140017a10 f   libucrtd:onexit.obj
 0001:00016a60       ??R<lambda_3b83eb014488ad801d84acef5aaf14d3>@@QEBAHXZ 0000000140017a60 f   libucrtd:onexit.obj
 0001:00016d70       ??R<lambda_d121dba8a4adeaf3a9819e48611155df>@@QEBAHXZ 0000000140017d70 f   libucrtd:onexit.obj
 0001:000170c0       initialize_global_variables 00000001400180c0 f   libucrtd:initialization.obj
 0001:000170e0       initialize_c               00000001400180e0 f   libucrtd:initialization.obj
 0001:00017110       uninitialize_environment   0000000140018110 f   libucrtd:initialization.obj
 0001:00017140       initialize_pointers        0000000140018140 f   libucrtd:initialization.obj
 0001:000171a0       uninitialize_vcruntime     00000001400181a0 f   libucrtd:initialization.obj
 0001:000171c0       uninitialize_allocated_memory 00000001400181c0 f   libucrtd:initialization.obj
 0001:00017200       uninitialize_allocated_io_buffers 0000000140018200 f   libucrtd:initialization.obj
 0001:00017280       report_memory_leaks        0000000140018280 f   libucrtd:initialization.obj
 0001:000172b0       ??$uninitialize@V<lambda_af27fe6ede5d83bbdbd622796c194e9c>@@@?$dual_state_global@PEAU__crt_multibyte_data@@@__crt_state_management@@QEAAX$$QEAV<lambda_af27fe6ede5d83bbdbd622796c194e9c>@@@Z 00000001400182b0 f   libucrtd:initialization.obj
 0001:00017300       ??R<lambda_af27fe6ede5d83bbdbd622796c194e9c>@@QEBAXAEAPEAU__crt_multibyte_data@@@Z 0000000140018300 f   libucrtd:initialization.obj
 0001:00017400       ?block_from_header@@YAPEAEQEAU_CrtMemBlockHeader@@@Z 0000000140018400 f   libucrtd:debug_heap.obj
 0001:00017410       ?check_block@@YA_NQEAU_CrtMemBlockHeader@@@Z 0000000140018410 f   libucrtd:debug_heap.obj
 0001:000177d0       ?check_bytes@@YA_NQEBEE_K@Z 00000001400187d0 f   libucrtd:debug_heap.obj
 0001:00017840       ?dump_all_object_since_nolock@@YAXQEBU_CrtMemState@@@Z 0000000140018840 f   libucrtd:debug_heap.obj
 0001:00017c00       ?free_dbg_nolock@@YAXQEAXH@Z 0000000140018c00 f   libucrtd:debug_heap.obj
 0001:00018250       ?header_from_block@@YAPEAU_CrtMemBlockHeader@@QEBX@Z 0000000140019250 f   libucrtd:debug_heap.obj
 0001:00018260       ?heap_alloc_dbg@@YAPEAX_KHQEBDH@Z 0000000140019260 f   libucrtd:debug_heap.obj
 0001:00018300       ?heap_alloc_dbg_internal@@YAPEAX_KHQEBDH@Z 0000000140019300 f   libucrtd:debug_heap.obj
 0001:00018740       ?is_bad_read_pointer@@YA_NQEBX_K@Z 0000000140019740 f   libucrtd:debug_heap.obj
 0001:00018850       ?is_block_an_aligned_allocation@@YA_NQEBX@Z 0000000140019850 f   libucrtd:debug_heap.obj
 0001:00018890       ?is_block_type_valid@@YA_NH@Z 0000000140019890 f   libucrtd:debug_heap.obj
 0001:000188e0       ?print_block_data@@YAXQEAU__crt_locale_pointers@@QEAU_CrtMemBlockHeader@@@Z 00000001400198e0 f   libucrtd:debug_heap.obj
 0001:00018b10       ?realloc_dbg_nolock@@YAPEAXQEAXQEA_KHQEBDH_N@Z 0000000140019b10 f   libucrtd:debug_heap.obj
 0001:00019330       ?validate_heap_if_required_nolock@@YAXXZ 000000014001a330 f   libucrtd:debug_heap.obj
 0001:00019fd0       ??$common_tcscpy_s@D@@YAHQEAD_KQEBD@Z 000000014001afd0 f   libucrtd:strcpy_s.obj
 0001:0001a4d0       $$000000                   000000014001b4d0     libucrtd:strcmp.obj
 0001:0001a550       $$000000                   000000014001b550     libucrtd:strlen.obj
 0001:0001a9e0       ??$common_message_window@D@@YAHHQEAXQEBD111@Z 000000014001b9e0 f   libucrtd:dbgrpt.obj
 0001:0001b0b0       ??$common_message_window@_W@@YAHHQEAXQEB_W111@Z 000000014001c0b0 f   libucrtd:dbgrpt.obj
 0001:0001b8d0       ?get_output_message_format@@YAPEB_WD@Z 000000014001c8d0 f   libucrtd:dbgrpt.obj
 0001:0001b8e0       ?get_output_message_format@@YAPEB_W_W@Z 000000014001c8e0 f   libucrtd:dbgrpt.obj
 0001:0001b8f0       ?get_program_name_unknown_text@@YAPEBDD@Z 000000014001c8f0 f   libucrtd:dbgrpt.obj
 0001:0001b900       ?get_program_name_unknown_text@@YAPEB_W_W@Z 000000014001c900 f   libucrtd:dbgrpt.obj
 0001:0001bba0       $$000000                   000000014001cba0     libucrtd:strncmp.obj
 0001:0001bcf0       ??$?RV<lambda_0ae27a3a962d80f24befdcbee591983d>@@AEAV<lambda_8d0ee55de4b1038c4002e0adecdf1839>@@V<lambda_dc504788e8f1664fe9b84e20bfb512f2>@@@?$__crt_seh_guarded_call@X@@QEAAX$$QEAV<lambda_0ae27a3a962d80f24befdcbee591983d>@@AEAV<lambda_8d0ee55de4b1038c4002e0adecdf1839>@@$$QEAV<lambda_dc504788e8f1664fe9b84e20bfb512f2>@@@Z 000000014001ccf0 f   libucrtd:per_thread_data.obj
 0001:0001bd30       ??$?RV<lambda_2d41944a1d46af3157314b8a01080d33>@@AEAV<lambda_8f455de75cd7d7f24b4096f044d8b9e6>@@V<lambda_aa500f224e6afead328df44964fe2772>@@@?$__crt_seh_guarded_call@X@@QEAAX$$QEAV<lambda_2d41944a1d46af3157314b8a01080d33>@@AEAV<lambda_8f455de75cd7d7f24b4096f044d8b9e6>@@$$QEAV<lambda_aa500f224e6afead328df44964fe2772>@@@Z 000000014001cd30 f   libucrtd:per_thread_data.obj
 0001:0001bd70       ??$?RV<lambda_74a0ef281e44d15e1136f792f539efb3>@@AEAV<lambda_e157831efee4ea0afb0a2ace5dd5fd0d>@@V<lambda_04ddeca75b7c13fd67716e8dfcef87ee>@@@?$__crt_seh_guarded_call@X@@QEAAX$$QEAV<lambda_74a0ef281e44d15e1136f792f539efb3>@@AEAV<lambda_e157831efee4ea0afb0a2ace5dd5fd0d>@@$$QEAV<lambda_04ddeca75b7c13fd67716e8dfcef87ee>@@@Z 000000014001cd70 f   libucrtd:per_thread_data.obj
 0001:0001bdb0       ??$?RV<lambda_aa87e3671a710a21b5dc78c0bdf72e11>@@AEAV<lambda_92619d2358a28f41a33ba319515a20b9>@@V<lambda_6992ecaafeb10aed2b74cb1fae11a551>@@@?$__crt_seh_guarded_call@X@@QEAAX$$QEAV<lambda_aa87e3671a710a21b5dc78c0bdf72e11>@@AEAV<lambda_92619d2358a28f41a33ba319515a20b9>@@$$QEAV<lambda_6992ecaafeb10aed2b74cb1fae11a551>@@@Z 000000014001cdb0 f   libucrtd:per_thread_data.obj
 0001:0001bdf0       ??$__acrt_lock_and_call@V<lambda_8d0ee55de4b1038c4002e0adecdf1839>@@@@YAXW4__acrt_lock_id@@$$QEAV<lambda_8d0ee55de4b1038c4002e0adecdf1839>@@@Z 000000014001cdf0 f   libucrtd:per_thread_data.obj
 0001:0001be40       ??$__acrt_lock_and_call@V<lambda_8f455de75cd7d7f24b4096f044d8b9e6>@@@@YAXW4__acrt_lock_id@@$$QEAV<lambda_8f455de75cd7d7f24b4096f044d8b9e6>@@@Z 000000014001ce40 f   libucrtd:per_thread_data.obj
 0001:0001be90       ??$__acrt_lock_and_call@V<lambda_92619d2358a28f41a33ba319515a20b9>@@@@YAXW4__acrt_lock_id@@$$QEAV<lambda_92619d2358a28f41a33ba319515a20b9>@@@Z 000000014001ce90 f   libucrtd:per_thread_data.obj
 0001:0001bee0       ??$__acrt_lock_and_call@V<lambda_e157831efee4ea0afb0a2ace5dd5fd0d>@@@@YAXW4__acrt_lock_id@@$$QEAV<lambda_e157831efee4ea0afb0a2ace5dd5fd0d>@@@Z 000000014001cee0 f   libucrtd:per_thread_data.obj
 0001:0001bf70       ??R<lambda_8d0ee55de4b1038c4002e0adecdf1839>@@QEBAXXZ 000000014001cf70 f   libucrtd:per_thread_data.obj
 0001:0001bf90       ??R<lambda_8f455de75cd7d7f24b4096f044d8b9e6>@@QEBAXXZ 000000014001cf90 f   libucrtd:per_thread_data.obj
 0001:0001bfb0       ??R<lambda_92619d2358a28f41a33ba319515a20b9>@@QEBAXXZ 000000014001cfb0 f   libucrtd:per_thread_data.obj
 0001:0001bfe0       ??R<lambda_e157831efee4ea0afb0a2ace5dd5fd0d>@@QEBAXXZ 000000014001cfe0 f   libucrtd:per_thread_data.obj
 0001:0001c050       ?construct_ptd@@YAXQEAU__acrt_ptd@@QEAPEAU__crt_locale_data@@@Z 000000014001d050 f   libucrtd:per_thread_data.obj
 0001:0001c130       ?construct_ptd_array@@YAXQEAU__acrt_ptd@@@Z 000000014001d130 f   libucrtd:per_thread_data.obj
 0001:0001c1a0       ?destroy_fls@@YAXPEAX@Z    000000014001d1a0 f   libucrtd:per_thread_data.obj
 0001:0001c1e0       ?destroy_ptd@@YAXQEAU__acrt_ptd@@@Z 000000014001d1e0 f   libucrtd:per_thread_data.obj
 0001:0001c300       ?destroy_ptd_array@@YAXQEAU__acrt_ptd@@@Z 000000014001d300 f   libucrtd:per_thread_data.obj
 0001:0001c350       ?internal_get_ptd_head@@YAPEAU__acrt_ptd@@XZ 000000014001d350 f   libucrtd:per_thread_data.obj
 0001:0001c480       ?internal_getptd_noexit@@YAPEAU__acrt_ptd@@XZ 000000014001d480 f   libucrtd:per_thread_data.obj
 0001:0001c4f0       ?replace_current_thread_locale_nolock@@YAXQEAU__acrt_ptd@@QEAU__crt_locale_data@@@Z 000000014001d4f0 f   libucrtd:per_thread_data.obj
 0001:0001c5b0       ?try_get_ptd_head@@YAPEAU__acrt_ptd@@XZ 000000014001d5b0 f   libucrtd:per_thread_data.obj
 0001:0001c800       ??$get_cached_win_policy@Udeveloper_information_policy_properties@?1??__acrt_get_developer_information_policy@@YA?AW4developer_information_policy@@XZ@@@YA?AW4developer_information_policy@@W4AppPolicyShowDeveloperDiagnostic@@@Z 000000014001d800 f   libucrtd:win_policies.obj
 0001:0001c8d0       ??$get_cached_win_policy@Uwindowing_model_policy_properties@?1??__acrt_get_windowing_model_policy@@YA?AW4windowing_model_policy@@XZ@@@YA?AW4windowing_model_policy@@W4AppPolicyWindowingModel@@@Z 000000014001d8d0 f   libucrtd:win_policies.obj
 0001:0001c9a0       ??$get_win_policy@Uprocess_end_policy_properties@?1??__acrt_get_process_end_policy@@YA?AW4process_end_policy@@XZ@@@YA?AW4process_end_policy@@W4AppPolicyProcessTerminationMethod@@@Z 000000014001d9a0 f   libucrtd:win_policies.obj
 0001:0001c9f0       ?appmodel_get_policy@developer_information_policy_properties@?1??__acrt_get_developer_information_policy@@YA?AW4developer_information_policy@@XZ@SAJPEAW4AppPolicyShowDeveloperDiagnostic@@@Z 000000014001d9f0 f   libucrtd:win_policies.obj
 0001:0001ca10       ?appmodel_get_policy@process_end_policy_properties@?1??__acrt_get_process_end_policy@@YA?AW4process_end_policy@@XZ@SAJPEAW4AppPolicyProcessTerminationMethod@@@Z 000000014001da10 f   libucrtd:win_policies.obj
 0001:0001ca30       ?appmodel_get_policy@windowing_model_policy_properties@?1??__acrt_get_windowing_model_policy@@YA?AW4windowing_model_policy@@XZ@SAJPEAW4AppPolicyWindowingModel@@@Z 000000014001da30 f   libucrtd:win_policies.obj
 0001:0001ca50       ?appmodel_policy_to_policy_type@developer_information_policy_properties@?1??__acrt_get_developer_information_policy@@YA?AW4developer_information_policy@@XZ@SA?AW43@J@Z 000000014001da50 f   libucrtd:win_policies.obj
 0001:0001ca70       ?appmodel_policy_to_policy_type@process_end_policy_properties@?1??__acrt_get_process_end_policy@@YA?AW4process_end_policy@@XZ@SA?AW43@W4AppPolicyProcessTerminationMethod@@@Z 000000014001da70 f   libucrtd:win_policies.obj
 0001:0001ca90       ?appmodel_policy_to_policy_type@windowing_model_policy_properties@?1??__acrt_get_windowing_model_policy@@YA?AW4windowing_model_policy@@XZ@SA?AW43@J@Z 000000014001da90 f   libucrtd:win_policies.obj
 0001:0001cfb0       ?try_get_AppPolicyGetProcessTerminationMethod@@YAP6AJPEAXPEAW4AppPolicyProcessTerminationMethod@@@ZXZ 000000014001dfb0 f   libucrtd:winapi_thunks.obj
 0001:0001cfe0       ?try_get_AppPolicyGetShowDeveloperDiagnostic@@YAP6AJPEAXPEAW4AppPolicyShowDeveloperDiagnostic@@@ZXZ 000000014001dfe0 f   libucrtd:winapi_thunks.obj
 0001:0001d010       ?try_get_AppPolicyGetWindowingModel@@YAP6AJPEAXPEAW4AppPolicyWindowingModel@@@ZXZ 000000014001e010 f   libucrtd:winapi_thunks.obj
 0001:0001d040       ?try_get_AreFileApisANSI@@YAP6AHXZXZ 000000014001e040 f   libucrtd:winapi_thunks.obj
 0001:0001d070       ?try_get_CompareStringEx@@YAP6AHPEB_WK0H0HPEAU_nlsversioninfo@@PEAX_J@ZXZ 000000014001e070 f   libucrtd:winapi_thunks.obj
 0001:0001d0a0       ?try_get_FlsAlloc@@YAP6AKP6AXPEAX@Z@ZXZ 000000014001e0a0 f   libucrtd:winapi_thunks.obj
 0001:0001d0d0       ?try_get_FlsFree@@YAP6AHK@ZXZ 000000014001e0d0 f   libucrtd:winapi_thunks.obj
 0001:0001d100       ?try_get_FlsGetValue@@YAP6APEAXK@ZXZ 000000014001e100 f   libucrtd:winapi_thunks.obj
 0001:0001d130       ?try_get_FlsSetValue@@YAP6AHKPEAX@ZXZ 000000014001e130 f   libucrtd:winapi_thunks.obj
 0001:0001d160       ?try_get_GetActiveWindow@@YAP6APEAUHWND__@@XZXZ 000000014001e160 f   libucrtd:winapi_thunks.obj
 0001:0001d190       ?try_get_GetLastActivePopup@@YAP6APEAUHWND__@@PEAU1@@ZXZ 000000014001e190 f   libucrtd:winapi_thunks.obj
 0001:0001d1c0       ?try_get_GetProcessWindowStation@@YAP6APEAUHWINSTA__@@XZXZ 000000014001e1c0 f   libucrtd:winapi_thunks.obj
 0001:0001d1f0       ?try_get_GetUserObjectInformationW@@YAP6AHPEAXH0KPEAK@ZXZ 000000014001e1f0 f   libucrtd:winapi_thunks.obj
 0001:0001d220       ?try_get_InitializeCriticalSectionEx@@YAP6AHPEAU_RTL_CRITICAL_SECTION@@KK@ZXZ 000000014001e220 f   libucrtd:winapi_thunks.obj
 0001:0001d250       ?try_get_LCMapStringEx@@YAP6AHPEB_WK0HPEA_WHPEAU_nlsversioninfo@@PEAX_J@ZXZ 000000014001e250 f   libucrtd:winapi_thunks.obj
 0001:0001d280       ?try_get_LocaleNameToLCID@@YAP6AKPEB_WK@ZXZ 000000014001e280 f   libucrtd:winapi_thunks.obj
 0001:0001d2b0       ?try_get_MessageBoxA@@YAP6AHPEAUHWND__@@PEBD1I@ZXZ 000000014001e2b0 f   libucrtd:winapi_thunks.obj
 0001:0001d2e0       ?try_get_MessageBoxW@@YAP6AHPEAUHWND__@@PEB_W1I@ZXZ 000000014001e2e0 f   libucrtd:winapi_thunks.obj
 0001:0001d310       ?try_get_first_available_module@@YAPEAUHINSTANCE__@@QEBW4module_id@?A0x391cf84c@@0@Z 000000014001e310 f   libucrtd:winapi_thunks.obj
 0001:0001d370       ?try_get_function@@YAPEAXW4function_id@?A0x391cf84c@@QEBDQEBW4module_id@2@2@Z 000000014001e370 f   libucrtd:winapi_thunks.obj
 0001:0001d510       ?try_get_module@@YAPEAUHINSTANCE__@@W4module_id@?A0x391cf84c@@@Z 000000014001e510 f   libucrtd:winapi_thunks.obj
 0001:0001d670       ?try_get_proc_address_from_first_available_module@@YAPEAXQEBDQEBW4module_id@?A0x391cf84c@@1@Z 000000014001e670 f   libucrtd:winapi_thunks.obj
 0001:0001d6c0       ?try_load_library_from_system_directory@@YAPEAUHINSTANCE__@@QEB_W@Z 000000014001e6c0 f   libucrtd:winapi_thunks.obj
 0001:0001e0c0       ??$?RV<lambda_842d9ff0dc9ef11c61343bbaebe7f885>@@AEAV<lambda_c5860995281e5c4ce005b3de8f5874ee>@@V<lambda_d90129c13df834fdcbf8d2b88dafcf2d>@@@?$__crt_seh_guarded_call@X@@QEAAX$$QEAV<lambda_842d9ff0dc9ef11c61343bbaebe7f885>@@AEAV<lambda_c5860995281e5c4ce005b3de8f5874ee>@@$$QEAV<lambda_d90129c13df834fdcbf8d2b88dafcf2d>@@@Z 000000014001f0c0 f   libucrtd:fflush.obj
 0001:0001e100       ??$?RV<lambda_886d6c58226a84441f68b9f2b8217b83>@@AEAV<lambda_ab61a845afdef5b7c387490eaf3616ee>@@V<lambda_f7f22ab5edc0698d5f6905b0d3f44752>@@@?$__crt_seh_guarded_call@X@@QEAAX$$QEAV<lambda_886d6c58226a84441f68b9f2b8217b83>@@AEAV<lambda_ab61a845afdef5b7c387490eaf3616ee>@@$$QEAV<lambda_f7f22ab5edc0698d5f6905b0d3f44752>@@@Z 000000014001f100 f   libucrtd:fflush.obj
 0001:0001e140       ??$__acrt_lock_and_call@V<lambda_ab61a845afdef5b7c387490eaf3616ee>@@@@YAXW4__acrt_lock_id@@$$QEAV<lambda_ab61a845afdef5b7c387490eaf3616ee>@@@Z 000000014001f140 f   libucrtd:fflush.obj
 0001:0001e190       ??$__acrt_lock_stream_and_call@V<lambda_c5860995281e5c4ce005b3de8f5874ee>@@@@YAXQEAU_iobuf@@$$QEAV<lambda_c5860995281e5c4ce005b3de8f5874ee>@@@Z 000000014001f190 f   libucrtd:fflush.obj
 0001:0001e1e0       ??0<lambda_c5860995281e5c4ce005b3de8f5874ee>@@QEAA@AEBV__crt_stdio_stream@@AEAHAEB_N1@Z 000000014001f1e0 f   libucrtd:fflush.obj
 0001:0001e240       ??R<lambda_ab61a845afdef5b7c387490eaf3616ee>@@QEBA@XZ 000000014001f240 f   libucrtd:fflush.obj
 0001:0001e330       ??R<lambda_c5860995281e5c4ce005b3de8f5874ee>@@QEBAXXZ 000000014001f330 f   libucrtd:fflush.obj
 0001:0001e420       ?common_flush_all@@YAH_N@Z 000000014001f420 f   libucrtd:fflush.obj
 0001:0001e490       ?common_flush_all_should_try_to_flush_stream@@YA_NV__crt_stdio_stream@@QEAH@Z 000000014001f490 f   libucrtd:fflush.obj
 0001:0001e540       ?is_stream_allocated@@YA_NJ@Z 000000014001f540 f   libucrtd:fflush.obj
 0001:0001e570       ?is_stream_flushable@@YA_NJ@Z 000000014001f570 f   libucrtd:fflush.obj
 0001:0001e5a0       ?is_stream_flushable_or_commitable@@YA_NJ@Z 000000014001f5a0 f   libucrtd:fflush.obj
 0001:0001e9a0       ?get_std_handle_id@@YAKH@Z 000000014001f9a0 f   libucrtd:ioinit.obj
 0001:0001e9f0       ?initialize_inherited_file_handles_nolock@@YAXXZ 000000014001f9f0 f   libucrtd:ioinit.obj
 0001:0001eba0       ?initialize_stdio_handles_nolock@@YAXXZ 000000014001fba0 f   libucrtd:ioinit.obj
 0001:0001f8e0       ??$common_strnlen@$00G@@YA_KQEBG_K@Z 00000001400208e0 f   libucrtd:strnlen.obj
 0001:0001f940       ??$common_strnlen@$0A@E@@YA_KQEBE_K@Z 0000000140020940 f   libucrtd:strnlen.obj
 0001:0001f9a0       ??$common_strnlen@$0A@G@@YA_KQEBG_K@Z 00000001400209a0 f   libucrtd:strnlen.obj
 0001:0001fa00       ??$common_strnlen_c@$00G@@YA_KQEBG_K@Z 0000000140020a00 f   libucrtd:strnlen.obj
 0001:0001fa80       ??$common_strnlen_c@$0A@E@@YA_KQEBE_K@Z 0000000140020a80 f   libucrtd:strnlen.obj
 0001:0001fb00       ??$common_strnlen_c@$0A@G@@YA_KQEBG_K@Z 0000000140020b00 f   libucrtd:strnlen.obj
 0001:0001fb80       ??$common_strnlen_simd@$00$00G@@YA_KQEBG_K@Z 0000000140020b80 f   libucrtd:strnlen.obj
 0001:0001fe20       ??$common_strnlen_simd@$00$0A@G@@YA_KQEBG_K@Z 0000000140020e20 f   libucrtd:strnlen.obj
 0001:00020110       ??$common_strnlen_simd@$0A@$00E@@YA_KQEBE_K@Z 0000000140021110 f   libucrtd:strnlen.obj
 0001:00020390       ??$common_strnlen_simd@$0A@$00G@@YA_KQEBG_K@Z 0000000140021390 f   libucrtd:strnlen.obj
 0001:00020630       ??$common_strnlen_simd@$0A@$0A@E@@YA_KQEBE_K@Z 0000000140021630 f   libucrtd:strnlen.obj
 0001:00020900       ??$common_strnlen_simd@$0A@$0A@G@@YA_KQEBG_K@Z 0000000140021900 f   libucrtd:strnlen.obj
 0001:00020bf0       ??$last_reached@$00@@YA_NQEBX0@Z 0000000140021bf0 f   libucrtd:strnlen.obj
 0001:00020c00       ??$last_reached@$0A@@@YA_NQEBX0@Z 0000000140021c00 f   libucrtd:strnlen.obj
 0001:00020f90       ?fe_to_nearest@@YA_NQEBN_KF@Z 0000000140021f90 f   libucrtd:cvt.obj
 0001:000210e0       ?fp_format_a@@YAHQEBNPEAD_KQEAD2H_NIQEAU__crt_locale_pointers@@W4__acrt_rounding_mode@@@Z 00000001400220e0 f   libucrtd:cvt.obj
 0001:00021980       ?fp_format_e@@YAHQEBNQEAD_K12H_NIQEAU__crt_locale_pointers@@W4__acrt_rounding_mode@@@Z 0000000140022980 f   libucrtd:cvt.obj
 0001:00021ba0       ?fp_format_e_internal@@YAHQEAD_KH_NIQEAU_strflt@@2QEAU__crt_locale_pointers@@@Z 0000000140022ba0 f   libucrtd:cvt.obj
 0001:00021fd0       ?fp_format_f@@YAHQEBNQEAD_K12HQEAU__crt_locale_pointers@@W4__acrt_rounding_mode@@@Z 0000000140022fd0 f   libucrtd:cvt.obj
 0001:00022130       ?fp_format_f_internal@@YAHQEAD_KHQEAU_strflt@@_NQEAU__crt_locale_pointers@@@Z 0000000140023130 f   libucrtd:cvt.obj
 0001:000223d0       ?fp_format_g@@YAHQEBNQEAD_K12H_NIW4__acrt_rounding_mode@@QEAU__crt_locale_pointers@@@Z 00000001400233d0 f   libucrtd:cvt.obj
 0001:00022620       ?fp_format_nan_or_infinity@@YAHW4__acrt_fp_class@@_NPEAD_K1@Z 0000000140023620 f   libucrtd:cvt.obj
 0001:00022790       ?shift_bytes@@YAXQEAD_K0H@Z 0000000140023790 f   libucrtd:cvt.obj
 0001:000227e0       ?should_round_up@@YA_NQEBN_KFW4__acrt_rounding_mode@@@Z 00000001400237e0 f   libucrtd:cvt.obj
 0001:00022f04       $LN42                      0000000140023f04     libucrtd:cvt.obj
 0001:00022f18       $LN41                      0000000140023f18     libucrtd:cvt.obj
 0001:000235a0       ??$common_tcscat_s@_W@@YAHQEA_W_KQEB_W@Z 00000001400245a0 f   libucrtd:wcscat_s.obj
 0001:00023c50       ??$common_tcscpy_s@_W@@YAHQEA_W_KQEB_W@Z 0000000140024c50 f   libucrtd:wcscpy_s.obj
 0001:00024160       ??$common_tcsncpy_s@_W@@YAHQEA_W_KQEB_W1@Z 0000000140025160 f   libucrtd:wcsncpy_s.obj
 0001:00024840       ??$common_show_message_box@_W@@YAHQEB_W0I@Z 0000000140025840 f   libucrtd:crtmbox.obj
 0001:00024a20       ?<lambda_invoker_cdecl>@<lambda_a1ce4c8ae42411fd470c77163914f50e>@@CAHPEBX0@Z 0000000140025a20 f   libucrtd:argv_wildcards.obj
 0001:00024a50       ??$__acrt_convert_wcs_mbs_cp@D_WV<lambda_7c9dea7b4ca7285d2cdb541a38da6275>@@U__crt_win32_buffer_internal_dynamic_resizing@@@@YAHQEBDAEAV?$__crt_win32_buffer@_WU__crt_win32_buffer_internal_dynamic_resizing@@@@AEBV<lambda_7c9dea7b4ca7285d2cdb541a38da6275>@@I@Z 0000000140025a50 f   libucrtd:argv_wildcards.obj
 0001:00024bf0       ??$__acrt_convert_wcs_mbs_cp@_WDV<lambda_d8593a27d1aa8c02be35c86a17d324c4>@@U__crt_win32_buffer_internal_dynamic_resizing@@@@YAHQEB_WAEAV?$__crt_win32_buffer@DU__crt_win32_buffer_internal_dynamic_resizing@@@@AEBV<lambda_d8593a27d1aa8c02be35c86a17d324c4>@@I@Z 0000000140025bf0 f   libucrtd:argv_wildcards.obj
 0001:00024e30       ??$common_expand_argv_wildcards@D@@YAHQEAPEADQEAPEAPEAD@Z 0000000140025e30 f   libucrtd:argv_wildcards.obj
 0001:00025260       ??$copy_and_add_argument_to_buffer@D@@YAHQEBD0_KAEAV?$argument_list@D@?A0x5f5c8891@@@Z 0000000140026260 f   libucrtd:argv_wildcards.obj
 0001:00025410       ??$expand_argument_wildcards@D@@YAHQEAD0AEAV?$argument_list@D@?A0x5f5c8891@@@Z 0000000140026410 f   libucrtd:argv_wildcards.obj
 0001:00025910       ??0?$argument_list@D@?A0x5f5c8891@@QEAA@XZ 0000000140026910 f   libucrtd:argv_wildcards.obj
 0001:000259a0       ??1?$argument_list@D@?A0x5f5c8891@@QEAA@XZ 00000001400269a0 f   libucrtd:argv_wildcards.obj
 0001:00025a10       ??B<lambda_a1ce4c8ae42411fd470c77163914f50e>@@QEBAP6AHPEBX0@ZXZ 0000000140026a10 f   libucrtd:argv_wildcards.obj
 0001:00025a20       ??R<lambda_7c9dea7b4ca7285d2cdb541a38da6275>@@QEBAHIQEBDQEA_W_K@Z 0000000140026a20 f   libucrtd:argv_wildcards.obj
 0001:00025a70       ??R<lambda_a1ce4c8ae42411fd470c77163914f50e>@@QEBAHPEBX0@Z 0000000140026a70 f   libucrtd:argv_wildcards.obj
 0001:00025ab0       ??R<lambda_cfae5a0e6efa98e0d1aa03c4cec8f74e>@@QEBA_ND@Z 0000000140026ab0 f   libucrtd:argv_wildcards.obj
 0001:00025b00       ??R<lambda_f788ae46380686e8b737efdd8c720d07>@@QEBAHIQEB_WQEAD_K@Z 0000000140026b00 f   libucrtd:getmodulefilenamea.obj
 0001:00025b00       ??R<lambda_d8593a27d1aa8c02be35c86a17d324c4>@@QEBAHIQEB_WQEAD_K@Z 0000000140026b00 f   libucrtd:argv_wildcards.obj
 0001:00025db0       ?append@?$argument_list@D@?A0x5f5c8891@@QEAAHQEAD@Z 0000000140026db0 f   libucrtd:argv_wildcards.obj
 0001:00025ef0       ?end@?$argument_list@D@?A0x5f5c8891@@QEBAPEAPEADXZ 0000000140026ef0 f   libucrtd:argv_wildcards.obj
 0001:00025f00       ?expand_if_necessary@?$argument_list@D@?A0x5f5c8891@@AEAAHXZ 0000000140026f00 f   libucrtd:argv_wildcards.obj
 0001:000260e0       ?get_file_name@@YAPEADQEAV?$__crt_win32_buffer@DU__crt_win32_buffer_internal_dynamic_resizing@@@@QEA_W@Z 00000001400270e0 f   libucrtd:argv_wildcards.obj
 0001:00026130       ?get_wide@@YAPEA_WQEAV?$__crt_win32_buffer@_WU__crt_win32_buffer_internal_dynamic_resizing@@@@QEAD@Z 0000000140027130 f   libucrtd:argv_wildcards.obj
 0001:00026180       ?previous_character@@YAPEADQEAD0@Z 0000000140027180 f   libucrtd:argv_wildcards.obj
 0001:00026210       ?size@?$argument_list@D@?A0x5f5c8891@@QEBA_KXZ 0000000140027210 f   libucrtd:argv_wildcards.obj
 0001:00026290       ??$__acrt_convert_wcs_mbs_cp@_WDV<lambda_f788ae46380686e8b737efdd8c720d07>@@U__crt_win32_buffer_no_resizing@@@@YAHQEB_WAEAV?$__crt_win32_buffer@DU__crt_win32_buffer_no_resizing@@@@AEBV<lambda_f788ae46380686e8b737efdd8c720d07>@@I@Z 0000000140027290 f   libucrtd:getmodulefilenamea.obj
 0001:00026750       ??$?RV<lambda_efa02eb69bf647d2f7ff0dd6f1103f72>@@AEAV<lambda_bd5a608237428601b7e45fbdc72b1ae8>@@V<lambda_728235dc0fc2b1f82d1fa5b3e7102d8f>@@@?$__crt_seh_guarded_call@X@@QEAAX$$QEAV<lambda_efa02eb69bf647d2f7ff0dd6f1103f72>@@AEAV<lambda_bd5a608237428601b7e45fbdc72b1ae8>@@$$QEAV<lambda_728235dc0fc2b1f82d1fa5b3e7102d8f>@@@Z 0000000140027750 f   libucrtd:mbctype.obj
 0001:00026790       ??$__acrt_lock_and_call@V<lambda_bd5a608237428601b7e45fbdc72b1ae8>@@@@YAXW4__acrt_lock_id@@$$QEAV<lambda_bd5a608237428601b7e45fbdc72b1ae8>@@@Z 0000000140027790 f   libucrtd:mbctype.obj
 0001:000268c0       ??R<lambda_bd5a608237428601b7e45fbdc72b1ae8>@@QEBAXXZ 00000001400278c0 f   libucrtd:mbctype.obj
 0001:000269e0       ?CPtoLocaleName@@YAPEB_WH@Z 00000001400279e0 f   libucrtd:mbctype.obj
 0001:00026a80       ?getSystemCP@@YAHH@Z       0000000140027a80 f   libucrtd:mbctype.obj
 0001:00026b60       ?setSBCS@@YAXPEAU__crt_multibyte_data@@@Z 0000000140027b60 f   libucrtd:mbctype.obj
 0001:00026c60       ?setSBUpLow@@YAXPEAU__crt_multibyte_data@@@Z 0000000140027c60 f   libucrtd:mbctype.obj
 0001:00027050       ?setmbcp_internal@@YAHH_NQEAU__acrt_ptd@@QEAPEAU__crt_multibyte_data@@@Z 0000000140028050 f   libucrtd:mbctype.obj
 0001:000272b0       ?update_thread_multibyte_data_internal@@YAPEAU__crt_multibyte_data@@QEAU__acrt_ptd@@QEAPEAU1@@Z 00000001400282b0 f   libucrtd:mbctype.obj
 0001:000279b0       memcpy_s                   00000001400289b0 f   libucrtd:cfout.obj
 0001:000279b0       memcpy_s                   00000001400289b0 f   libucrtd:mbctype.obj
 0001:00027aec       ?x_ismbbtype_l@@YAHPEAU__crt_locale_pointers@@IHH@Z 0000000140028aec f   libucrtd:ismbbyte.obj
 0001:00027b80       ?filter_mbtowcs_flags@@YAKIK@Z 0000000140028b80 f   libucrtd:multibytetowidechar.obj
 0001:00027c80       ?filter_wcstomb_flags@@YAKIK@Z 0000000140028c80 f   libucrtd:widechartomultibyte.obj
 0001:00027f68       ??$common_set_variable_in_environment_nolock@D@@YAHQEADH@Z 0000000140028f68 f   libucrtd:setenv.obj
 0001:000283f4       ??$copy_environment@D@@YAPEAPEADQEAPEAD@Z 00000001400293f4 f   libucrtd:setenv.obj
 0001:00028fd0       ??$free_crt_array@D$01@@YAXAEAY01PEAD@Z 0000000140029fd0 f   libucrtd:inittime.obj
 0001:00028fd0       ??$free_crt_array@_W$01@@YAXAEAY01PEA_W@Z 0000000140029fd0 f   libucrtd:inittime.obj
 0001:00028ff0       ??$free_crt_array@D$06@@YAXAEAY06PEAD@Z 0000000140029ff0 f   libucrtd:inittime.obj
 0001:00028ff0       ??$free_crt_array@_W$06@@YAXAEAY06PEA_W@Z 0000000140029ff0 f   libucrtd:inittime.obj
 0001:00029010       ??$free_crt_array@D$0M@@@YAXAEAY0M@PEAD@Z 000000014002a010 f   libucrtd:inittime.obj
 0001:00029010       ??$free_crt_array@_W$0M@@@YAXAEAY0M@PEA_W@Z 000000014002a010 f   libucrtd:inittime.obj
 0001:00029030       ?free_crt_array_internal@@YAXQEAPEBX_K@Z 000000014002a030 f   libucrtd:inittime.obj
 0001:0002a0b0       ??$?RV<lambda_450d765d439847d4c735a33c368b5fc0>@@AEAV<lambda_44731a7d0e6d81c3e6aa82d741081786>@@V<lambda_601a2a7da3b7a96e9554ac7215c4b07c>@@@?$__crt_seh_guarded_call@P6AXH@Z@@QEAAP6AXH@Z$$QEAV<lambda_450d765d439847d4c735a33c368b5fc0>@@AEAV<lambda_44731a7d0e6d81c3e6aa82d741081786>@@$$QEAV<lambda_601a2a7da3b7a96e9554ac7215c4b07c>@@@Z 000000014002b0b0 f   libucrtd:signal.obj
 0001:0002a100       ??$__acrt_lock_and_call@V<lambda_44731a7d0e6d81c3e6aa82d741081786>@@@@YAP6AXH@ZW4__acrt_lock_id@@$$QEAV<lambda_44731a7d0e6d81c3e6aa82d741081786>@@@Z 000000014002b100 f   libucrtd:signal.obj
 0001:0002a150       ??R<lambda_44731a7d0e6d81c3e6aa82d741081786>@@QEBAP6AXH@ZXZ 000000014002b150 f   libucrtd:signal.obj
 0001:0002a180       ?get_global_action_nolock@@YAPEAP6AXH@ZH@Z 000000014002b180 f   libucrtd:signal.obj
 0001:0002a210       ?siglookup@@YAPEAU__crt_signal_action_t@@HQEAU1@@Z 000000014002b210 f   libucrtd:signal.obj
 0001:0002a7b0       $LN58                      000000014002b7b0     libucrtd:signal.obj
 0001:0002a7bc       $LN57                      000000014002b7bc     libucrtd:signal.obj
 0001:0002a7e0       ?select_heap@@YAPEAXQEAX@Z 000000014002b7e0 f   libucrtd:free_base.obj
 0001:0002a900       ?is_contraction_possible@@YA_N_K@Z 000000014002b900 f   libucrtd:expand.obj
 0001:0002c200       ?GetTableIndexFromLocaleName@@YAHPEB_W@Z 000000014002d200 f   libucrtd:lcidtoname_downlevel.obj
 0001:0002c5e0       ??$?RV<lambda_4e3dbe6921bc0b5a1a6bc6573fdc859e>@@AEAV<lambda_5533cddd4bda0037814beee657757329>@@V<lambda_47cffbaa968af5c721c38a4a6f8da44d>@@@?$__crt_seh_guarded_call@H@@QEAAH$$QEAV<lambda_4e3dbe6921bc0b5a1a6bc6573fdc859e>@@AEAV<lambda_5533cddd4bda0037814beee657757329>@@$$QEAV<lambda_47cffbaa968af5c721c38a4a6f8da44d>@@@Z 000000014002d5e0 f   libucrtd:commit.obj
 0001:0002c630       ??$__acrt_lowio_lock_fh_and_call@V<lambda_5533cddd4bda0037814beee657757329>@@@@YAHH$$QEAV<lambda_5533cddd4bda0037814beee657757329>@@@Z 000000014002d630 f   libucrtd:commit.obj
 0001:0002c680       ??R<lambda_8ddc48ad9d26c778cb15812d1d88fc8a>@@QEBAXXZ 000000014002d680 f   libucrtd:close.obj
 0001:0002c680       ??R<lambda_47cffbaa968af5c721c38a4a6f8da44d>@@QEBAXXZ 000000014002d680 f   libucrtd:commit.obj
 0001:0002c6a0       ??R<lambda_53fc7fc888e23d815d7080162c0aeeb2>@@QEBAXXZ 000000014002d6a0 f   libucrtd:close.obj
 0001:0002c6a0       ??R<lambda_4e3dbe6921bc0b5a1a6bc6573fdc859e>@@QEBAXXZ 000000014002d6a0 f   libucrtd:commit.obj
 0001:0002c6c0       ??R<lambda_5533cddd4bda0037814beee657757329>@@QEBAHXZ 000000014002d6c0 f   libucrtd:commit.obj
 0001:0002c960       ?write_binary_nolock@@YA?AUwrite_result@?A0x17268360@@HQEBDI@Z 000000014002d960 f   libucrtd:write.obj
 0001:0002ca30       ?write_double_translated_ansi_nolock@@YA?AUwrite_result@?A0x17268360@@HQEBDI@Z 000000014002da30 f   libucrtd:write.obj
 0001:0002d990       ?write_double_translated_unicode_nolock@@YA?AUwrite_result@?A0x17268360@@QEBDI@Z 000000014002e990 f   libucrtd:write.obj
 0001:0002daf0       ?write_requires_double_translation_nolock@@YA_NH@Z 000000014002eaf0 f   libucrtd:write.obj
 0001:0002dc10       ?write_text_ansi_nolock@@YA?AUwrite_result@?A0x17268360@@HQEBDI@Z 000000014002ec10 f   libucrtd:write.obj
 0001:0002de40       ?write_text_utf16le_nolock@@YA?AUwrite_result@?A0x17268360@@HQEBDI@Z 000000014002ee40 f   libucrtd:write.obj
 0001:0002e080       ?write_text_utf8_nolock@@YA?AUwrite_result@?A0x17268360@@HQEBDI@Z 000000014002f080 f   libucrtd:write.obj
 0001:0002ec60       ??R<lambda_88e6d024674186fe9d3f7283b675e4c3>@@QEBA_KPEBD@Z 000000014002fc60 f   libucrtd:mbrtowc.obj
 0001:0002f370       ?check_trailing@@YA_NPEBDW4__acrt_has_trailing_digits@@@Z 0000000140030370 f   libucrtd:_fptostr.obj
 0001:0002f3c0       ?should_round_up@@YA_NQEBDHW4__acrt_has_trailing_digits@@W4__acrt_rounding_mode@@@Z 00000001400303c0 f   libucrtd:_fptostr.obj
 0001:0002f980       ??$convert_to_fos_high_precision@N@@YA?AW4__acrt_has_trailing_digits@@NIQEAHQEAD_K@Z 0000000140030980 f   libucrtd:cfout.obj
 0001:000300a0       ??0scoped_fp_state_reset@?A0x71ca7cfb@@QEAA@XZ 00000001400310a0 f   libucrtd:cfout.obj
 0001:000300f0       ??1scoped_fp_state_reset@?A0x71ca7cfb@@QEAA@XZ 00000001400310f0 f   libucrtd:cfout.obj
 0001:00031c40       ??$common_flush_and_write_nolock@D@@YAHHV__crt_stdio_stream@@@Z 0000000140032c40 f   libucrtd:_flsbuf.obj
 0001:00031e60       ??$write_buffer_nolock@D@@YA_NDV__crt_stdio_stream@@@Z 0000000140032e60 f   libucrtd:_flsbuf.obj
 0001:000320f0       ?stream_is_at_end_of_file_nolock@@YA_NV__crt_stdio_stream@@@Z 00000001400330f0 f   libucrtd:_flsbuf.obj
 0001:000323f0       ?shortsort@@YAXPEAD0_KP6AHPEBX2@Z@Z 00000001400333f0 f   libucrtd:qsort.obj
 0001:000324d0       ?swap@@YAXPEAD0_K@Z        00000001400334d0 f   libucrtd:qsort.obj
 0001:00032c70       ??$common_tcsncpy_s@D@@YAHQEAD_KQEBD1@Z 0000000140033c70 f   libucrtd:strncpy_s.obj
 0001:00033330       fallbackMethod             0000000140034330 f   libucrtd:strpbrk.obj
 0001:00033c94       $LN85                      0000000140034c94     libucrtd:strpbrk.obj
 0001:00033cd0       $LN84                      0000000140034cd0     libucrtd:strpbrk.obj
 0001:00033d10       $LN83                      0000000140034d10     libucrtd:strpbrk.obj
 0001:00033e50       ?__acrt_LCMapStringA_stat@@YAHPEAU__crt_locale_pointers@@PEB_WKPEBDHPEADHHH@Z 0000000140034e50 f   libucrtd:lcmapstringa.obj
 0001:000344f0       ?initialize_multibyte@@YAHXZ 00000001400354f0 f   libucrtd:multibyte_initializer.obj
 0001:00034a70       ??$common_xtox@KD@@YAHKQEAD_KI_N@Z 0000000140035a70 f   libucrtd:xtoa.obj
 0001:00034cb0       ??$common_xtox@K_W@@YAHKQEA_W_KI_N@Z 0000000140035cb0 f   libucrtd:xtoa.obj
 0001:00034f00       ??$common_xtox_s@KD@@YAHKQEAD_KI_N@Z 0000000140035f00 f   libucrtd:xtoa.obj
 0001:000352b0       ??$common_xtox_s@K_W@@YAHKQEA_W_KI_N@Z 00000001400362b0 f   libucrtd:xtoa.obj
 0001:00035890       ?_mbstowcs_l_helper@@YA_KPEA_WPEBD_KPEAU__crt_locale_pointers@@@Z 0000000140036890 f   libucrtd:mbstowcs.obj
 0001:00036490       ?_wcstombs_l_helper@@YA_KPEADPEB_W_KPEAU__crt_locale_pointers@@@Z 0000000140037490 f   libucrtd:wcstombs.obj
 0001:00036d40       ?wcsncnt@@YA_KPEB_W_K@Z    0000000140037d40 f   libucrtd:wcstombs.obj
 0001:00037360       ??$common_tcscat_s@D@@YAHQEAD_KQEBD@Z 0000000140038360 f   libucrtd:strcat_s.obj
 0001:00037a00       ??$?RV<lambda_53fc7fc888e23d815d7080162c0aeeb2>@@AEAV<lambda_4e7105787b7b0e0227fbf2b2d883fa65>@@V<lambda_8ddc48ad9d26c778cb15812d1d88fc8a>@@@?$__crt_seh_guarded_call@H@@QEAAH$$QEAV<lambda_53fc7fc888e23d815d7080162c0aeeb2>@@AEAV<lambda_4e7105787b7b0e0227fbf2b2d883fa65>@@$$QEAV<lambda_8ddc48ad9d26c778cb15812d1d88fc8a>@@@Z 0000000140038a00 f   libucrtd:close.obj
 0001:00037a50       ??$__acrt_lowio_lock_fh_and_call@V<lambda_4e7105787b7b0e0227fbf2b2d883fa65>@@@@YAHH$$QEAV<lambda_4e7105787b7b0e0227fbf2b2d883fa65>@@@Z 0000000140038a50 f   libucrtd:close.obj
 0001:00037aa0       ??R<lambda_4e7105787b7b0e0227fbf2b2d883fa65>@@QEBAHXZ 0000000140038aa0 f   libucrtd:close.obj
 0001:00037b50       ?close_os_handle_nolock@@YAKH@Z 0000000140038b50 f   libucrtd:close.obj
 0001:00037f50       ??$common_lseek@_J@@YA_JH_JH@Z 0000000140038f50 f   libucrtd:lseek.obj
 0001:000381f0       ??$common_lseek_nolock@_J@@YA_JH_JH@Z 00000001400391f0 f   libucrtd:lseek.obj
 0001:00038300       ?common_lseek_do_seek_nolock@@YA_JQEAX_JH@Z 0000000140039300 f   libucrtd:lseek.obj
 0001:000387c0       $$000000                   00000001400397c0     libucrtd:log10.obj
 0001:00039300       ??$to_abstract_status@W4__acrt_fenv_machine_sse_status@@@@YA?AW4__acrt_fenv_abstract_status@@W4__acrt_fenv_machine_sse_status@@@Z 000000014003a300 f   libucrtd:_fenvutils.obj
 0001:00039320       ??$translate_control_exception_mask@W4__acrt_fenv_abstract_control@@W4__acrt_fenv_machine_sse_control@@@@YA?AW4__acrt_fenv_abstract_control@@W4__acrt_fenv_machine_sse_control@@@Z 000000014003a320 f   libucrtd:_fenvutils.obj
 0001:00039410       ??$translate_control_exception_mask@W4__acrt_fenv_machine_sse_control@@W4__acrt_fenv_abstract_control@@@@YA?AW4__acrt_fenv_machine_sse_control@@W4__acrt_fenv_abstract_control@@@Z 000000014003a410 f   libucrtd:_fenvutils.obj
 0001:00039500       ??$translate_control_rounding_control@W4__acrt_fenv_abstract_control@@W4__acrt_fenv_machine_sse_control@@@@YA?AW4__acrt_fenv_abstract_control@@W4__acrt_fenv_machine_sse_control@@@Z 000000014003a500 f   libucrtd:_fenvutils.obj
 0001:00039570       ??$translate_control_rounding_control@W4__acrt_fenv_machine_sse_control@@W4__acrt_fenv_abstract_control@@@@YA?AW4__acrt_fenv_machine_sse_control@@W4__acrt_fenv_abstract_control@@@Z 000000014003a570 f   libucrtd:_fenvutils.obj
 0001:000395e0       ??$translate_status@W4__acrt_fenv_abstract_status@@W4__acrt_fenv_machine_sse_status@@@@YA?AW4__acrt_fenv_abstract_status@@W4__acrt_fenv_machine_sse_status@@@Z 000000014003a5e0 f   libucrtd:_fenvutils.obj
 0001:000396d0       ??$translate_status@W4__acrt_fenv_machine_sse_status@@W4__acrt_fenv_abstract_status@@@@YA?AW4__acrt_fenv_machine_sse_status@@W4__acrt_fenv_abstract_status@@@Z 000000014003a6d0 f   libucrtd:_fenvutils.obj
 0001:000399a0       ?get_machine_sse_control@@YA?AW4__acrt_fenv_machine_sse_control@@XZ 000000014003a9a0 f   libucrtd:_fenvutils.obj
 0001:000399c0       ?get_machine_sse_status@@YA?AW4__acrt_fenv_machine_sse_status@@XZ 000000014003a9c0 f   libucrtd:_fenvutils.obj
 0001:000399e0       ?set_machine_sse_control@@YAXW4__acrt_fenv_machine_sse_control@@@Z 000000014003a9e0 f   libucrtd:_fenvutils.obj
 0001:00039a40       ?set_machine_sse_status@@YAXW4__acrt_fenv_machine_sse_status@@@Z 000000014003aa40 f   libucrtd:_fenvutils.obj
 0001:00039a90       ?to_abstract_control@@YA?AW4__acrt_fenv_abstract_control@@W4__acrt_fenv_machine_sse_control@@@Z 000000014003aa90 f   libucrtd:_fenvutils.obj
 0001:00039ae0       ?to_machine_sse_control@@YA?AW4__acrt_fenv_machine_sse_control@@W4__acrt_fenv_abstract_control@@@Z 000000014003aae0 f   libucrtd:_fenvutils.obj
 0001:00039b40       ?to_machine_sse_status@@YA?AW4__acrt_fenv_machine_sse_status@@W4__acrt_fenv_abstract_status@@@Z 000000014003ab40 f   libucrtd:_fenvutils.obj
 0001:00039b60       ?translate_control_denormal_control_from_sse@@YA?AW4__acrt_fenv_abstract_control@@W4__acrt_fenv_machine_sse_control@@@Z 000000014003ab60 f   libucrtd:_fenvutils.obj
 0001:00039be0       ?translate_control_denormal_control_to_sse@@YA?AW4__acrt_fenv_machine_sse_control@@W4__acrt_fenv_abstract_control@@@Z 000000014003abe0 f   libucrtd:_fenvutils.obj
 0001:0003a530       ?InternalCompareStringA@@YAHPEAU__crt_locale_pointers@@PEB_WKPEBDH2HH@Z 000000014003b530 f   libucrtd:comparestringa.obj
 0001:0003b110       _log_special_common        000000014003c110 f   libucrtd:log_special.obj
 0001:0003b230       _call_matherr              000000014003c230 f   libucrtd:libm_error.obj
 0001:0003b2c0       _exception_enabled         000000014003c2c0 f   libucrtd:libm_error.obj
 0001:0003b5e0       _abstract_cw               000000014003c5e0 f   libucrtd:ieee.obj
 0001:0003b730       _abstract_sw               000000014003c730 f   libucrtd:ieee.obj
 0001:0003b810       _hw_cw                     000000014003c810 f   libucrtd:ieee.obj
 0001:0003b960       common_control87           000000014003c960 f   libucrtd:ieee.obj
 0001:0003bb90       ?combine_second_surrogate@?A0xc60ee810@@YA_U_SPEAU_Mbstatet@@@Z 000000014003cb90 f   libucrtd:c16rtomb.obj
 0001:0003bbb0       ?has_surrogate@?A0xc60ee810@@YA_NPEAU_Mbstatet@@@Z 000000014003cbb0 f   libucrtd:c16rtomb.obj
 0001:0003bbe0       ?is_first_surrogate@?A0xc60ee810@@YA_N_S@Z 000000014003cbe0 f   libucrtd:c16rtomb.obj
 0001:0003bc20       ?is_second_surrogate@?A0xc60ee810@@YA_N_S@Z 000000014003cc20 f   libucrtd:c16rtomb.obj
 0001:0003bc60       ?store_first_surrogate@?A0xc60ee810@@YAX_SPEAU_Mbstatet@@@Z 000000014003cc60 f   libucrtd:c16rtomb.obj
 0001:0003c520       $$000000                   000000014003d520     libucrtd:fpsr.obj
 0001:0003c880       $$000000                   000000014003d880     LIBCMTD:chkstk.obj
 0001:0003c9b0       $$000000                   000000014003d9b0     libvcruntimed:memcmp.obj
 0001:0003d040       $$000000                   000000014003e040     LIBCMTD:guard_dispatch.obj
 0001:0003d060       $$000000                   000000014003e060     LIBCMTD:guard_xfg_dispatch.obj
 0001:0003d080       ?filt$0@?0??__scrt_common_main_seh@@YAHXZ@4HA 000000014003e080 f   LIBCMTD:exe_main.obj
 0001:0003d0b0       __scrt_is_nonwritable_in_current_image$filt$0 000000014003e0b0 f   LIBCMTD:utility.obj
 0001:0003d0f0       __DestructExceptionObject$filt$0 000000014003e0f0 f   libvcruntimed:ehhelpers.obj
 0001:0003d120       ?filt$0@?0???$_CallSETranslator@V__FrameHandler3@@@@YAHPEAUEHExceptionRecord@@PEA_KPEAU_CONTEXT@@PEAU_xDISPATCHER_CONTEXT@@PEBU_s_FuncInfo@@K1H@Z@4HA 000000014003e120 f   libvcruntimed:risctrnsctrl.obj
 0001:0003d190       ?filt$0@?0??is_bad_read_pointer@@YA_NQEBX_K@Z@4HA 000000014003e190 f   libucrtd:debug_heap.obj
 0001:0003d190       terminate$filt$0           000000014003e190 f   libucrtd:terminate.obj
 0001:0003d190       ?filt$0@?0???$BuildCatchObjectHelperInternal@V__FrameHandler3@@@@YAHPEAUEHExceptionRecord@@PEAXPEBU_s_HandlerType@@PEBU_s_CatchableType@@@Z@4HA 000000014003e190 f   libvcruntimed:frame.obj
 0001:0003d190       ?filt$0@?0???$BuildCatchObjectInternal@V__FrameHandler3@@@@YAXPEAUEHExceptionRecord@@PEAXPEBU_s_HandlerType@@PEBU_s_CatchableType@@@Z@4HA 000000014003e190 f   libvcruntimed:frame.obj
 0001:0003d1b0       ?filt$0@?0??CxxCallCatchBlock@__FrameHandler3@@SAPEAXPEAU_EXCEPTION_RECORD@@@Z@4HA 000000014003e1b0 f   libvcruntimed:frame.obj
 0001:0003d1d9       ?fin$1@?0??CxxCallCatchBlock@__FrameHandler3@@SAPEAXPEAU_EXCEPTION_RECORD@@@Z@4HA 000000014003e1d9 f   libvcruntimed:frame.obj
 0001:0003d270       ?filt$0@?0??FrameUnwindToState@__FrameHandler3@@SAXPEA_KPEAU_xDISPATCHER_CONTEXT@@PEBU_s_FuncInfo@@H@Z@4HA 000000014003e270 f   libvcruntimed:frame.obj
 0001:0003d291       ?fin$1@?0??FrameUnwindToState@__FrameHandler3@@SAXPEA_KPEAU_xDISPATCHER_CONTEXT@@PEBU_s_FuncInfo@@H@Z@4HA 000000014003e291 f   libvcruntimed:frame.obj
 0001:0003d2d0       ?fin$0@?0???$?RV<lambda_0ae27a3a962d80f24befdcbee591983d>@@AEAV<lambda_8d0ee55de4b1038c4002e0adecdf1839>@@V<lambda_dc504788e8f1664fe9b84e20bfb512f2>@@@?$__crt_seh_guarded_call@X@@QEAAX$$QEAV<lambda_0ae27a3a962d80f24befdcbee591983d>@@AEAV<lambda_8d0ee55de4b1038c4002e0adecdf1839>@@$$QEAV<lambda_dc504788e8f1664fe9b84e20bfb512f2>@@@Z@4HA 000000014003e2d0 f   libucrtd:per_thread_data.obj
 0001:0003d2d0       ?fin$0@?0???$?RV<lambda_2d41944a1d46af3157314b8a01080d33>@@AEAV<lambda_8f455de75cd7d7f24b4096f044d8b9e6>@@V<lambda_aa500f224e6afead328df44964fe2772>@@@?$__crt_seh_guarded_call@X@@QEAAX$$QEAV<lambda_2d41944a1d46af3157314b8a01080d33>@@AEAV<lambda_8f455de75cd7d7f24b4096f044d8b9e6>@@$$QEAV<lambda_aa500f224e6afead328df44964fe2772>@@@Z@4HA 000000014003e2d0 f   libucrtd:per_thread_data.obj
 0001:0003d2d0       ?fin$0@?0???$?RV<lambda_74a0ef281e44d15e1136f792f539efb3>@@AEAV<lambda_e157831efee4ea0afb0a2ace5dd5fd0d>@@V<lambda_04ddeca75b7c13fd67716e8dfcef87ee>@@@?$__crt_seh_guarded_call@X@@QEAAX$$QEAV<lambda_74a0ef281e44d15e1136f792f539efb3>@@AEAV<lambda_e157831efee4ea0afb0a2ace5dd5fd0d>@@$$QEAV<lambda_04ddeca75b7c13fd67716e8dfcef87ee>@@@Z@4HA 000000014003e2d0 f   libucrtd:per_thread_data.obj
 0001:0003d2d0       ?fin$0@?0???$?RV<lambda_aa87e3671a710a21b5dc78c0bdf72e11>@@AEAV<lambda_92619d2358a28f41a33ba319515a20b9>@@V<lambda_6992ecaafeb10aed2b74cb1fae11a551>@@@?$__crt_seh_guarded_call@X@@QEAAX$$QEAV<lambda_aa87e3671a710a21b5dc78c0bdf72e11>@@AEAV<lambda_92619d2358a28f41a33ba319515a20b9>@@$$QEAV<lambda_6992ecaafeb10aed2b74cb1fae11a551>@@@Z@4HA 000000014003e2d0 f   libucrtd:per_thread_data.obj
 0001:0003d2d0       ?fin$0@?0???$?RV<lambda_410d79af7f07d98d83a3f525b3859a53>@@AEAV<lambda_3e16ef9562a7dcce91392c22ab16ea36>@@V<lambda_38119f0e861e05405d8a144b9b982f0a>@@@?$__crt_seh_guarded_call@X@@QEAAX$$QEAV<lambda_410d79af7f07d98d83a3f525b3859a53>@@AEAV<lambda_3e16ef9562a7dcce91392c22ab16ea36>@@$$QEAV<lambda_38119f0e861e05405d8a144b9b982f0a>@@@Z@4HA 000000014003e2d0 f   libucrtd:wsetlocale.obj
 0001:0003d2d0       ?fin$0@?0???$?RV<lambda_efa02eb69bf647d2f7ff0dd6f1103f72>@@AEAV<lambda_bd5a608237428601b7e45fbdc72b1ae8>@@V<lambda_728235dc0fc2b1f82d1fa5b3e7102d8f>@@@?$__crt_seh_guarded_call@X@@QEAAX$$QEAV<lambda_efa02eb69bf647d2f7ff0dd6f1103f72>@@AEAV<lambda_bd5a608237428601b7e45fbdc72b1ae8>@@$$QEAV<lambda_728235dc0fc2b1f82d1fa5b3e7102d8f>@@@Z@4HA 000000014003e2d0 f   libucrtd:mbctype.obj
 0001:0003d2d0       ?fin$0@?0???$?RV<lambda_d80eeec6fff315bfe5c115232f3240e3>@@AEAV<lambda_6e4b09c48022b2350581041d5f6b0c4c>@@V<lambda_2358e3775559c9db80273638284d5e45>@@@?$__crt_seh_guarded_call@X@@QEAAX$$QEAV<lambda_d80eeec6fff315bfe5c115232f3240e3>@@AEAV<lambda_6e4b09c48022b2350581041d5f6b0c4c>@@$$QEAV<lambda_2358e3775559c9db80273638284d5e45>@@@Z@4HA 000000014003e2d0 f   libucrtd:exit.obj
 0001:0003d2d0       ?fin$0@?0???$?RV<lambda_886d6c58226a84441f68b9f2b8217b83>@@AEAV<lambda_ab61a845afdef5b7c387490eaf3616ee>@@V<lambda_f7f22ab5edc0698d5f6905b0d3f44752>@@@?$__crt_seh_guarded_call@X@@QEAAX$$QEAV<lambda_886d6c58226a84441f68b9f2b8217b83>@@AEAV<lambda_ab61a845afdef5b7c387490eaf3616ee>@@$$QEAV<lambda_f7f22ab5edc0698d5f6905b0d3f44752>@@@Z@4HA 000000014003e2d0 f   libucrtd:fflush.obj
 0001:0003d2f0       ?filt$0@?0???R<lambda_6e4b09c48022b2350581041d5f6b0c4c>@@QEBA@XZ@4HA 000000014003e2f0 f   libucrtd:exit.obj
 0001:0003d320       ?fin$0@?0???$?RV<lambda_fe5404e9642edbb7c8ae71e1dcfa4018>@@AEAV<lambda_36eeb330e99a4f0bf8a7da86d0894cb9>@@V<lambda_2fa474834de80dc12f7a3c6eddd7a366>@@@?$__crt_seh_guarded_call@H@@QEAAH$$QEAV<lambda_fe5404e9642edbb7c8ae71e1dcfa4018>@@AEAV<lambda_36eeb330e99a4f0bf8a7da86d0894cb9>@@$$QEAV<lambda_2fa474834de80dc12f7a3c6eddd7a366>@@@Z@4HA 000000014003e320 f   libucrtd:output.obj
 0001:0003d340       ?fin$0@?0???$?RV<lambda_450d765d439847d4c735a33c368b5fc0>@@AEAV<lambda_44731a7d0e6d81c3e6aa82d741081786>@@V<lambda_601a2a7da3b7a96e9554ac7215c4b07c>@@@?$__crt_seh_guarded_call@P6AXH@Z@@QEAAP6AXH@Z$$QEAV<lambda_450d765d439847d4c735a33c368b5fc0>@@AEAV<lambda_44731a7d0e6d81c3e6aa82d741081786>@@$$QEAV<lambda_601a2a7da3b7a96e9554ac7215c4b07c>@@@Z@4HA 000000014003e340 f   libucrtd:signal.obj
 0001:0003d340       ?fin$0@?0???$?RV<lambda_6a47f4c8fd0152770a780fc1d70204eb>@@AEAV<lambda_d121dba8a4adeaf3a9819e48611155df>@@V<lambda_6aaa2265f5b6a89667e7d7630012e97a>@@@?$__crt_seh_guarded_call@H@@QEAAH$$QEAV<lambda_6a47f4c8fd0152770a780fc1d70204eb>@@AEAV<lambda_d121dba8a4adeaf3a9819e48611155df>@@$$QEAV<lambda_6aaa2265f5b6a89667e7d7630012e97a>@@@Z@4HA 000000014003e340 f   libucrtd:onexit.obj
 0001:0003d340       ?fin$0@?0???$?RV<lambda_dce957679fd779aa27c4ca5c39e09098>@@AEAV<lambda_3b83eb014488ad801d84acef5aaf14d3>@@V<lambda_00e911965883f7966597d4c465c83ebc>@@@?$__crt_seh_guarded_call@H@@QEAAH$$QEAV<lambda_dce957679fd779aa27c4ca5c39e09098>@@AEAV<lambda_3b83eb014488ad801d84acef5aaf14d3>@@$$QEAV<lambda_00e911965883f7966597d4c465c83ebc>@@@Z@4HA 000000014003e340 f   libucrtd:onexit.obj
 0001:0003d360       ?dtor$0@?0???R<lambda_d121dba8a4adeaf3a9819e48611155df>@@QEBAHXZ@4HA 000000014003e360 f   libucrtd:onexit.obj
 0001:0003d380       ?fin$0@?0??heap_alloc_dbg_internal@@YAPEAX_KHQEBDH@Z@4HA 000000014003e380 f   libucrtd:debug_heap.obj
 0001:0003d380       _CrtMemCheckpoint$fin$0    000000014003e380 f   libucrtd:debug_heap.obj
 0001:0003d3a0       ?fin$0@?0??validate_heap_if_required_nolock@@YAXXZ@4HA 000000014003e3a0 f   libucrtd:debug_heap.obj
 0001:0003d3c0       _CrtCheckMemory$fin$0      000000014003e3c0 f   libucrtd:debug_heap.obj
 0001:0003d3c0       _CrtMemDumpAllObjectsSince$fin$0 000000014003e3c0 f   libucrtd:debug_heap.obj
 0001:0003d3c0       _CrtSetDbgFlag$fin$0       000000014003e3c0 f   libucrtd:debug_heap.obj
 0001:0003d3c0       _msize_dbg$fin$0           000000014003e3c0 f   libucrtd:debug_heap.obj
 0001:0003d3c0       _realloc_dbg$fin$0         000000014003e3c0 f   libucrtd:debug_heap.obj
 0001:0003d3e0       _free_dbg$fin$0            000000014003e3e0 f   libucrtd:debug_heap.obj
 0001:0003d3e0       _query_new_handler$fin$0   000000014003e3e0 f   libucrtd:new_handler.obj
 0001:0003d400       _fcloseall$fin$0           000000014003e400 f   libucrtd:closeall.obj
 0001:0003d420       ?fin$0@?0???$?RV<lambda_842d9ff0dc9ef11c61343bbaebe7f885>@@AEAV<lambda_c5860995281e5c4ce005b3de8f5874ee>@@V<lambda_d90129c13df834fdcbf8d2b88dafcf2d>@@@?$__crt_seh_guarded_call@X@@QEAAX$$QEAV<lambda_842d9ff0dc9ef11c61343bbaebe7f885>@@AEAV<lambda_c5860995281e5c4ce005b3de8f5874ee>@@$$QEAV<lambda_d90129c13df834fdcbf8d2b88dafcf2d>@@@Z@4HA 000000014003e420 f   libucrtd:fflush.obj
 0001:0003d440       __acrt_initialize_lowio$fin$0 000000014003e440 f   libucrtd:ioinit.obj
 0001:0003d460       ?dtor$0@?0??fp_format_a@@YAHQEBNPEAD_KQEAD2H_NIQEAU__crt_locale_pointers@@W4__acrt_rounding_mode@@@Z@4HA 000000014003e460 f   libucrtd:cvt.obj
 0001:0003d480       ?fin$0@?0??update_thread_multibyte_data_internal@@YAPEAU__crt_multibyte_data@@QEAU__acrt_ptd@@QEAPEAU1@@Z@4HA 000000014003e480 f   libucrtd:mbctype.obj
 0001:0003d4a0       __acrt_lowio_ensure_fh_exists$fin$0 000000014003e4a0 f   libucrtd:osfinfo.obj
 0001:0003d4c0       __acrt_update_thread_locale_data$fin$0 000000014003e4c0 f   libucrtd:locale_refcounting.obj
 0001:0003d4e0       raise$fin$0                000000014003e4e0 f   libucrtd:signal.obj
 0001:0003d510       _VCrtDbgReportA$fin$0      000000014003e510 f   libucrtd:dbgrptt.obj
 0001:0003d52b       _VCrtDbgReportA$fin$1      000000014003e52b f   libucrtd:dbgrptt.obj
 0001:0003d550       _VCrtDbgReportW$fin$0      000000014003e550 f   libucrtd:dbgrptt.obj
 0001:0003d56b       _VCrtDbgReportW$fin$1      000000014003e56b f   libucrtd:dbgrptt.obj
 0001:0003d590       fclose$fin$0               000000014003e590 f   libucrtd:fclose.obj
 0001:0003d5c0       ?fin$0@?0???$?RV<lambda_53fc7fc888e23d815d7080162c0aeeb2>@@AEAV<lambda_4e7105787b7b0e0227fbf2b2d883fa65>@@V<lambda_8ddc48ad9d26c778cb15812d1d88fc8a>@@@?$__crt_seh_guarded_call@H@@QEAAH$$QEAV<lambda_53fc7fc888e23d815d7080162c0aeeb2>@@AEAV<lambda_4e7105787b7b0e0227fbf2b2d883fa65>@@$$QEAV<lambda_8ddc48ad9d26c778cb15812d1d88fc8a>@@@Z@4HA 000000014003e5c0 f   libucrtd:close.obj
 0001:0003d5c0       ?fin$0@?0???$?RV<lambda_4e3dbe6921bc0b5a1a6bc6573fdc859e>@@AEAV<lambda_5533cddd4bda0037814beee657757329>@@V<lambda_47cffbaa968af5c721c38a4a6f8da44d>@@@?$__crt_seh_guarded_call@H@@QEAAH$$QEAV<lambda_4e3dbe6921bc0b5a1a6bc6573fdc859e>@@AEAV<lambda_5533cddd4bda0037814beee657757329>@@$$QEAV<lambda_47cffbaa968af5c721c38a4a6f8da44d>@@@Z@4HA 000000014003e5c0 f   libucrtd:commit.obj
 0001:0003d5e0       ?fin$0@?0???$common_lseek@_J@@YA_JH_JH@Z@4HA 000000014003e5e0 f   libucrtd:lseek.obj
 0001:0003d5e0       _write$fin$0               000000014003e5e0 f   libucrtd:write.obj
 0001:0003d600       ?dtor$0@?0??shortsort@@YAXPEAD0_KP6AHPEBX2@Z@Z@4HA 000000014003e600 f   libucrtd:qsort.obj
 0001:0003d620       ?dtor$0@?0??_wcstombs_l_helper@@YA_KPEADPEB_W_KPEAU__crt_locale_pointers@@@Z@4HA 000000014003e620 f   libucrtd:wcstombs.obj
 0001:0003d640       common_control87$filt$0    000000014003e640 f   libucrtd:ieee.obj
 0001:0003d690       _ctrlfp$filt$0             000000014003e690 f   libucrtd:fpctrl.obj
 0001:0003d6e0       _IsNonwritableInCurrentImage$filt$0 000000014003e6e0 f   LIBCMTD:pesect.obj
 0002:000002f0       ?pre_cpp_initializer@@3P6AXXZEA 000000014003f2f0     LIBCMTD:exe_main.obj
 0002:00000308       ?pre_c_initializer@@3P6AHXZEA 000000014003f308     LIBCMTD:exe_main.obj
 0002:00000310       ?post_pgo_initializer@@3P6AHXZEA 000000014003f310     LIBCMTD:exe_main.obj
 0002:00000380       $SG95731                   000000014003f380     testserver.obj
 0002:00000398       $SG95733                   000000014003f398     testserver.obj
 0002:000003bc       $SG95909                   000000014003f3bc     testserver.obj
 0002:000003c0       $SG95781                   000000014003f3c0     testserver.obj
 0002:000003e4       $SG95941                   000000014003f3e4     testserver.obj
 0002:000003e8       $SG95803                   000000014003f3e8     testserver.obj
 0002:0000040c       $SG95946                   000000014003f40c     testserver.obj
 0002:00000410       $SG95813                   000000014003f410     testserver.obj
 0002:00000434       $SG95960                   000000014003f434     testserver.obj
 0002:00000438       $SG95820                   000000014003f438     testserver.obj
 0002:00000460       $SG95827                   000000014003f460     testserver.obj
 0002:00000480       $SG95832                   000000014003f480     testserver.obj
 0002:000004a8       $SG95841                   000000014003f4a8     testserver.obj
 0002:000004d0       $SG95907                   000000014003f4d0     testserver.obj
 0002:000004f0       $SG95910                   000000014003f4f0     testserver.obj
 0002:00000518       $SG95915                   000000014003f518     testserver.obj
 0002:00000538       $SG95917                   000000014003f538     testserver.obj
 0002:00000560       $SG95944                   000000014003f560     testserver.obj
 0002:00000578       $SG95947                   000000014003f578     testserver.obj
 0002:000005a0       $SG95949                   000000014003f5a0     testserver.obj
 0002:000005b8       $SG95951                   000000014003f5b8     testserver.obj
 0002:000005e0       GS_ExceptionPointers       000000014003f5e0     LIBCMTD:gs_report.obj
 0002:00000650       ?tokenTable@@3QBUStringLiteral@@B 000000014003f650     libvcruntimed:undname.obj
 0002:00000760       ?nameTable@@3QBUStringLiteral@@B 000000014003f760     libvcruntimed:undname.obj
 0002:00000c90       ?rttiTable@@3QBUStringLiteral@@B 000000014003fc90     libvcruntimed:undname.obj
 0002:00000ce0       ?IndirectionName@@3QBUStringLiteral@@B 000000014003fce0     libvcruntimed:undname.obj
 0002:00000d40       ?PrefixName@@3QBUStringLiteral@@B 000000014003fd40     libvcruntimed:undname.obj
 0002:00001430       ?module_names@?A0xbc0cc709@@3QBQEB_WB 0000000140040430     libvcruntimed:winapi_downlevel.obj
 0002:000016b0       ?candidate_modules@?1??try_get_FlsAlloc@@YAP6AKP6AXPEAX@Z@ZXZ@4QBW4module_id@?A0xbc0cc709@@B 00000001400406b0     libvcruntimed:winapi_downlevel.obj
 0002:000016c8       ?candidate_modules@?1??try_get_FlsFree@@YAP6AHK@ZXZ@4QBW4module_id@?A0xbc0cc709@@B 00000001400406c8     libvcruntimed:winapi_downlevel.obj
 0002:000016d8       ?candidate_modules@?1??try_get_FlsGetValue@@YAP6APEAXK@ZXZ@4QBW4module_id@?A0xbc0cc709@@B 00000001400406d8     libvcruntimed:winapi_downlevel.obj
 0002:000016f0       ?candidate_modules@?1??try_get_FlsSetValue@@YAP6AHKPEAX@ZXZ@4QBW4module_id@?A0xbc0cc709@@B 00000001400406f0     libvcruntimed:winapi_downlevel.obj
 0002:00001708       ?candidate_modules@?1??try_get_InitializeCriticalSectionEx@@YAP6AHPEAU_RTL_CRITICAL_SECTION@@KK@ZXZ@4QBW4module_id@?A0xbc0cc709@@B 0000000140040708     libvcruntimed:winapi_downlevel.obj
 0002:00001730       ?ExceptionTemplate@?1??UnwindNestedFrames@__FrameHandler3@@SAXPEA_KPEAUEHExceptionRecord@@PEAU_CONTEXT@@0PEAXPEBU_s_FuncInfo@@HHPEBU_s_HandlerType@@PEAU_xDISPATCHER_CONTEXT@@E@Z@4U_EXCEPTION_RECORD@@B 0000000140040730     libvcruntimed:risctrnsctrl.obj
 0002:00001910       ?errtable@@3QBUerrentry@?A0x31fdb9ec@@B 0000000140040910     libucrtd:errno.obj
 0002:00005d08       $cppxdata$??R<lambda_d121dba8a4adeaf3a9819e48611155df>@@QEBAHXZ 0000000140044d08     libucrtd:onexit.obj
 0002:00005d70       __acrt_initializers        0000000140044d70     libucrtd:initialization.obj
 0002:00005e70       ?block_use_names@@3QBQEBDB 0000000140044e70     libucrtd:debug_heap.obj
 0002:00006fe0       ?report_type_messages@@3QBQEB_WB 0000000140045fe0     libucrtd:dbgrpt.obj
 0002:00007040       ?more_info_string@@3QEB_WEB 0000000140046040     libucrtd:dbgrpt.obj
 0002:0000734e       ?empty_string@?1???$common_message_window@D@@YAHHQEAXQEBD111@Z@4QBDB 000000014004634e     libucrtd:dbgrpt.obj
 0002:000075c8       ?empty_string@?1???$common_message_window@_W@@YAHHQEAXQEB_W111@Z@4QB_WB 00000001400465c8     libucrtd:dbgrpt.obj
 0002:00007e00       ?module_names@?A0x391cf84c@@3QBQEB_WB 0000000140046e00     libucrtd:winapi_thunks.obj
 0002:00008384       ?candidate_modules@?1??try_get_AreFileApisANSI@@YAP6AHXZXZ@4QBW4module_id@?A0x391cf84c@@B 0000000140047384     libucrtd:winapi_thunks.obj
 0002:00008398       ?candidate_modules@?1??try_get_CompareStringEx@@YAP6AHPEB_WK0H0HPEAU_nlsversioninfo@@PEAX_J@ZXZ@4QBW4module_id@?A0x391cf84c@@B 0000000140047398     libucrtd:winapi_thunks.obj
 0002:000083b0       ?candidate_modules@?1??try_get_FlsAlloc@@YAP6AKP6AXPEAX@Z@ZXZ@4QBW4module_id@?A0x391cf84c@@B 00000001400473b0     libucrtd:winapi_thunks.obj
 0002:000083b8       ?candidate_modules@?1??try_get_FlsFree@@YAP6AHK@ZXZ@4QBW4module_id@?A0x391cf84c@@B 00000001400473b8     libucrtd:winapi_thunks.obj
 0002:000083c0       ?candidate_modules@?1??try_get_FlsGetValue@@YAP6APEAXK@ZXZ@4QBW4module_id@?A0x391cf84c@@B 00000001400473c0     libucrtd:winapi_thunks.obj
 0002:000083c8       ?candidate_modules@?1??try_get_FlsSetValue@@YAP6AHKPEAX@ZXZ@4QBW4module_id@?A0x391cf84c@@B 00000001400473c8     libucrtd:winapi_thunks.obj
 0002:000083d0       ?candidate_modules@?1??try_get_GetActiveWindow@@YAP6APEAUHWND__@@XZXZ@4QBW4module_id@?A0x391cf84c@@B 00000001400473d0     libucrtd:winapi_thunks.obj
 0002:000083e8       ?candidate_modules@?1??try_get_GetLastActivePopup@@YAP6APEAUHWND__@@PEAU2@@ZXZ@4QBW4module_id@?A0x391cf84c@@B 00000001400473e8     libucrtd:winapi_thunks.obj
 0002:00008408       ?candidate_modules@?1??try_get_GetProcessWindowStation@@YAP6APEAUHWINSTA__@@XZXZ@4QBW4module_id@?A0x391cf84c@@B 0000000140047408     libucrtd:winapi_thunks.obj
 0002:00008428       ?candidate_modules@?1??try_get_GetUserObjectInformationW@@YAP6AHPEAXH0KPEAK@ZXZ@4QBW4module_id@?A0x391cf84c@@B 0000000140047428     libucrtd:winapi_thunks.obj
 0002:00008450       ?candidate_modules@?1??try_get_InitializeCriticalSectionEx@@YAP6AHPEAU_RTL_CRITICAL_SECTION@@KK@ZXZ@4QBW4module_id@?A0x391cf84c@@B 0000000140047450     libucrtd:winapi_thunks.obj
 0002:00008458       ?candidate_modules@?1??try_get_LCMapStringEx@@YAP6AHPEB_WK0HPEA_WHPEAU_nlsversioninfo@@PEAX_J@ZXZ@4QBW4module_id@?A0x391cf84c@@B 0000000140047458     libucrtd:winapi_thunks.obj
 0002:00008470       ?candidate_modules@?1??try_get_LocaleNameToLCID@@YAP6AKPEB_WK@ZXZ@4QBW4module_id@?A0x391cf84c@@B 0000000140047470     libucrtd:winapi_thunks.obj
 0002:00008490       ?candidate_modules@?1??try_get_MessageBoxA@@YAP6AHPEAUHWND__@@PEBD1I@ZXZ@4QBW4module_id@?A0x391cf84c@@B 0000000140047490     libucrtd:winapi_thunks.obj
 0002:000084a8       ?candidate_modules@?1??try_get_MessageBoxW@@YAP6AHPEAUHWND__@@PEB_W1I@ZXZ@4QBW4module_id@?A0x391cf84c@@B 00000001400474a8     libucrtd:winapi_thunks.obj
 0002:000084bc       ?candidate_modules@?1??try_get_AppPolicyGetProcessTerminationMethod@@YAP6AJPEAXPEAW4AppPolicyProcessTerminationMethod@@@ZXZ@4QBW4module_id@?A0x391cf84c@@B 00000001400474bc     libucrtd:winapi_thunks.obj
 0002:000084e8       ?candidate_modules@?1??try_get_AppPolicyGetShowDeveloperDiagnostic@@YAP6AJPEAXPEAW4AppPolicyShowDeveloperDiagnostic@@@ZXZ@4QBW4module_id@?A0x391cf84c@@B 00000001400474e8     libucrtd:winapi_thunks.obj
 0002:00008514       ?candidate_modules@?1??try_get_AppPolicyGetWindowingModel@@YAP6AJPEAXPEAW4AppPolicyWindowingModel@@@ZXZ@4QBW4module_id@?A0x391cf84c@@B 0000000140047514     libucrtd:winapi_thunks.obj
 0002:00008a40       $cppxdata$?fp_format_a@@YAHQEBNPEAD_KQEAD2H_NIQEAU__crt_locale_pointers@@W4__acrt_rounding_mode@@@Z 0000000140047a40     libucrtd:cvt.obj
 0002:00008a70       ?strings@?1??fp_format_nan_or_infinity@@YAHW4__acrt_fp_class@@_NPEAD_K1@Z@4QAY03QEBDA 0000000140047a70     libucrtd:cvt.obj
 0002:00009368       $cppxdata$??1?$__crt_win32_buffer@DU__crt_win32_buffer_internal_dynamic_resizing@@@@QEAA@XZ 0000000140048368     libucrtd:argv_wildcards.obj
 0002:00009368       $cppxdata$??1?$__crt_win32_buffer@_WU__crt_win32_buffer_internal_dynamic_resizing@@@@QEAA@XZ 0000000140048368     libucrtd:argv_wildcards.obj
 0002:00009788       $cppxdata$??1?$__crt_win32_buffer@DU__crt_win32_buffer_no_resizing@@@@QEAA@XZ 0000000140048788     libucrtd:getmodulefilenamea.obj
 0002:000097b0       ?_mb_locale_names@@3QBQEB_WB 00000001400487b0     libucrtd:mbctype.obj
 0002:0000b7c0       ?LcidToLocaleNameTable@?A0x881e4c05@@3QBULcidToLocaleName@1@B 000000014004a7c0     libucrtd:lcidtoname_downlevel.obj
 0002:0000d210       ?LocaleNameToIndexTable@?A0x881e4c05@@3QBULocaleNameIndex@1@B 000000014004c210     libucrtd:lcidtoname_downlevel.obj
 0002:00010090       $cppxdata$?shortsort@@YAXPEAD0_KP6AHPEBX2@Z@Z 000000014004f090     libucrtd:qsort.obj
 0002:00010730       $cppxdata$?_wcstombs_l_helper@@YA_KPEADPEB_W_KPEAU__crt_locale_pointers@@@Z 000000014004f730     libucrtd:wcstombs.obj
 0002:00010a30       __real_ninf                000000014004fa30     libucrtd:log10.obj
 0002:00010a40       __real_inf                 000000014004fa40     libucrtd:log10.obj
 0002:00010a50       __real_neg_qnan            000000014004fa50     libucrtd:log10.obj
 0002:00010a60       __real_qnanbit             000000014004fa60     libucrtd:log10.obj
 0002:00010a70       __int_1023                 000000014004fa70     libucrtd:log10.obj
 0002:00010a80       __mask_001                 000000014004fa80     libucrtd:log10.obj
 0002:00010a90       __mask_mant                000000014004fa90     libucrtd:log10.obj
 0002:00010aa0       __mask_mant_top8           000000014004faa0     libucrtd:log10.obj
 0002:00010ab0       __mask_mant9               000000014004fab0     libucrtd:log10.obj
 0002:00010ac0       __real_log10_e             000000014004fac0     libucrtd:log10.obj
 0002:00010ad0       __real_log10_e_lead        000000014004fad0     libucrtd:log10.obj
 0002:00010ae0       __real_log10_e_tail        000000014004fae0     libucrtd:log10.obj
 0002:00010af0       __real_log10_2_lead        000000014004faf0     libucrtd:log10.obj
 0002:00010b00       __real_log10_2_tail        000000014004fb00     libucrtd:log10.obj
 0002:00010b10       __real_two                 000000014004fb10     libucrtd:log10.obj
 0002:00010b20       __real_one                 000000014004fb20     libucrtd:log10.obj
 0002:00010b30       __real_half                000000014004fb30     libucrtd:log10.obj
 0002:00010b40       __mask_100                 000000014004fb40     libucrtd:log10.obj
 0002:00010b50       __real_1_over_512          000000014004fb50     libucrtd:log10.obj
 0002:00010b60       __real_1_over_2            000000014004fb60     libucrtd:log10.obj
 0002:00010b70       __real_1_over_3            000000014004fb70     libucrtd:log10.obj
 0002:00010b80       __real_1_over_4            000000014004fb80     libucrtd:log10.obj
 0002:00010b90       __real_1_over_5            000000014004fb90     libucrtd:log10.obj
 0002:00010ba0       __real_1_over_6            000000014004fba0     libucrtd:log10.obj
 0002:00010bb0       __real_neg_1023            000000014004fbb0     libucrtd:log10.obj
 0002:00010bc0       __mask_2045                000000014004fbc0     libucrtd:log10.obj
 0002:00010bd0       __real_threshold           000000014004fbd0     libucrtd:log10.obj
 0002:00010be0       __real_near_one_lt         000000014004fbe0     libucrtd:log10.obj
 0002:00010bf0       __real_near_one_gt         000000014004fbf0     libucrtd:log10.obj
 0002:00010c00       __real_min_norm            000000014004fc00     libucrtd:log10.obj
 0002:00010c10       __real_notsign             000000014004fc10     libucrtd:log10.obj
 0002:00010c20       __real_ca1                 000000014004fc20     libucrtd:log10.obj
 0002:00010c30       __real_ca2                 000000014004fc30     libucrtd:log10.obj
 0002:00010c40       __real_ca3                 000000014004fc40     libucrtd:log10.obj
 0002:00010c50       __real_ca4                 000000014004fc50     libucrtd:log10.obj
 0002:00010c60       __mask_lower               000000014004fc60     libucrtd:log10.obj
 0002:00010c70       __flag_x_zero              000000014004fc70     libucrtd:log10.obj
 0002:00010c74       __flag_x_neg               000000014004fc74     libucrtd:log10.obj
 0002:00010c78       __flag_x_nan               000000014004fc78     libucrtd:log10.obj
 0002:000128d0       __real@433fffffffffffff    00000001400518d0     libucrtd:fpsr.obj
 0002:000128d8       __real@c33fffffffffffff    00000001400518d8     libucrtd:fpsr.obj
 0002:00013020       $unwind$?createServer@@YAXPEAUServer@@PEADH@Z 0000000140052020     testserver.obj
 0002:0001302c       $unwind$?waitForConnection@@YAXPEAUServer@@@Z 000000014005202c     testserver.obj
 0002:00013038       $unwind$?recvq@@YAXPEAUServer@@PEADH@Z 0000000140052038     testserver.obj
 0002:00013040       $unwind$?sendq@@YAXPEAUServer@@PEADH@Z 0000000140052040     testserver.obj
 0002:00013048       $unwind$?recvBuffer@@YAHHPEAUaddrinfo@@HHPEADH@Z 0000000140052048     testserver.obj
 0002:0001305c       $unwind$?sendBuffer@@YAHHPEAUaddrinfo@@HPEADH@Z 000000014005205c     testserver.obj
 0002:00013070       $unwind$?timeout@@YAHH@Z   0000000140052070     testserver.obj
 0002:00013080       $unwind$?recvPlatform@@YAHHPEADHH@Z 0000000140052080     testserver.obj
 0002:00013088       $unwind$?recvfromPlatform@@YAHHPEADHHPEAUaddrinfo@@@Z 0000000140052088     testserver.obj
 0002:00013090       $unwind$?sendPlatform@@YAHHPEADHH@Z 0000000140052090     testserver.obj
 0002:00013098       $unwind$?addressInit@@YAPEAUaddrinfo@@PEADH@Z 0000000140052098     testserver.obj
 0002:000130ac       $unwind$?socketq@@YAHUaddrinfo@@@Z 00000001400520ac     testserver.obj
 0002:000130b4       $unwind$?bindq@@YAXHUaddrinfo@@@Z 00000001400520b4     testserver.obj
 0002:000130bc       $unwind$?listenq@@YAXH@Z   00000001400520bc     testserver.obj
 0002:000130c4       $unwind$?acceptq@@YAHHUaddrinfo@@@Z 00000001400520c4     testserver.obj
 0002:000130cc       $unwind$main               00000001400520cc     testserver.obj
 0002:000130e0       $unwind$??$sprintf_s@$09@@YAHAEAY09DPEBDZZ 00000001400520e0     testserver.obj
 0002:000130e0       $unwind$_vfprintf_l        00000001400520e0     testserver.obj
 0002:000130e0       $unwind$fprintf            00000001400520e0     testserver.obj
 0002:000130e0       $unwind$printf             00000001400520e0     testserver.obj
 0002:000130e0       $unwind$vsprintf_s         00000001400520e0     testserver.obj
 0002:000130e0       $unwind$?__mbrtowc_utf8@__crt_mbstring@@YA_KPEA_WPEBD_KPEAU_Mbstatet@@@Z 00000001400520e0     libucrtd:mbrtowc.obj
 0002:000130e0       $unwind$mbstowcs_s         00000001400520e0     libucrtd:mbstowcs.obj
 0002:000130e0       $unwind$wcstombs_s         00000001400520e0     libucrtd:wcstombs.obj
 0002:000130e0       $unwind$_calloc_dbg        00000001400520e0     libucrtd:debug_heap.obj
 0002:000130e0       $unwind$_vsnprintf_s       00000001400520e0     libucrtd:dbgrptt.obj
 0002:000130e0       $unwind$??$?0AEBV?$stream_output_adapter@D@__crt_stdio_output@@AEB_KAEBQEBDAEBQEAU__crt_locale_pointers@@AEBQEAD@?$standard_base@DV?$stream_output_adapter@D@__crt_stdio_output@@@__crt_stdio_output@@IEAA@AEBV?$stream_output_adapter@D@1@AEB_KAEBQEBDAEBQEAU__crt_locale_pointers@@AEBQEAD@Z 00000001400520e0     libucrtd:output.obj
 0002:000130e0       $unwind$??$?0AEBV?$string_output_adapter@D@__crt_stdio_output@@AEB_KAEBQEBDAEBQEAU__crt_locale_pointers@@AEBQEAD@?$format_validation_base@DV?$string_output_adapter@D@__crt_stdio_output@@@__crt_stdio_output@@IEAA@AEBV?$string_output_adapter@D@1@AEB_KAEBQEBDAEBQEAU__crt_locale_pointers@@AEBQEAD@Z 00000001400520e0     libucrtd:output.obj
 0002:000130e0       $unwind$??$?0AEBV?$string_output_adapter@D@__crt_stdio_output@@AEB_KAEBQEBDAEBQEAU__crt_locale_pointers@@AEBQEAD@?$standard_base@DV?$string_output_adapter@D@__crt_stdio_output@@@__crt_stdio_output@@IEAA@AEBV?$string_output_adapter@D@1@AEB_KAEBQEBDAEBQEAU__crt_locale_pointers@@AEBQEAD@Z 00000001400520e0     libucrtd:output.obj
 0002:000130e0       $unwind$??$?0AEBV?$string_output_adapter@_W@__crt_stdio_output@@AEB_KAEBQEB_WAEBQEAU__crt_locale_pointers@@AEBQEAD@?$format_validation_base@_WV?$string_output_adapter@_W@__crt_stdio_output@@@__crt_stdio_output@@IEAA@AEBV?$string_output_adapter@_W@1@AEB_KAEBQEB_WAEBQEAU__crt_locale_pointers@@AEBQEAD@Z 00000001400520e0     libucrtd:output.obj
 0002:000130e0       $unwind$??$?0AEBV?$string_output_adapter@_W@__crt_stdio_output@@AEB_KAEBQEB_WAEBQEAU__crt_locale_pointers@@AEBQEAD@?$standard_base@_WV?$string_output_adapter@_W@__crt_stdio_output@@@__crt_stdio_output@@IEAA@AEBV?$string_output_adapter@_W@1@AEB_KAEBQEB_WAEBQEAU__crt_locale_pointers@@AEBQEAD@Z 00000001400520e0     libucrtd:output.obj
 0002:000130e0       $unwind$??0?$output_processor@DV?$stream_output_adapter@D@__crt_stdio_output@@V?$standard_base@DV?$stream_output_adapter@D@__crt_stdio_output@@@2@@__crt_stdio_output@@QEAA@AEBV?$stream_output_adapter@D@1@_KQEBDQEAU__crt_locale_pointers@@QEAD@Z 00000001400520e0     libucrtd:output.obj
 0002:000130e0       $unwind$??0?$output_processor@DV?$string_output_adapter@D@__crt_stdio_output@@V?$format_validation_base@DV?$string_output_adapter@D@__crt_stdio_output@@@2@@__crt_stdio_output@@QEAA@AEBV?$string_output_adapter@D@1@_KQEBDQEAU__crt_locale_pointers@@QEAD@Z 00000001400520e0     libucrtd:output.obj
 0002:000130e0       $unwind$??0?$output_processor@_WV?$string_output_adapter@_W@__crt_stdio_output@@V?$format_validation_base@_WV?$string_output_adapter@_W@__crt_stdio_output@@@2@@__crt_stdio_output@@QEAA@AEBV?$string_output_adapter@_W@1@_KQEB_WQEAU__crt_locale_pointers@@QEAD@Z 00000001400520e0     libucrtd:output.obj
 0002:000130e0       $unwind$?write_string@?$stream_output_adapter@D@__crt_stdio_output@@QEBAXQEBDHQEAHAEAV__crt_deferred_errno_cache@@@Z 00000001400520e0     libucrtd:output.obj
 0002:000130e0       $unwind$__stdio_common_vfprintf 00000001400520e0     libucrtd:output.obj
 0002:000130e0       $unwind$__stdio_common_vsprintf_s 00000001400520e0     libucrtd:output.obj
 0002:000130e0       $unwind$??$__acrt_fenv_translate_bit@W4__acrt_fenv_abstract_control@@W4__acrt_fenv_machine_sse_control@@@@YA?AW4__acrt_fenv_abstract_control@@W4__acrt_fenv_machine_sse_control@@0W40@1@Z 00000001400520e0     libucrtd:_fenvutils.obj
 0002:000130e0       $unwind$??$__acrt_fenv_translate_bit@W4__acrt_fenv_machine_sse_control@@W4__acrt_fenv_abstract_control@@@@YA?AW4__acrt_fenv_machine_sse_control@@W4__acrt_fenv_abstract_control@@0W40@1@Z 00000001400520e0     libucrtd:_fenvutils.obj
 0002:000130e0       $unwind$?SetUnwindTryBlock@__FrameHandler3@@SAXPEA_KPEAU_xDISPATCHER_CONTEXT@@PEBU_s_FuncInfo@@H@Z 00000001400520e0     libvcruntimed:ehstate.obj
 0002:000130e0       $unwind$?_CallMemberFunction2@@YAXQEAX00H@Z 00000001400520e0     libvcruntimed:frame.obj
 0002:000130e8       $unwind$_vsprintf_s_l      00000001400520e8     testserver.obj
 0002:000130e8       $unwind$??$parse_integer_from_string@JD$$T@__crt_strtox@@YAJQEBD$$THQEAU__crt_locale_pointers@@@Z 00000001400520e8     libucrtd:atox.obj
 0002:000130e8       $unwind$memcpy_s           00000001400520e8     libucrtd:cfout.obj
 0002:000130e8       $unwind$??$parse_integer_from_string@JDPEAPEAD@__crt_strtox@@YAJQEBDQEAPEADHQEAU__crt_locale_pointers@@@Z 00000001400520e8     libucrtd:strtox.obj
 0002:000130e8       $unwind$??$parse_integer_from_string@J_WPEAPEA_W@__crt_strtox@@YAJQEB_WQEAPEA_WHQEAU__crt_locale_pointers@@@Z 00000001400520e8     libucrtd:strtox.obj
 0002:000130e8       $unwind$__acrt_MessageBoxW 00000001400520e8     libucrtd:winapi_thunks.obj
 0002:000130e8       $unwind$memcpy_s           00000001400520e8     libucrtd:mbctype.obj
 0002:000130e8       $unwind$_snwprintf_s       00000001400520e8     libucrtd:dbgrpt.obj
 0002:000130e8       $unwind$_snprintf_s        00000001400520e8     libucrtd:dbgrptt.obj
 0002:000130e8       $unwind$??$parse_command_line@D@@YAXPEADPEAPEAD0PEA_K2@Z 00000001400520e8     libucrtd:argv_parsing.obj
 0002:000130e8       $unwind$?write_string@?$string_output_adapter@D@__crt_stdio_output@@QEBAXQEBDHQEAHAEAV__crt_deferred_errno_cache@@@Z 00000001400520e8     libucrtd:output.obj
 0002:000130e8       $unwind$?write_string@?$string_output_adapter@_W@__crt_stdio_output@@QEBAXQEB_WHQEAHAEAV__crt_deferred_errno_cache@@@Z 00000001400520e8     libucrtd:output.obj
 0002:000130e8       $unwind$?write_string_impl@?$output_adapter_common@DV?$stream_output_adapter@D@__crt_stdio_output@@@__crt_stdio_output@@IEBAXQEBDHQEAHAEAV__crt_deferred_errno_cache@@@Z 00000001400520e8     libucrtd:output.obj
 0002:000130e8       $unwind$__stdio_common_vsnprintf_s 00000001400520e8     libucrtd:output.obj
 0002:000130e8       $unwind$__stdio_common_vsnwprintf_s 00000001400520e8     libucrtd:output.obj
 0002:000130e8       $unwind$_raise_exc         00000001400520e8     libucrtd:fpexcept.obj
 0002:000130e8       $unwind$__GSHandlerCheck_EH 00000001400520e8     LIBCMTD:gshandlereh.obj
 0002:000130e8       $unwind$__GSHandlerCheck_SEH 00000001400520e8     LIBCMTD:gshandlerseh.obj
 0002:000130e8       $unwind$sprintf_s          00000001400520e8     libvcruntimed:undname.obj
 0002:000130f0       $unwind$__ascii_strnicmp   00000001400520f0     libucrtd:strnicmp.obj
 0002:000130f0       $unwind$_strnicmp          00000001400520f0     libucrtd:strnicmp.obj
 0002:000130f0       $unwind$__ascii_wcsnicmp   00000001400520f0     libucrtd:wcsnicmp.obj
 0002:000130f0       $unwind$__GSHandlerCheckCommon 00000001400520f0     LIBCMTD:gshandler.obj
 0002:000130f8       $unwind$?shift_bytes@@YAXQEAD_K0H@Z 00000001400520f8     libucrtd:cvt.obj
 0002:000130f8       $unwind$??$message_box@$$TAEBQEB_WAEBQEB_WK@?$__crt_char_traits@_W@@SAH$$QEA$$TAEBQEB_W1$$QEAK@Z 00000001400520f8     libucrtd:crtmbox.obj
 0002:000130f8       $unwind$??$message_box@PEAUHWND__@@AEBQEB_WAEBQEB_WAEBI@?$__crt_char_traits@_W@@SAH$$QEAPEAUHWND__@@AEBQEB_W1AEBI@Z 00000001400520f8     libucrtd:crtmbox.obj
 0002:000130f8       $unwind$_invoke_watson     00000001400520f8     libucrtd:invalid_parameter.obj
 0002:000130f8       $unwind$??$tcsncpy_s@AEAPEAD_KAEAPEADAEB_K@?$__crt_char_traits@D@@SAHAEAPEAD$$QEA_K0AEB_K@Z 00000001400520f8     libucrtd:argv_wildcards.obj
 0002:000130f8       $unwind$??$tcsncpy_s@PEADAEB_KAEBQEBDAEB_K@?$__crt_char_traits@D@@SAH$$QEAPEADAEB_KAEBQEBD1@Z 00000001400520f8     libucrtd:argv_wildcards.obj
 0002:000130f8       $unwind$??$tcsncpy_s@PEAD_KAEBQEBDAEB_K@?$__crt_char_traits@D@@SAH$$QEAPEAD$$QEA_KAEBQEBDAEB_K@Z 00000001400520f8     libucrtd:argv_wildcards.obj
 0002:000130f8       $unwind$??0?$output_adapter_data@DV?$stream_output_adapter@D@__crt_stdio_output@@@__crt_stdio_output@@IEAA@AEBV?$stream_output_adapter@D@1@_KQEBDQEAU__crt_locale_pointers@@QEAD@Z 00000001400520f8     libucrtd:output.obj
 0002:000130f8       $unwind$??0?$output_adapter_data@DV?$string_output_adapter@D@__crt_stdio_output@@@__crt_stdio_output@@IEAA@AEBV?$string_output_adapter@D@1@_KQEBDQEAU__crt_locale_pointers@@QEAD@Z 00000001400520f8     libucrtd:output.obj
 0002:000130f8       $unwind$??0?$output_adapter_data@_WV?$string_output_adapter@_W@__crt_stdio_output@@@__crt_stdio_output@@IEAA@AEBV?$string_output_adapter@_W@1@_KQEB_WQEAU__crt_locale_pointers@@QEAD@Z 00000001400520f8     libucrtd:output.obj
 0002:000130f8       $unwind$strncpy_s          00000001400520f8     libucrtd:strncpy_s.obj
 0002:000130f8       $unwind$wcsncpy_s          00000001400520f8     libucrtd:wcsncpy_s.obj
 0002:000130f8       $unwind$__GSHandlerCheck   00000001400520f8     LIBCMTD:gshandler.obj
 0002:000130f8       $unwind$?BuildCatchObject@__FrameHandler3@@SAXPEAUEHExceptionRecord@@PEAXPEBU_s_HandlerType@@PEBU_s_CatchableType@@@Z 00000001400520f8     libvcruntimed:frame.obj
 0002:00013100       $xdatasym                  0000000140052100     LIBCMTD:amdsecgs.obj
 0002:00013104       $unwind$__dcrt_terminate_console_output 0000000140052104     libucrtd:initcon.obj
 0002:00013104       $unwind$??$uninitialize_environment_internal@D@@YAXAEAPEAPEAD@Z 0000000140052104     libucrtd:environment_initialization.obj
 0002:00013104       $unwind$??$uninitialize_environment_internal@_W@@YAXAEAPEAPEA_W@Z 0000000140052104     libucrtd:environment_initialization.obj
 0002:00013104       $unwind$__dcrt_get_or_create_narrow_environment_nolock 0000000140052104     libucrtd:environment_initialization.obj
 0002:00013104       $unwind$__dcrt_uninitialize_environments_nolock 0000000140052104     libucrtd:environment_initialization.obj
 0002:00013104       $unwind$_get_initial_narrow_environment 0000000140052104     libucrtd:environment_initialization.obj
 0002:00013104       $unwind$__acrt_initialize_heap 0000000140052104     libucrtd:heap_handle.obj
 0002:00013104       $unwind$_query_new_mode    0000000140052104     libucrtd:new_mode.obj
 0002:00013104       $unwind$__acrt_initialize  0000000140052104     libucrtd:initialization.obj
 0002:00013104       $unwind$initialize_c       0000000140052104     libucrtd:initialization.obj
 0002:00013104       $unwind$initialize_global_variables 0000000140052104     libucrtd:initialization.obj
 0002:00013104       $unwind$__acrt_getptd_noexit 0000000140052104     libucrtd:per_thread_data.obj
 0002:00013104       $unwind$__acrt_initialize_ptd 0000000140052104     libucrtd:per_thread_data.obj
 0002:00013104       $unwind$__acrt_get_developer_information_policy 0000000140052104     libucrtd:win_policies.obj
 0002:00013104       $unwind$__acrt_get_process_end_policy 0000000140052104     libucrtd:win_policies.obj
 0002:00013104       $unwind$__acrt_get_windowing_model_policy 0000000140052104     libucrtd:win_policies.obj
 0002:00013104       $unwind$?try_get_AppPolicyGetProcessTerminationMethod@@YAP6AJPEAXPEAW4AppPolicyProcessTerminationMethod@@@ZXZ 0000000140052104     libucrtd:winapi_thunks.obj
 0002:00013104       $unwind$?try_get_AppPolicyGetShowDeveloperDiagnostic@@YAP6AJPEAXPEAW4AppPolicyShowDeveloperDiagnostic@@@ZXZ 0000000140052104     libucrtd:winapi_thunks.obj
 0002:00013104       $unwind$?try_get_AppPolicyGetWindowingModel@@YAP6AJPEAXPEAW4AppPolicyWindowingModel@@@ZXZ 0000000140052104     libucrtd:winapi_thunks.obj
 0002:00013104       $unwind$?try_get_AreFileApisANSI@@YAP6AHXZXZ 0000000140052104     libucrtd:winapi_thunks.obj
 0002:00013104       $unwind$?try_get_CompareStringEx@@YAP6AHPEB_WK0H0HPEAU_nlsversioninfo@@PEAX_J@ZXZ 0000000140052104     libucrtd:winapi_thunks.obj
 0002:00013104       $unwind$?try_get_FlsAlloc@@YAP6AKP6AXPEAX@Z@ZXZ 0000000140052104     libucrtd:winapi_thunks.obj
 0002:00013104       $unwind$?try_get_FlsFree@@YAP6AHK@ZXZ 0000000140052104     libucrtd:winapi_thunks.obj
 0002:00013104       $unwind$?try_get_FlsGetValue@@YAP6APEAXK@ZXZ 0000000140052104     libucrtd:winapi_thunks.obj
 0002:00013104       $unwind$?try_get_FlsSetValue@@YAP6AHKPEAX@ZXZ 0000000140052104     libucrtd:winapi_thunks.obj
 0002:00013104       $unwind$?try_get_GetActiveWindow@@YAP6APEAUHWND__@@XZXZ 0000000140052104     libucrtd:winapi_thunks.obj
 0002:00013104       $unwind$?try_get_GetLastActivePopup@@YAP6APEAUHWND__@@PEAU1@@ZXZ 0000000140052104     libucrtd:winapi_thunks.obj
 0002:00013104       $unwind$?try_get_GetProcessWindowStation@@YAP6APEAUHWINSTA__@@XZXZ 0000000140052104     libucrtd:winapi_thunks.obj
 0002:00013104       $unwind$?try_get_GetUserObjectInformationW@@YAP6AHPEAXH0KPEAK@ZXZ 0000000140052104     libucrtd:winapi_thunks.obj
 0002:00013104       $unwind$?try_get_InitializeCriticalSectionEx@@YAP6AHPEAU_RTL_CRITICAL_SECTION@@KK@ZXZ 0000000140052104     libucrtd:winapi_thunks.obj
 0002:00013104       $unwind$?try_get_LCMapStringEx@@YAP6AHPEB_WK0HPEA_WHPEAU_nlsversioninfo@@PEAX_J@ZXZ 0000000140052104     libucrtd:winapi_thunks.obj
 0002:00013104       $unwind$?try_get_LocaleNameToLCID@@YAP6AKPEB_WK@ZXZ 0000000140052104     libucrtd:winapi_thunks.obj
 0002:00013104       $unwind$?try_get_MessageBoxA@@YAP6AHPEAUHWND__@@PEBD1I@ZXZ 0000000140052104     libucrtd:winapi_thunks.obj
 0002:00013104       $unwind$?try_get_MessageBoxW@@YAP6AHPEAUHWND__@@PEB_W1I@ZXZ 0000000140052104     libucrtd:winapi_thunks.obj
 0002:00013104       $unwind$__fpecode          0000000140052104     libucrtd:signal.obj
 0002:00013104       $unwind$__acrt_initialize_command_line 0000000140052104     libucrtd:argv_data.obj
 0002:00013104       $unwind$_c_exit            0000000140052104     libucrtd:exit.obj
 0002:00013104       $unwind$_cexit             0000000140052104     libucrtd:exit.obj
 0002:00013104       $unwind$_flushall          0000000140052104     libucrtd:fflush.obj
 0002:00013104       $unwind$fegetround         0000000140052104     libucrtd:fegetround.obj
 0002:00013104       $unwind$?__scrt_common_main@@YAHXZ 0000000140052104     LIBCMTD:exe_main.obj
 0002:00013104       $unwind$?configure_argv@__scrt_narrow_argv_policy@@SAHXZ 0000000140052104     LIBCMTD:exe_main.obj
 0002:00013104       $unwind$?initialize_environment@__scrt_narrow_environment_policy@@SAHXZ 0000000140052104     LIBCMTD:exe_main.obj
 0002:00013104       $unwind$?post_pgo_initialization@@YAHXZ 0000000140052104     LIBCMTD:exe_main.obj
 0002:00013104       $unwind$?pre_c_initialization@@YAHXZ 0000000140052104     LIBCMTD:exe_main.obj
 0002:00013104       $unwind$?pre_cpp_initialization@@YAXXZ 0000000140052104     LIBCMTD:exe_main.obj
 0002:00013104       $unwind$?set_app_type@__scrt_main_policy@@SAXXZ 0000000140052104     LIBCMTD:exe_main.obj
 0002:00013104       $unwind$?set_fmode@__scrt_file_policy@@SAXXZ 0000000140052104     LIBCMTD:exe_main.obj
 0002:00013104       $unwind$__report_rangecheckfailure 0000000140052104     LIBCMTD:gs_report.obj
 0002:00013104       $unwind$?__scrt_initialize_type_info@@YAXXZ 0000000140052104     LIBCMTD:tncleanup.obj
 0002:00013104       $unwind$__scrt_initialize_mta 0000000140052104     LIBCMTD:utility_desktop.obj
 0002:00013104       $unwind$__scrt_set_unhandled_exception_filter 0000000140052104     LIBCMTD:utility_desktop.obj
 0002:00013104       $unwind$__current_exception 0000000140052104     libvcruntimed:ehhelpers.obj
 0002:00013104       $unwind$__current_exception_context 0000000140052104     libvcruntimed:ehhelpers.obj
 0002:00013104       $unwind$__vcrt_initialize  0000000140052104     libvcruntimed:initialization.obj
 0002:00013104       $unwind$__vcrt_initialize_ptd 0000000140052104     libvcruntimed:per_thread_data.obj
 0002:00013104       $unwind$__vcrt_uninitialize_ptd 0000000140052104     libvcruntimed:per_thread_data.obj
 0002:00013104       $unwind$_GetImageBase      0000000140052104     libvcruntimed:risctrnsctrl.obj
 0002:00013104       $unwind$_GetThrowImageBase 0000000140052104     libvcruntimed:risctrnsctrl.obj
 0002:00013104       $unwind$?try_get_FlsAlloc@@YAP6AKP6AXPEAX@Z@ZXZ 0000000140052104     libvcruntimed:winapi_downlevel.obj
 0002:00013104       $unwind$?try_get_FlsFree@@YAP6AHK@ZXZ 0000000140052104     libvcruntimed:winapi_downlevel.obj
 0002:00013104       $unwind$?try_get_FlsGetValue@@YAP6APEAXK@ZXZ 0000000140052104     libvcruntimed:winapi_downlevel.obj
 0002:00013104       $unwind$?try_get_FlsSetValue@@YAP6AHKPEAX@ZXZ 0000000140052104     libvcruntimed:winapi_downlevel.obj
 0002:00013104       $unwind$?try_get_InitializeCriticalSectionEx@@YAP6AHPEAU_RTL_CRITICAL_SECTION@@KK@ZXZ 0000000140052104     libvcruntimed:winapi_downlevel.obj
 0002:0001310c       $unwind$?initialize_multibyte@@YAHXZ 000000014005210c     libucrtd:multibyte_initializer.obj
 0002:0001310c       $unwind$initialize_pointers 000000014005210c     libucrtd:initialization.obj
 0002:0001310c       $unwind$__acrt_initialize_locks 000000014005210c     libucrtd:locks.obj
 0002:0001310c       $unwind$?try_get_ptd_head@@YAPEAU__acrt_ptd@@XZ 000000014005210c     libucrtd:per_thread_data.obj
 0002:0001310c       $unwind$__acrt_getptd      000000014005210c     libucrtd:per_thread_data.obj
 0002:0001310c       $unwind$__acrt_getptd_head 000000014005210c     libucrtd:per_thread_data.obj
 0002:0001310c       $unwind$?should_write_error_to_console@@YA_NXZ 000000014005210c     libucrtd:report_runtime_error.obj
 0002:0001310c       $unwind$__acrt_AreFileApisANSI 000000014005210c     libucrtd:winapi_thunks.obj
 0002:0001310c       $unwind$__acrt_can_show_message_box 000000014005210c     libucrtd:winapi_thunks.obj
 0002:0001310c       $unwind$__pctype_func      000000014005210c     libucrtd:ctype.obj
 0002:0001310c       $unwind$__acrt_initialize_multibyte 000000014005210c     libucrtd:mbctype.obj
 0002:0001310c       $unwind$__acrt_update_thread_multibyte_data 000000014005210c     libucrtd:mbctype.obj
 0002:0001310c       $unwind$__doserrno         000000014005210c     libucrtd:errno.obj
 0002:0001310c       $unwind$_errno             000000014005210c     libucrtd:errno.obj
 0002:0001310c       $unwind$_invalid_parameter_noinfo 000000014005210c     libucrtd:invalid_parameter.obj
 0002:0001310c       $unwind$abort              000000014005210c     libucrtd:abort.obj
 0002:0001310c       $unwind$?is_managed_app@@YA_NXZ 000000014005210c     libucrtd:exit.obj
 0002:0001310c       $unwind$?should_call_terminate_process@@YA_NXZ 000000014005210c     libucrtd:exit.obj
 0002:0001310c       $unwind$__acrt_uninitialize_stdio 000000014005210c     libucrtd:_file.obj
 0002:0001310c       $unwind$_clrfp             000000014005210c     libucrtd:fpctrl.obj
 0002:0001310c       $unwind$_statfp            000000014005210c     libucrtd:fpctrl.obj
 0002:0001310c       $unwind$_clearfp           000000014005210c     libucrtd:ieee.obj
 0002:0001310c       $unwind$?get_machine_sse_control@@YA?AW4__acrt_fenv_machine_sse_control@@XZ 000000014005210c     libucrtd:_fenvutils.obj
 0002:0001310c       $unwind$?get_machine_sse_status@@YA?AW4__acrt_fenv_machine_sse_status@@XZ 000000014005210c     libucrtd:_fenvutils.obj
 0002:0001310c       $unwind$__acrt_fenv_get_control 000000014005210c     libucrtd:_fenvutils.obj
 0002:0001310c       $unwind$__acrt_fenv_get_status 000000014005210c     libucrtd:_fenvutils.obj
 0002:0001310c       $unwind$__acrt_has_user_matherr 000000014005210c     libucrtd:matherr.obj
 0002:0001310c       $unwind$__scrt_initialize_default_local_stdio_options 000000014005210c     LIBCMTD:default_local_stdio_options.obj
 0002:0001310c       $unwind$?set_commode@__scrt_file_policy@@SAXXZ 000000014005210c     LIBCMTD:exe_main.obj
 0002:0001310c       $unwind$__security_init_cookie 000000014005210c     LIBCMTD:gs_support.obj
 0002:0001310c       $unwind$_guard_icall_checks_enforced 000000014005210c     LIBCMTD:guard_support.obj
 0002:0001310c       $unwind$__scrt_is_managed_app 000000014005210c     LIBCMTD:utility_desktop.obj
 0002:0001310c       $unwind$__vcrt_initialize_locks 000000014005210c     libvcruntimed:locks.obj
 0002:0001310c       $unwind$__vcrt_uninitialize_locks 000000014005210c     libvcruntimed:locks.obj
 0002:0001310c       $unwind$__vcrt_getptd      000000014005210c     libvcruntimed:per_thread_data.obj
 0002:00013114       $unwind$?internal_getptd_noexit@@YAPEAU__acrt_ptd@@XZ 0000000140052114     libucrtd:per_thread_data.obj
 0002:00013114       $unwind$?initialize_stdio_handles_nolock@@YAXXZ 0000000140052114     libucrtd:ioinit.obj
 0002:00013114       $unwind$__acrt_initialize_fmode 0000000140052114     libucrtd:txtmode.obj
 0002:00013114       $unwind$?invoke_main@@YAHXZ 0000000140052114     LIBCMTD:exe_main.obj
 0002:00013114       $unwind$__scrt_acquire_startup_lock 0000000140052114     LIBCMTD:utility.obj
 0002:0001311c       $unwind$?__scrt_common_main_seh@@YAHXZ 000000014005211c     LIBCMTD:exe_main.obj
 0002:0001313c       $unwind$?dtor$0@?0??fp_format_a@@YAHQEBNPEAD_KQEAD2H_NIQEAU__crt_locale_pointers@@W4__acrt_rounding_mode@@@Z@4HA 000000014005213c     libucrtd:cvt.obj
 0002:0001313c       $unwind$?dtor$0@?0??_wcstombs_l_helper@@YA_KPEADPEB_W_KPEAU__crt_locale_pointers@@@Z@4HA 000000014005213c     libucrtd:wcstombs.obj
 0002:0001313c       $unwind$?filt$0@?0??is_bad_read_pointer@@YA_NQEBX_K@Z@4HA 000000014005213c     libucrtd:debug_heap.obj
 0002:0001313c       $unwind$_free_dbg$fin$0    000000014005213c     libucrtd:debug_heap.obj
 0002:0001313c       $unwind$_query_new_handler$fin$0 000000014005213c     libucrtd:new_handler.obj
 0002:0001313c       $unwind$?fin$0@?0???$?RV<lambda_0ae27a3a962d80f24befdcbee591983d>@@AEAV<lambda_8d0ee55de4b1038c4002e0adecdf1839>@@V<lambda_dc504788e8f1664fe9b84e20bfb512f2>@@@?$__crt_seh_guarded_call@X@@QEAAX$$QEAV<lambda_0ae27a3a962d80f24befdcbee591983d>@@AEAV<lambda_8d0ee55de4b1038c4002e0adecdf1839>@@$$QEAV<lambda_dc504788e8f1664fe9b84e20bfb512f2>@@@Z@4HA 000000014005213c     libucrtd:per_thread_data.obj
 0002:0001313c       $unwind$?fin$0@?0???$?RV<lambda_2d41944a1d46af3157314b8a01080d33>@@AEAV<lambda_8f455de75cd7d7f24b4096f044d8b9e6>@@V<lambda_aa500f224e6afead328df44964fe2772>@@@?$__crt_seh_guarded_call@X@@QEAAX$$QEAV<lambda_2d41944a1d46af3157314b8a01080d33>@@AEAV<lambda_8f455de75cd7d7f24b4096f044d8b9e6>@@$$QEAV<lambda_aa500f224e6afead328df44964fe2772>@@@Z@4HA 000000014005213c     libucrtd:per_thread_data.obj
 0002:0001313c       $unwind$?fin$0@?0???$?RV<lambda_74a0ef281e44d15e1136f792f539efb3>@@AEAV<lambda_e157831efee4ea0afb0a2ace5dd5fd0d>@@V<lambda_04ddeca75b7c13fd67716e8dfcef87ee>@@@?$__crt_seh_guarded_call@X@@QEAAX$$QEAV<lambda_74a0ef281e44d15e1136f792f539efb3>@@AEAV<lambda_e157831efee4ea0afb0a2ace5dd5fd0d>@@$$QEAV<lambda_04ddeca75b7c13fd67716e8dfcef87ee>@@@Z@4HA 000000014005213c     libucrtd:per_thread_data.obj
 0002:0001313c       $unwind$?fin$0@?0???$?RV<lambda_aa87e3671a710a21b5dc78c0bdf72e11>@@AEAV<lambda_92619d2358a28f41a33ba319515a20b9>@@V<lambda_6992ecaafeb10aed2b74cb1fae11a551>@@@?$__crt_seh_guarded_call@X@@QEAAX$$QEAV<lambda_aa87e3671a710a21b5dc78c0bdf72e11>@@AEAV<lambda_92619d2358a28f41a33ba319515a20b9>@@$$QEAV<lambda_6992ecaafeb10aed2b74cb1fae11a551>@@@Z@4HA 000000014005213c     libucrtd:per_thread_data.obj
 0002:0001313c       $unwind$__acrt_update_thread_locale_data$fin$0 000000014005213c     libucrtd:locale_refcounting.obj
 0002:0001313c       $unwind$?fin$0@?0???$?RV<lambda_410d79af7f07d98d83a3f525b3859a53>@@AEAV<lambda_3e16ef9562a7dcce91392c22ab16ea36>@@V<lambda_38119f0e861e05405d8a144b9b982f0a>@@@?$__crt_seh_guarded_call@X@@QEAAX$$QEAV<lambda_410d79af7f07d98d83a3f525b3859a53>@@AEAV<lambda_3e16ef9562a7dcce91392c22ab16ea36>@@$$QEAV<lambda_38119f0e861e05405d8a144b9b982f0a>@@@Z@4HA 000000014005213c     libucrtd:wsetlocale.obj
 0002:0001313c       $unwind$?fin$0@?0???$?RV<lambda_53fc7fc888e23d815d7080162c0aeeb2>@@AEAV<lambda_4e7105787b7b0e0227fbf2b2d883fa65>@@V<lambda_8ddc48ad9d26c778cb15812d1d88fc8a>@@@?$__crt_seh_guarded_call@H@@QEAAH$$QEAV<lambda_53fc7fc888e23d815d7080162c0aeeb2>@@AEAV<lambda_4e7105787b7b0e0227fbf2b2d883fa65>@@$$QEAV<lambda_8ddc48ad9d26c778cb15812d1d88fc8a>@@@Z@4HA 000000014005213c     libucrtd:close.obj
 0002:0001313c       $unwind$?fin$0@?0???$?RV<lambda_4e3dbe6921bc0b5a1a6bc6573fdc859e>@@AEAV<lambda_5533cddd4bda0037814beee657757329>@@V<lambda_47cffbaa968af5c721c38a4a6f8da44d>@@@?$__crt_seh_guarded_call@H@@QEAAH$$QEAV<lambda_4e3dbe6921bc0b5a1a6bc6573fdc859e>@@AEAV<lambda_5533cddd4bda0037814beee657757329>@@$$QEAV<lambda_47cffbaa968af5c721c38a4a6f8da44d>@@@Z@4HA 000000014005213c     libucrtd:commit.obj
 0002:0001313c       $unwind$__acrt_initialize_lowio$fin$0 000000014005213c     libucrtd:ioinit.obj
 0002:0001313c       $unwind$?fin$0@?0???$?RV<lambda_efa02eb69bf647d2f7ff0dd6f1103f72>@@AEAV<lambda_bd5a608237428601b7e45fbdc72b1ae8>@@V<lambda_728235dc0fc2b1f82d1fa5b3e7102d8f>@@@?$__crt_seh_guarded_call@X@@QEAAX$$QEAV<lambda_efa02eb69bf647d2f7ff0dd6f1103f72>@@AEAV<lambda_bd5a608237428601b7e45fbdc72b1ae8>@@$$QEAV<lambda_728235dc0fc2b1f82d1fa5b3e7102d8f>@@@Z@4HA 000000014005213c     libucrtd:mbctype.obj
 0002:0001313c       $unwind$?fin$0@?0??update_thread_multibyte_data_internal@@YAPEAU__crt_multibyte_data@@QEAU__acrt_ptd@@QEAPEAU1@@Z@4HA 000000014005213c     libucrtd:mbctype.obj
 0002:0001313c       $unwind$?fin$0@?0???$?RV<lambda_450d765d439847d4c735a33c368b5fc0>@@AEAV<lambda_44731a7d0e6d81c3e6aa82d741081786>@@V<lambda_601a2a7da3b7a96e9554ac7215c4b07c>@@@?$__crt_seh_guarded_call@P6AXH@Z@@QEAAP6AXH@Z$$QEAV<lambda_450d765d439847d4c735a33c368b5fc0>@@AEAV<lambda_44731a7d0e6d81c3e6aa82d741081786>@@$$QEAV<lambda_601a2a7da3b7a96e9554ac7215c4b07c>@@@Z@4HA 000000014005213c     libucrtd:signal.obj
 0002:0001313c       $unwind$terminate$filt$0   000000014005213c     libucrtd:terminate.obj
 0002:0001313c       $unwind$?filt$0@?0???R<lambda_6e4b09c48022b2350581041d5f6b0c4c>@@QEBA@XZ@4HA 000000014005213c     libucrtd:exit.obj
 0002:0001313c       $unwind$?fin$0@?0???$?RV<lambda_d80eeec6fff315bfe5c115232f3240e3>@@AEAV<lambda_6e4b09c48022b2350581041d5f6b0c4c>@@V<lambda_2358e3775559c9db80273638284d5e45>@@@?$__crt_seh_guarded_call@X@@QEAAX$$QEAV<lambda_d80eeec6fff315bfe5c115232f3240e3>@@AEAV<lambda_6e4b09c48022b2350581041d5f6b0c4c>@@$$QEAV<lambda_2358e3775559c9db80273638284d5e45>@@@Z@4HA 000000014005213c     libucrtd:exit.obj
 0002:0001313c       $unwind$?dtor$0@?0???R<lambda_d121dba8a4adeaf3a9819e48611155df>@@QEBAHXZ@4HA 000000014005213c     libucrtd:onexit.obj
 0002:0001313c       $unwind$?fin$0@?0???$?RV<lambda_6a47f4c8fd0152770a780fc1d70204eb>@@AEAV<lambda_d121dba8a4adeaf3a9819e48611155df>@@V<lambda_6aaa2265f5b6a89667e7d7630012e97a>@@@?$__crt_seh_guarded_call@H@@QEAAH$$QEAV<lambda_6a47f4c8fd0152770a780fc1d70204eb>@@AEAV<lambda_d121dba8a4adeaf3a9819e48611155df>@@$$QEAV<lambda_6aaa2265f5b6a89667e7d7630012e97a>@@@Z@4HA 000000014005213c     libucrtd:onexit.obj
 0002:0001313c       $unwind$?fin$0@?0???$?RV<lambda_dce957679fd779aa27c4ca5c39e09098>@@AEAV<lambda_3b83eb014488ad801d84acef5aaf14d3>@@V<lambda_00e911965883f7966597d4c465c83ebc>@@@?$__crt_seh_guarded_call@H@@QEAAH$$QEAV<lambda_dce957679fd779aa27c4ca5c39e09098>@@AEAV<lambda_3b83eb014488ad801d84acef5aaf14d3>@@$$QEAV<lambda_00e911965883f7966597d4c465c83ebc>@@@Z@4HA 000000014005213c     libucrtd:onexit.obj
 0002:0001313c       $unwind$_fcloseall$fin$0   000000014005213c     libucrtd:closeall.obj
 0002:0001313c       $unwind$?fin$0@?0???$?RV<lambda_842d9ff0dc9ef11c61343bbaebe7f885>@@AEAV<lambda_c5860995281e5c4ce005b3de8f5874ee>@@V<lambda_d90129c13df834fdcbf8d2b88dafcf2d>@@@?$__crt_seh_guarded_call@X@@QEAAX$$QEAV<lambda_842d9ff0dc9ef11c61343bbaebe7f885>@@AEAV<lambda_c5860995281e5c4ce005b3de8f5874ee>@@$$QEAV<lambda_d90129c13df834fdcbf8d2b88dafcf2d>@@@Z@4HA 000000014005213c     libucrtd:fflush.obj
 0002:0001313c       $unwind$?fin$0@?0???$?RV<lambda_886d6c58226a84441f68b9f2b8217b83>@@AEAV<lambda_ab61a845afdef5b7c387490eaf3616ee>@@V<lambda_f7f22ab5edc0698d5f6905b0d3f44752>@@@?$__crt_seh_guarded_call@X@@QEAAX$$QEAV<lambda_886d6c58226a84441f68b9f2b8217b83>@@AEAV<lambda_ab61a845afdef5b7c387490eaf3616ee>@@$$QEAV<lambda_f7f22ab5edc0698d5f6905b0d3f44752>@@@Z@4HA 000000014005213c     libucrtd:fflush.obj
 0002:0001313c       $unwind$?fin$0@?0???$?RV<lambda_fe5404e9642edbb7c8ae71e1dcfa4018>@@AEAV<lambda_36eeb330e99a4f0bf8a7da86d0894cb9>@@V<lambda_2fa474834de80dc12f7a3c6eddd7a366>@@@?$__crt_seh_guarded_call@H@@QEAAH$$QEAV<lambda_fe5404e9642edbb7c8ae71e1dcfa4018>@@AEAV<lambda_36eeb330e99a4f0bf8a7da86d0894cb9>@@$$QEAV<lambda_2fa474834de80dc12f7a3c6eddd7a366>@@@Z@4HA 000000014005213c     libucrtd:output.obj
 0002:0001313c       $unwind$?dtor$0@?0??shortsort@@YAXPEAD0_KP6AHPEBX2@Z@Z@4HA 000000014005213c     libucrtd:qsort.obj
 0002:0001313c       $unwind$_ctrlfp$filt$0     000000014005213c     libucrtd:fpctrl.obj
 0002:0001313c       $unwind$?filt$0@?0??__scrt_common_main_seh@@YAHXZ@4HA 000000014005213c     LIBCMTD:exe_main.obj
 0002:0001313c       $unwind$_IsNonwritableInCurrentImage$filt$0 000000014005213c     LIBCMTD:pesect.obj
 0002:0001313c       $unwind$__scrt_is_nonwritable_in_current_image$filt$0 000000014005213c     LIBCMTD:utility.obj
 0002:0001313c       $unwind$__DestructExceptionObject$filt$0 000000014005213c     libvcruntimed:ehhelpers.obj
 0002:0001313c       $unwind$?filt$0@?0???$BuildCatchObjectHelperInternal@V__FrameHandler3@@@@YAHPEAUEHExceptionRecord@@PEAXPEBU_s_HandlerType@@PEBU_s_CatchableType@@@Z@4HA 000000014005213c     libvcruntimed:frame.obj
 0002:0001313c       $unwind$?filt$0@?0???$BuildCatchObjectInternal@V__FrameHandler3@@@@YAXPEAUEHExceptionRecord@@PEAXPEBU_s_HandlerType@@PEBU_s_CatchableType@@@Z@4HA 000000014005213c     libvcruntimed:frame.obj
 0002:0001313c       $unwind$?filt$0@?0??CxxCallCatchBlock@__FrameHandler3@@SAPEAXPEAU_EXCEPTION_RECORD@@@Z@4HA 000000014005213c     libvcruntimed:frame.obj
 0002:0001313c       $unwind$?filt$0@?0??FrameUnwindToState@__FrameHandler3@@SAXPEA_KPEAU_xDISPATCHER_CONTEXT@@PEBU_s_FuncInfo@@H@Z@4HA 000000014005213c     libvcruntimed:frame.obj
 0002:0001313c       $unwind$?fin$1@?0??CxxCallCatchBlock@__FrameHandler3@@SAPEAXPEAU_EXCEPTION_RECORD@@@Z@4HA 000000014005213c     libvcruntimed:frame.obj
 0002:0001313c       $unwind$?fin$1@?0??FrameUnwindToState@__FrameHandler3@@SAXPEA_KPEAU_xDISPATCHER_CONTEXT@@PEBU_s_FuncInfo@@H@Z@4HA 000000014005213c     libvcruntimed:frame.obj
 0002:00013144       $unwind$_putwch_nolock     0000000140052144     libucrtd:putwch.obj
 0002:00013144       $unwind$??1_LocaleUpdate@@QEAA@XZ 0000000140052144     libucrtd:atox.obj
 0002:00013144       $unwind$atoi               0000000140052144     libucrtd:atox.obj
 0002:00013144       $unwind$??0big_integer@__crt_strtox@@QEAA@XZ 0000000140052144     libucrtd:cfout.obj
 0002:00013144       $unwind$??0scoped_fp_state_reset@?A0x71ca7cfb@@QEAA@XZ 0000000140052144     libucrtd:cfout.obj
 0002:00013144       $unwind$??1scoped_fp_state_reset@?A0x71ca7cfb@@QEAA@XZ 0000000140052144     libucrtd:cfout.obj
 0002:00013144       $unwind$_CrtIsValidHeapPointer 0000000140052144     libucrtd:debug_heap.obj
 0002:00013144       $unwind$malloc             0000000140052144     libucrtd:malloc.obj
 0002:00013144       $unwind$??$__crt_fast_decode_pointer@P6AH_K@Z@@YAP6AH_K@ZQ6AH0@Z@Z 0000000140052144     libucrtd:new_handler.obj
 0002:00013144       $unwind$?value@?$dual_state_global@P6AH_K@Z@__crt_state_management@@QEAAAEAP6AH_K@ZXZ 0000000140052144     libucrtd:new_handler.obj
 0002:00013144       $unwind$__acrt_initialize_new_handler 0000000140052144     libucrtd:new_handler.obj
 0002:00013144       $unwind$?value@?$dual_state_global@J@__crt_state_management@@QEAAAEAJXZ 0000000140052144     libucrtd:new_mode.obj
 0002:00013144       $unwind$?_deallocate@?$__crt_win32_buffer@DU__crt_win32_buffer_no_resizing@@@@AEAAXXZ 0000000140052144     libucrtd:getmodulefilenamea.obj
 0002:00013144       $unwind$?set_to_nullptr@?$__crt_win32_buffer@DU__crt_win32_buffer_no_resizing@@@@QEAAXXZ 0000000140052144     libucrtd:getmodulefilenamea.obj
 0002:00013144       $unwind$??$?BX@__crt_fast_encoded_nullptr_t@@QEBAPEAXXZ 0000000140052144     libucrtd:initialization.obj
 0002:00013144       $unwind$??$__crt_fast_encode_pointer@PEAX@@YAPEAXQEAX@Z 0000000140052144     libucrtd:initialization.obj
 0002:00013144       $unwind$??0__crt_scoped_get_last_error_reset@@QEAA@XZ 0000000140052144     libucrtd:per_thread_data.obj
 0002:00013144       $unwind$??1?$__crt_unique_heap_ptr@U__acrt_ptd@@U__crt_internal_free_policy@@@@QEAA@XZ 0000000140052144     libucrtd:per_thread_data.obj
 0002:00013144       $unwind$??1__crt_scoped_get_last_error_reset@@QEAA@XZ 0000000140052144     libucrtd:per_thread_data.obj
 0002:00013144       $unwind$??B?$__crt_unique_heap_ptr@U__acrt_ptd@@U__crt_internal_free_policy@@@@QEBA_NXZ 0000000140052144     libucrtd:per_thread_data.obj
 0002:00013144       $unwind$??R<lambda_04ddeca75b7c13fd67716e8dfcef87ee>@@QEBAXXZ 0000000140052144     libucrtd:per_thread_data.obj
 0002:00013144       $unwind$??R<lambda_0ae27a3a962d80f24befdcbee591983d>@@QEBAXXZ 0000000140052144     libucrtd:per_thread_data.obj
 0002:00013144       $unwind$??R<lambda_2d41944a1d46af3157314b8a01080d33>@@QEBAXXZ 0000000140052144     libucrtd:per_thread_data.obj
 0002:00013144       $unwind$??R<lambda_6992ecaafeb10aed2b74cb1fae11a551>@@QEBAXXZ 0000000140052144     libucrtd:per_thread_data.obj
 0002:00013144       $unwind$??R<lambda_74a0ef281e44d15e1136f792f539efb3>@@QEBAXXZ 0000000140052144     libucrtd:per_thread_data.obj
 0002:00013144       $unwind$??R<lambda_8f455de75cd7d7f24b4096f044d8b9e6>@@QEBAXXZ 0000000140052144     libucrtd:per_thread_data.obj
 0002:00013144       $unwind$??R<lambda_92619d2358a28f41a33ba319515a20b9>@@QEBAXXZ 0000000140052144     libucrtd:per_thread_data.obj
 0002:00013144       $unwind$??R<lambda_aa500f224e6afead328df44964fe2772>@@QEBAXXZ 0000000140052144     libucrtd:per_thread_data.obj
 0002:00013144       $unwind$??R<lambda_aa87e3671a710a21b5dc78c0bdf72e11>@@QEBAXXZ 0000000140052144     libucrtd:per_thread_data.obj
 0002:00013144       $unwind$??R<lambda_dc504788e8f1664fe9b84e20bfb512f2>@@QEBAXXZ 0000000140052144     libucrtd:per_thread_data.obj
 0002:00013144       $unwind$?destroy_fls@@YAXPEAX@Z 0000000140052144     libucrtd:per_thread_data.obj
 0002:00013144       $unwind$?appmodel_get_policy@developer_information_policy_properties@?1??__acrt_get_developer_information_policy@@YA?AW4developer_information_policy@@XZ@SAJPEAW4AppPolicyShowDeveloperDiagnostic@@@Z 0000000140052144     libucrtd:win_policies.obj
 0002:00013144       $unwind$?appmodel_get_policy@process_end_policy_properties@?1??__acrt_get_process_end_policy@@YA?AW4process_end_policy@@XZ@SAJPEAW4AppPolicyProcessTerminationMethod@@@Z 0000000140052144     libucrtd:win_policies.obj
 0002:00013144       $unwind$?appmodel_get_policy@windowing_model_policy_properties@?1??__acrt_get_windowing_model_policy@@YA?AW4windowing_model_policy@@XZ@SAJPEAW4AppPolicyWindowingModel@@@Z 0000000140052144     libucrtd:win_policies.obj
 0002:00013144       $unwind$??$__crt_fast_decode_pointer@PEAX@@YAPEAXQEAX@Z 0000000140052144     libucrtd:winapi_thunks.obj
 0002:00013144       $unwind$??1?$__crt_scoped_stack_ptr@_W@@QEAA@XZ 0000000140052144     libucrtd:getstringtypea.obj
 0002:00013144       $unwind$__acrt_locale_free_monetary 0000000140052144     libucrtd:initmon.obj
 0002:00013144       $unwind$__acrt_locale_free_numeric 0000000140052144     libucrtd:initnum.obj
 0002:00013144       $unwind$??$free_crt_array@D$01@@YAXAEAY01PEAD@Z 0000000140052144     libucrtd:inittime.obj
 0002:00013144       $unwind$??$free_crt_array@D$06@@YAXAEAY06PEAD@Z 0000000140052144     libucrtd:inittime.obj
 0002:00013144       $unwind$??$free_crt_array@D$0M@@@YAXAEAY0M@PEAD@Z 0000000140052144     libucrtd:inittime.obj
 0002:00013144       $unwind$??$free_crt_array@_W$01@@YAXAEAY01PEA_W@Z 0000000140052144     libucrtd:inittime.obj
 0002:00013144       $unwind$??$free_crt_array@_W$06@@YAXAEAY06PEA_W@Z 0000000140052144     libucrtd:inittime.obj
 0002:00013144       $unwind$??$free_crt_array@_W$0M@@@YAXAEAY0M@PEA_W@Z 0000000140052144     libucrtd:inittime.obj
 0002:00013144       $unwind$__acrt_locale_free_time 0000000140052144     libucrtd:inittime.obj
 0002:00013144       $unwind$__acrt_locale_free_lc_time_if_unreferenced 0000000140052144     libucrtd:locale_refcounting.obj
 0002:00013144       $unwind$?value@?$dual_state_global@PEAU__crt_multibyte_data@@@__crt_state_management@@QEAAAEAPEAU__crt_multibyte_data@@XZ 0000000140052144     libucrtd:locale_update.obj
 0002:00013144       $unwind$??1?$__crt_unique_heap_ptr@U__crt_multibyte_data@@U__crt_internal_free_policy@@@@QEAA@XZ 0000000140052144     libucrtd:wsetlocale.obj
 0002:00013144       $unwind$??B?$__crt_unique_heap_ptr@U__crt_multibyte_data@@U__crt_internal_free_policy@@@@QEBA_NXZ 0000000140052144     libucrtd:wsetlocale.obj
 0002:00013144       $unwind$??R<lambda_38119f0e861e05405d8a144b9b982f0a>@@QEBAXXZ 0000000140052144     libucrtd:wsetlocale.obj
 0002:00013144       $unwind$??R<lambda_410d79af7f07d98d83a3f525b3859a53>@@QEBAXXZ 0000000140052144     libucrtd:wsetlocale.obj
 0002:00013144       $unwind$?value@?$dual_state_global@PEAU__crt_locale_data@@@__crt_state_management@@QEAAAEAPEAU__crt_locale_data@@XZ 0000000140052144     libucrtd:wsetlocale.obj
 0002:00013144       $unwind$??R<lambda_53fc7fc888e23d815d7080162c0aeeb2>@@QEBAXXZ 0000000140052144     libucrtd:close.obj
 0002:00013144       $unwind$??R<lambda_8ddc48ad9d26c778cb15812d1d88fc8a>@@QEBAXXZ 0000000140052144     libucrtd:close.obj
 0002:00013144       $unwind$??R<lambda_47cffbaa968af5c721c38a4a6f8da44d>@@QEBAXXZ 0000000140052144     libucrtd:commit.obj
 0002:00013144       $unwind$??R<lambda_4e3dbe6921bc0b5a1a6bc6573fdc859e>@@QEBAXXZ 0000000140052144     libucrtd:commit.obj
 0002:00013144       $unwind$??1?$__crt_unique_heap_ptr@U__crt_lowio_handle_data@@U__crt_internal_free_policy@@@@QEAA@XZ 0000000140052144     libucrtd:osfinfo.obj
 0002:00013144       $unwind$??B?$__crt_unique_heap_ptr@U__crt_lowio_handle_data@@U__crt_internal_free_policy@@@@QEBA_NXZ 0000000140052144     libucrtd:osfinfo.obj
 0002:00013144       $unwind$?value@?$dual_state_global@H@__crt_state_management@@QEAAAEAHXZ 0000000140052144     libucrtd:setmode.obj
 0002:00013144       $unwind$??R<lambda_728235dc0fc2b1f82d1fa5b3e7102d8f>@@QEBAXXZ 0000000140052144     libucrtd:mbctype.obj
 0002:00013144       $unwind$??R<lambda_efa02eb69bf647d2f7ff0dd6f1103f72>@@QEBAXXZ 0000000140052144     libucrtd:mbctype.obj
 0002:00013144       $unwind$?value@?$dual_state_global@PEAE@__crt_state_management@@QEAAAEAPEAEXZ 0000000140052144     libucrtd:mbctype.obj
 0002:00013144       $unwind$??$output_debug_string@AEBQEB_W@?$__crt_char_traits@_W@@SAXAEBQEB_W@Z 0000000140052144     libucrtd:crtmbox.obj
 0002:00013144       $unwind$??$tcslen@AEAY0BAF@D@?$__crt_char_traits@D@@SA_KAEAY0BAF@D@Z 0000000140052144     libucrtd:dbgrpt.obj
 0002:00013144       $unwind$??$tcslen@AEAY0BAF@_W@?$__crt_char_traits@_W@@SA_KAEAY0BAF@_W@Z 0000000140052144     libucrtd:dbgrpt.obj
 0002:00013144       $unwind$??$tcslen@AEBQEBD@?$__crt_char_traits@D@@SA_KAEBQEBD@Z 0000000140052144     libucrtd:dbgrpt.obj
 0002:00013144       $unwind$??$tcslen@AEBQEB_W@?$__crt_char_traits@_W@@SA_KAEBQEB_W@Z 0000000140052144     libucrtd:dbgrpt.obj
 0002:00013144       $unwind$??$__crt_fast_decode_pointer@P6AXPEB_W00I_K@Z@@YAP6AXPEB_W00I_K@ZQ6AX000I1@Z@Z 0000000140052144     libucrtd:invalid_parameter.obj
 0002:00013144       $unwind$?value@?$dual_state_global@P6AXPEB_W00I_K@Z@__crt_state_management@@QEAAAEAP6AXPEB_W00I_K@ZXZ 0000000140052144     libucrtd:invalid_parameter.obj
 0002:00013144       $unwind$??$?B$$A6AXH@Z@__crt_fast_encoded_nullptr_t@@QEBAP6AXH@ZXZ 0000000140052144     libucrtd:signal.obj
 0002:00013144       $unwind$??$__crt_fast_decode_pointer@P6AXH@Z@@YAP6AXH@ZQ6AXH@Z@Z 0000000140052144     libucrtd:signal.obj
 0002:00013144       $unwind$??$__crt_fast_encode_pointer@P6AXH@Z@@YAP6AXH@ZQ6AXH@Z@Z 0000000140052144     libucrtd:signal.obj
 0002:00013144       $unwind$??R<lambda_44731a7d0e6d81c3e6aa82d741081786>@@QEBAP6AXH@ZXZ 0000000140052144     libucrtd:signal.obj
 0002:00013144       $unwind$??R<lambda_450d765d439847d4c735a33c368b5fc0>@@QEBAXXZ 0000000140052144     libucrtd:signal.obj
 0002:00013144       $unwind$??R<lambda_601a2a7da3b7a96e9554ac7215c4b07c>@@QEBAXXZ 0000000140052144     libucrtd:signal.obj
 0002:00013144       $unwind$?value@?$dual_state_global@P6AXH@Z@__crt_state_management@@QEAAAEAP6AXH@ZXZ 0000000140052144     libucrtd:signal.obj
 0002:00013144       $unwind$__acrt_initialize_signal_handlers 0000000140052144     libucrtd:signal.obj
 0002:00013144       $unwind$??$set_program_name@PEAD@?$__crt_char_traits@D@@SAX$$QEAPEAD@Z 0000000140052144     libucrtd:argv_parsing.obj
 0002:00013144       $unwind$??1?$__crt_unique_heap_ptr@EU__crt_internal_free_policy@@@@QEAA@XZ 0000000140052144     libucrtd:argv_parsing.obj
 0002:00013144       $unwind$??1?$__crt_unique_heap_ptr@PEADU__crt_internal_free_policy@@@@QEAA@XZ 0000000140052144     libucrtd:argv_parsing.obj
 0002:00013144       $unwind$??B?$__crt_unique_heap_ptr@EU__crt_internal_free_policy@@@@QEBA_NXZ 0000000140052144     libucrtd:argv_parsing.obj
 0002:00013144       $unwind$??1?$__crt_unique_handle_t@U__crt_findfile_traits@@@@QEAA@XZ 0000000140052144     libucrtd:argv_wildcards.obj
 0002:00013144       $unwind$?_deallocate@?$__crt_win32_buffer@DU__crt_win32_buffer_internal_dynamic_resizing@@@@AEAAXXZ 0000000140052144     libucrtd:argv_wildcards.obj
 0002:00013144       $unwind$?_deallocate@?$__crt_win32_buffer@_WU__crt_win32_buffer_internal_dynamic_resizing@@@@AEAAXXZ 0000000140052144     libucrtd:argv_wildcards.obj
 0002:00013144       $unwind$?close@?$__crt_unique_handle_t@U__crt_findfile_traits@@@@QEAAXXZ 0000000140052144     libucrtd:argv_wildcards.obj
 0002:00013144       $unwind$?set_to_nullptr@?$__crt_win32_buffer@DU__crt_win32_buffer_internal_dynamic_resizing@@@@QEAAXXZ 0000000140052144     libucrtd:argv_wildcards.obj
 0002:00013144       $unwind$?set_to_nullptr@?$__crt_win32_buffer@_WU__crt_win32_buffer_internal_dynamic_resizing@@@@QEAAXXZ 0000000140052144     libucrtd:argv_wildcards.obj
 0002:00013144       $unwind$??$?B$$A6AXPEAXK0@Z@__crt_fast_encoded_nullptr_t@@QEBAP6AXPEAXK0@ZXZ 0000000140052144     libucrtd:exit.obj
 0002:00013144       $unwind$??$__crt_fast_decode_pointer@P6AXPEAXK0@Z@@YAP6AXPEAXK0@ZQ6AX0K0@Z@Z 0000000140052144     libucrtd:exit.obj
 0002:00013144       $unwind$??$__crt_fast_encode_pointer@P6AXPEAXK0@Z@@YAP6AXPEAXK0@ZQ6AX0K0@Z@Z 0000000140052144     libucrtd:exit.obj
 0002:00013144       $unwind$??$__crt_interlocked_read@J@@YAJPEDJ@Z 0000000140052144     libucrtd:exit.obj
 0002:00013144       $unwind$??1?$__crt_unique_handle_t@U__crt_hmodule_traits@@@@QEAA@XZ 0000000140052144     libucrtd:exit.obj
 0002:00013144       $unwind$??R<lambda_2358e3775559c9db80273638284d5e45>@@QEBAXXZ 0000000140052144     libucrtd:exit.obj
 0002:00013144       $unwind$??R<lambda_d80eeec6fff315bfe5c115232f3240e3>@@QEBAXXZ 0000000140052144     libucrtd:exit.obj
 0002:00013144       $unwind$?close@?$__crt_unique_handle_t@U__crt_hmodule_traits@@@@QEAAXXZ 0000000140052144     libucrtd:exit.obj
 0002:00013144       $unwind$??$?B$$A6AXXZ@__crt_fast_encoded_nullptr_t@@QEBAP6AXXZXZ 0000000140052144     libucrtd:onexit.obj
 0002:00013144       $unwind$??$?BP6AXXZ@__crt_fast_encoded_nullptr_t@@QEBAPEAP6AXXZXZ 0000000140052144     libucrtd:onexit.obj
 0002:00013144       $unwind$??$__crt_fast_decode_pointer@P6AXXZ@@YAP6AXXZQ6AXXZ@Z 0000000140052144     libucrtd:onexit.obj
 0002:00013144       $unwind$??$__crt_fast_decode_pointer@PEAP6AXXZ@@YAPEAP6AXXZQEAP6AXXZ@Z 0000000140052144     libucrtd:onexit.obj
 0002:00013144       $unwind$??$__crt_fast_encode_pointer@P6AHXZ@@YAP6AHXZQ6AHXZ@Z 0000000140052144     libucrtd:onexit.obj
 0002:00013144       $unwind$??$__crt_fast_encode_pointer@P6AXXZ@@YAP6AXXZQ6AXXZ@Z 0000000140052144     libucrtd:onexit.obj
 0002:00013144       $unwind$??$__crt_fast_encode_pointer@PEAP6AXXZ@@YAPEAP6AXXZQEAP6AXXZ@Z 0000000140052144     libucrtd:onexit.obj
 0002:00013144       $unwind$??1?$__crt_unique_heap_ptr@P6AXXZU__crt_internal_free_policy@@@@QEAA@XZ 0000000140052144     libucrtd:onexit.obj
 0002:00013144       $unwind$??R<lambda_00e911965883f7966597d4c465c83ebc>@@QEBAXXZ 0000000140052144     libucrtd:onexit.obj
 0002:00013144       $unwind$??R<lambda_6a47f4c8fd0152770a780fc1d70204eb>@@QEBAXXZ 0000000140052144     libucrtd:onexit.obj
 0002:00013144       $unwind$??R<lambda_6aaa2265f5b6a89667e7d7630012e97a>@@QEBAXXZ 0000000140052144     libucrtd:onexit.obj
 0002:00013144       $unwind$??R<lambda_dce957679fd779aa27c4ca5c39e09098>@@QEBAXXZ 0000000140052144     libucrtd:onexit.obj
 0002:00013144       $unwind$_crt_atexit        0000000140052144     libucrtd:onexit.obj
 0002:00013144       $unwind$??1?$__crt_unique_heap_ptr@PEAU__crt_stdio_stream_data@@U__crt_internal_free_policy@@@@QEAA@XZ 0000000140052144     libucrtd:_file.obj
 0002:00013144       $unwind$?has_big_buffer@__crt_stdio_stream@@QEBA_NXZ 0000000140052144     libucrtd:_flsbuf.obj
 0002:00013144       $unwind$?has_crt_buffer@__crt_stdio_stream@@QEBA_NXZ 0000000140052144     libucrtd:_freebuf.obj
 0002:00013144       $unwind$?has_any_buffer@__crt_stdio_stream@@QEBA_NXZ 0000000140052144     libucrtd:_sftbuf.obj
 0002:00013144       $unwind$?has_temporary_buffer@__crt_stdio_stream@@QEBA_NXZ 0000000140052144     libucrtd:_sftbuf.obj
 0002:00013144       $unwind$__acrt_should_use_temporary_buffer 0000000140052144     libucrtd:_sftbuf.obj
 0002:00013144       $unwind$??R<lambda_842d9ff0dc9ef11c61343bbaebe7f885>@@QEBAXXZ 0000000140052144     libucrtd:fflush.obj
 0002:00013144       $unwind$??R<lambda_886d6c58226a84441f68b9f2b8217b83>@@QEBAXXZ 0000000140052144     libucrtd:fflush.obj
 0002:00013144       $unwind$??R<lambda_c5860995281e5c4ce005b3de8f5874ee>@@QEBAXXZ 0000000140052144     libucrtd:fflush.obj
 0002:00013144       $unwind$??R<lambda_d90129c13df834fdcbf8d2b88dafcf2d>@@QEBAXXZ 0000000140052144     libucrtd:fflush.obj
 0002:00013144       $unwind$??R<lambda_f7f22ab5edc0698d5f6905b0d3f44752>@@QEBAXXZ 0000000140052144     libucrtd:fflush.obj
 0002:00013144       $unwind$?lowio_handle@__crt_stdio_stream@@QEBAHXZ 0000000140052144     libucrtd:fileno.obj
 0002:00013144       $unwind$??$count@D@formatting_buffer@__crt_stdio_output@@QEBA_KXZ 0000000140052144     libucrtd:output.obj
 0002:00013144       $unwind$??$count@_W@formatting_buffer@__crt_stdio_output@@QEBA_KXZ 0000000140052144     libucrtd:output.obj
 0002:00013144       $unwind$??$data@D@formatting_buffer@__crt_stdio_output@@QEAAPEADXZ 0000000140052144     libucrtd:output.obj
 0002:00013144       $unwind$??$data@_W@formatting_buffer@__crt_stdio_output@@QEAAPEA_WXZ 0000000140052144     libucrtd:output.obj
 0002:00013144       $unwind$??$scratch_count@D@formatting_buffer@__crt_stdio_output@@QEBA_KXZ 0000000140052144     libucrtd:output.obj
 0002:00013144       $unwind$??0?$common_data@D@__crt_stdio_output@@IEAA@XZ 0000000140052144     libucrtd:output.obj
 0002:00013144       $unwind$??0?$common_data@_W@__crt_stdio_output@@IEAA@XZ 0000000140052144     libucrtd:output.obj
 0002:00013144       $unwind$??0formatting_buffer@__crt_stdio_output@@QEAA@XZ 0000000140052144     libucrtd:output.obj
 0002:00013144       $unwind$??1?$common_data@D@__crt_stdio_output@@QEAA@XZ 0000000140052144     libucrtd:output.obj
 0002:00013144       $unwind$??1?$common_data@_W@__crt_stdio_output@@QEAA@XZ 0000000140052144     libucrtd:output.obj
 0002:00013144       $unwind$??1?$format_validation_base@DV?$string_output_adapter@D@__crt_stdio_output@@@__crt_stdio_output@@QEAA@XZ 0000000140052144     libucrtd:output.obj
 0002:00013144       $unwind$??1?$format_validation_base@_WV?$string_output_adapter@_W@__crt_stdio_output@@@__crt_stdio_output@@QEAA@XZ 0000000140052144     libucrtd:output.obj
 0002:00013144       $unwind$??1?$output_adapter_data@DV?$stream_output_adapter@D@__crt_stdio_output@@@__crt_stdio_output@@QEAA@XZ 0000000140052144     libucrtd:output.obj
 0002:00013144       $unwind$??1?$output_adapter_data@DV?$string_output_adapter@D@__crt_stdio_output@@@__crt_stdio_output@@QEAA@XZ 0000000140052144     libucrtd:output.obj
 0002:00013144       $unwind$??1?$output_adapter_data@_WV?$string_output_adapter@_W@__crt_stdio_output@@@__crt_stdio_output@@QEAA@XZ 0000000140052144     libucrtd:output.obj
 0002:00013144       $unwind$??1?$output_processor@DV?$stream_output_adapter@D@__crt_stdio_output@@V?$standard_base@DV?$stream_output_adapter@D@__crt_stdio_output@@@2@@__crt_stdio_output@@QEAA@XZ 0000000140052144     libucrtd:output.obj
 0002:00013144       $unwind$??1?$output_processor@DV?$string_output_adapter@D@__crt_stdio_output@@V?$format_validation_base@DV?$string_output_adapter@D@__crt_stdio_output@@@2@@__crt_stdio_output@@QEAA@XZ 0000000140052144     libucrtd:output.obj
 0002:00013144       $unwind$??1?$output_processor@_WV?$string_output_adapter@_W@__crt_stdio_output@@V?$format_validation_base@_WV?$string_output_adapter@_W@__crt_stdio_output@@@2@@__crt_stdio_output@@QEAA@XZ 0000000140052144     libucrtd:output.obj
 0002:00013144       $unwind$??1?$standard_base@DV?$stream_output_adapter@D@__crt_stdio_output@@@__crt_stdio_output@@QEAA@XZ 0000000140052144     libucrtd:output.obj
 0002:00013144       $unwind$??1?$standard_base@DV?$string_output_adapter@D@__crt_stdio_output@@@__crt_stdio_output@@QEAA@XZ 0000000140052144     libucrtd:output.obj
 0002:00013144       $unwind$??1?$standard_base@_WV?$string_output_adapter@_W@__crt_stdio_output@@@__crt_stdio_output@@QEAA@XZ 0000000140052144     libucrtd:output.obj
 0002:00013144       $unwind$??1__acrt_stdio_temporary_buffering_guard@@QEAA@XZ 0000000140052144     libucrtd:output.obj
 0002:00013144       $unwind$??1formatting_buffer@__crt_stdio_output@@QEAA@XZ 0000000140052144     libucrtd:output.obj
 0002:00013144       $unwind$??R<lambda_2fa474834de80dc12f7a3c6eddd7a366>@@QEBAXXZ 0000000140052144     libucrtd:output.obj
 0002:00013144       $unwind$??R<lambda_fe5404e9642edbb7c8ae71e1dcfa4018>@@QEBAXXZ 0000000140052144     libucrtd:output.obj
 0002:00013144       $unwind$?get@__crt_deferred_errno_cache@@QEAAAEAHXZ 0000000140052144     libucrtd:output.obj
 0002:00013144       $unwind$?get_flags@__crt_stdio_stream@@QEBAJXZ 0000000140052144     libucrtd:output.obj
 0002:00013144       $unwind$?state_case_normal_common@?$output_processor@DV?$stream_output_adapter@D@__crt_stdio_output@@V?$standard_base@DV?$stream_output_adapter@D@__crt_stdio_output@@@2@@__crt_stdio_output@@AEAA_NXZ 0000000140052144     libucrtd:output.obj
 0002:00013144       $unwind$?state_case_normal_common@?$output_processor@DV?$string_output_adapter@D@__crt_stdio_output@@V?$format_validation_base@DV?$string_output_adapter@D@__crt_stdio_output@@@2@@__crt_stdio_output@@AEAA_NXZ 0000000140052144     libucrtd:output.obj
 0002:00013144       $unwind$?state_case_normal_common@?$output_processor@_WV?$string_output_adapter@_W@__crt_stdio_output@@V?$format_validation_base@_WV?$string_output_adapter@_W@__crt_stdio_output@@@2@@__crt_stdio_output@@AEAA_NXZ 0000000140052144     libucrtd:output.obj
 0002:00013144       $unwind$?state_case_precision@?$output_processor@DV?$stream_output_adapter@D@__crt_stdio_output@@V?$standard_base@DV?$stream_output_adapter@D@__crt_stdio_output@@@2@@__crt_stdio_output@@AEAA_NXZ 0000000140052144     libucrtd:output.obj
 0002:00013144       $unwind$?state_case_precision@?$output_processor@DV?$string_output_adapter@D@__crt_stdio_output@@V?$format_validation_base@DV?$string_output_adapter@D@__crt_stdio_output@@@2@@__crt_stdio_output@@AEAA_NXZ 0000000140052144     libucrtd:output.obj
 0002:00013144       $unwind$?state_case_precision@?$output_processor@_WV?$string_output_adapter@_W@__crt_stdio_output@@V?$format_validation_base@_WV?$string_output_adapter@_W@__crt_stdio_output@@@2@@__crt_stdio_output@@AEAA_NXZ 0000000140052144     libucrtd:output.obj
 0002:00013144       $unwind$?state_case_width@?$output_processor@DV?$stream_output_adapter@D@__crt_stdio_output@@V?$standard_base@DV?$stream_output_adapter@D@__crt_stdio_output@@@2@@__crt_stdio_output@@AEAA_NXZ 0000000140052144     libucrtd:output.obj
 0002:00013144       $unwind$?state_case_width@?$output_processor@DV?$string_output_adapter@D@__crt_stdio_output@@V?$format_validation_base@DV?$string_output_adapter@D@__crt_stdio_output@@@2@@__crt_stdio_output@@AEAA_NXZ 0000000140052144     libucrtd:output.obj
 0002:00013144       $unwind$?state_case_width@?$output_processor@_WV?$string_output_adapter@_W@__crt_stdio_output@@V?$format_validation_base@_WV?$string_output_adapter@_W@__crt_stdio_output@@@2@@__crt_stdio_output@@AEAA_NXZ 0000000140052144     libucrtd:output.obj
 0002:00013144       $unwind$?tchar_string@?$common_data@D@__crt_stdio_output@@IEAAAEAPEADXZ 0000000140052144     libucrtd:output.obj
 0002:00013144       $unwind$?tchar_string@?$common_data@_W@__crt_stdio_output@@IEAAAEAPEA_WXZ 0000000140052144     libucrtd:output.obj
 0002:00013144       $unwind$?type_case_X@?$output_processor@DV?$stream_output_adapter@D@__crt_stdio_output@@V?$standard_base@DV?$stream_output_adapter@D@__crt_stdio_output@@@2@@__crt_stdio_output@@AEAA_NXZ 0000000140052144     libucrtd:output.obj
 0002:00013144       $unwind$?type_case_X@?$output_processor@DV?$string_output_adapter@D@__crt_stdio_output@@V?$format_validation_base@DV?$string_output_adapter@D@__crt_stdio_output@@@2@@__crt_stdio_output@@AEAA_NXZ 0000000140052144     libucrtd:output.obj
 0002:00013144       $unwind$?type_case_X@?$output_processor@_WV?$string_output_adapter@_W@__crt_stdio_output@@V?$format_validation_base@_WV?$string_output_adapter@_W@__crt_stdio_output@@@2@@__crt_stdio_output@@AEAA_NXZ 0000000140052144     libucrtd:output.obj
 0002:00013144       $unwind$?type_case_c@?$output_processor@DV?$stream_output_adapter@D@__crt_stdio_output@@V?$standard_base@DV?$stream_output_adapter@D@__crt_stdio_output@@@2@@__crt_stdio_output@@AEAA_NXZ 0000000140052144     libucrtd:output.obj
 0002:00013144       $unwind$?type_case_c@?$output_processor@DV?$string_output_adapter@D@__crt_stdio_output@@V?$format_validation_base@DV?$string_output_adapter@D@__crt_stdio_output@@@2@@__crt_stdio_output@@AEAA_NXZ 0000000140052144     libucrtd:output.obj
 0002:00013144       $unwind$?type_case_c@?$output_processor@_WV?$string_output_adapter@_W@__crt_stdio_output@@V?$format_validation_base@_WV?$string_output_adapter@_W@__crt_stdio_output@@@2@@__crt_stdio_output@@AEAA_NXZ 0000000140052144     libucrtd:output.obj
 0002:00013144       $unwind$?type_case_d@?$output_processor@DV?$stream_output_adapter@D@__crt_stdio_output@@V?$standard_base@DV?$stream_output_adapter@D@__crt_stdio_output@@@2@@__crt_stdio_output@@AEAA_NXZ 0000000140052144     libucrtd:output.obj
 0002:00013144       $unwind$?type_case_d@?$output_processor@DV?$string_output_adapter@D@__crt_stdio_output@@V?$format_validation_base@DV?$string_output_adapter@D@__crt_stdio_output@@@2@@__crt_stdio_output@@AEAA_NXZ 0000000140052144     libucrtd:output.obj
 0002:00013144       $unwind$?type_case_d@?$output_processor@_WV?$string_output_adapter@_W@__crt_stdio_output@@V?$format_validation_base@_WV?$string_output_adapter@_W@__crt_stdio_output@@@2@@__crt_stdio_output@@AEAA_NXZ 0000000140052144     libucrtd:output.obj
 0002:00013144       $unwind$?type_case_o@?$output_processor@DV?$stream_output_adapter@D@__crt_stdio_output@@V?$standard_base@DV?$stream_output_adapter@D@__crt_stdio_output@@@2@@__crt_stdio_output@@AEAA_NXZ 0000000140052144     libucrtd:output.obj
 0002:00013144       $unwind$?type_case_o@?$output_processor@DV?$string_output_adapter@D@__crt_stdio_output@@V?$format_validation_base@DV?$string_output_adapter@D@__crt_stdio_output@@@2@@__crt_stdio_output@@AEAA_NXZ 0000000140052144     libucrtd:output.obj
 0002:00013144       $unwind$?type_case_o@?$output_processor@_WV?$string_output_adapter@_W@__crt_stdio_output@@V?$format_validation_base@_WV?$string_output_adapter@_W@__crt_stdio_output@@@2@@__crt_stdio_output@@AEAA_NXZ 0000000140052144     libucrtd:output.obj
 0002:00013144       $unwind$?type_case_p@?$output_processor@DV?$stream_output_adapter@D@__crt_stdio_output@@V?$standard_base@DV?$stream_output_adapter@D@__crt_stdio_output@@@2@@__crt_stdio_output@@AEAA_NXZ 0000000140052144     libucrtd:output.obj
 0002:00013144       $unwind$?type_case_p@?$output_processor@DV?$string_output_adapter@D@__crt_stdio_output@@V?$format_validation_base@DV?$string_output_adapter@D@__crt_stdio_output@@@2@@__crt_stdio_output@@AEAA_NXZ 0000000140052144     libucrtd:output.obj
 0002:00013144       $unwind$?type_case_p@?$output_processor@_WV?$string_output_adapter@_W@__crt_stdio_output@@V?$format_validation_base@_WV?$string_output_adapter@_W@__crt_stdio_output@@@2@@__crt_stdio_output@@AEAA_NXZ 0000000140052144     libucrtd:output.obj
 0002:00013144       $unwind$?type_case_u@?$output_processor@DV?$stream_output_adapter@D@__crt_stdio_output@@V?$standard_base@DV?$stream_output_adapter@D@__crt_stdio_output@@@2@@__crt_stdio_output@@AEAA_NXZ 0000000140052144     libucrtd:output.obj
 0002:00013144       $unwind$?type_case_u@?$output_processor@DV?$string_output_adapter@D@__crt_stdio_output@@V?$format_validation_base@DV?$string_output_adapter@D@__crt_stdio_output@@@2@@__crt_stdio_output@@AEAA_NXZ 0000000140052144     libucrtd:output.obj
 0002:00013144       $unwind$?type_case_u@?$output_processor@_WV?$string_output_adapter@_W@__crt_stdio_output@@V?$format_validation_base@_WV?$string_output_adapter@_W@__crt_stdio_output@@@2@@__crt_stdio_output@@AEAA_NXZ 0000000140052144     libucrtd:output.obj
 0002:00013144       $unwind$?type_case_x@?$output_processor@DV?$stream_output_adapter@D@__crt_stdio_output@@V?$standard_base@DV?$stream_output_adapter@D@__crt_stdio_output@@@2@@__crt_stdio_output@@AEAA_NXZ 0000000140052144     libucrtd:output.obj
 0002:00013144       $unwind$?type_case_x@?$output_processor@DV?$string_output_adapter@D@__crt_stdio_output@@V?$format_validation_base@DV?$string_output_adapter@D@__crt_stdio_output@@@2@@__crt_stdio_output@@AEAA_NXZ 0000000140052144     libucrtd:output.obj
 0002:00013144       $unwind$?type_case_x@?$output_processor@_WV?$string_output_adapter@_W@__crt_stdio_output@@V?$format_validation_base@_WV?$string_output_adapter@_W@__crt_stdio_output@@@2@@__crt_stdio_output@@AEAA_NXZ 0000000140052144     libucrtd:output.obj
 0002:00013144       $unwind$?update_field_width@?$standard_base@DV?$stream_output_adapter@D@__crt_stdio_output@@@__crt_stdio_output@@IEAA_NXZ 0000000140052144     libucrtd:output.obj
 0002:00013144       $unwind$?update_field_width@?$standard_base@DV?$string_output_adapter@D@__crt_stdio_output@@@__crt_stdio_output@@IEAA_NXZ 0000000140052144     libucrtd:output.obj
 0002:00013144       $unwind$?update_field_width@?$standard_base@_WV?$string_output_adapter@_W@__crt_stdio_output@@@__crt_stdio_output@@IEAA_NXZ 0000000140052144     libucrtd:output.obj
 0002:00013144       $unwind$?update_precision@?$standard_base@DV?$stream_output_adapter@D@__crt_stdio_output@@@__crt_stdio_output@@IEAA_NXZ 0000000140052144     libucrtd:output.obj
 0002:00013144       $unwind$?update_precision@?$standard_base@DV?$string_output_adapter@D@__crt_stdio_output@@@__crt_stdio_output@@IEAA_NXZ 0000000140052144     libucrtd:output.obj
 0002:00013144       $unwind$?update_precision@?$standard_base@_WV?$string_output_adapter@_W@__crt_stdio_output@@@__crt_stdio_output@@IEAA_NXZ 0000000140052144     libucrtd:output.obj
 0002:00013144       $unwind$?__acrt_stdio_free_stream@@YAXV__crt_stdio_stream@@@Z 0000000140052144     libucrtd:stream.obj
 0002:00013144       $unwind$wcslen             0000000140052144     libucrtd:strnlen.obj
 0002:00013144       $unwind$fegetenv           0000000140052144     libucrtd:fegetenv.obj
 0002:00013144       $unwind$??$__crt_fast_decode_pointer@P6AHPEAU_exception@@@Z@@YAP6AHPEAU_exception@@@ZQ6AH0@Z@Z 0000000140052144     libucrtd:matherr.obj
 0002:00013144       $unwind$??$__crt_fast_encode_pointer@P6AHPEAU_exception@@@Z@@YAP6AHPEAU_exception@@@ZQ6AH0@Z@Z 0000000140052144     libucrtd:matherr.obj
 0002:00013144       $unwind$?value@?$dual_state_global@P6AHPEAU_exception@@@Z@__crt_state_management@@QEAAAEAP6AHPEAU_exception@@@ZXZ 0000000140052144     libucrtd:matherr.obj
 0002:00013144       $unwind$__acrt_initialize_user_matherr 0000000140052144     libucrtd:matherr.obj
 0002:00013144       $unwind$??3@YAXPEAX@Z      0000000140052144     LIBCMTD:delete_scalar.obj
 0002:00013144       $unwind$mainCRTStartup     0000000140052144     LIBCMTD:exe_main.obj
 0002:00013144       $unwind$__raise_securityfailure 0000000140052144     LIBCMTD:gs_report.obj
 0002:00013144       $unwind$ReadPointerNoFence 0000000140052144     LIBCMTD:guard_support.obj
 0002:00013144       $unwind$_ValidateImageBase 0000000140052144     LIBCMTD:pesect.obj
 0002:00013144       $unwind$?is_potentially_valid_image_base@@YA_NQEAX@Z 0000000140052144     LIBCMTD:utility.obj
 0002:00013144       $unwind$??0bad_exception@std@@QEAA@XZ 0000000140052144     libvcruntimed:frame.obj
 0002:00013144       $unwind$??1bad_exception@std@@UEAA@XZ 0000000140052144     libvcruntimed:frame.obj
 0002:00013144       $unwind$??1exception@std@@UEAA@XZ 0000000140052144     libvcruntimed:frame.obj
 0002:00013144       $unwind$?__RethrowException@@YAXPEAUEHExceptionRecord@@@Z 0000000140052144     libvcruntimed:frame.obj
 0002:00013144       $unwind$__vcrt_EncodePointer 0000000140052144     libvcruntimed:frame.obj
 0002:00013144       $unwind$??0scoped_get_last_error_reset@?A0x842715fc@@QEAA@XZ 0000000140052144     libvcruntimed:per_thread_data.obj
 0002:00013144       $unwind$??1?$__crt_unique_heap_ptr@U__vcrt_ptd@@U__crt_internal_free_policy@@@@QEAA@XZ 0000000140052144     libvcruntimed:per_thread_data.obj
 0002:00013144       $unwind$??1scoped_get_last_error_reset@?A0x842715fc@@QEAA@XZ 0000000140052144     libvcruntimed:per_thread_data.obj
 0002:00013144       $unwind$??B?$__crt_unique_heap_ptr@U__vcrt_ptd@@U__crt_internal_free_policy@@@@QEBA_NXZ 0000000140052144     libvcruntimed:per_thread_data.obj
 0002:00013144       $unwind$?store_and_initialize_ptd@@YA_NQEAU__vcrt_ptd@@@Z 0000000140052144     libvcruntimed:per_thread_data.obj
 0002:00013144       $unwind$__vcrt_freefls     0000000140052144     libvcruntimed:per_thread_data.obj
 0002:00013144       $unwind$_SetImageBase      0000000140052144     libvcruntimed:risctrnsctrl.obj
 0002:00013144       $unwind$_SetThrowImageBase 0000000140052144     libvcruntimed:risctrnsctrl.obj
 0002:00013144       $unwind$??1?$__crt_unique_heap_ptr@DU__crt_public_free_policy@@@@QEAA@XZ 0000000140052144     libvcruntimed:std_exception.obj
 0002:00013144       $unwind$??B?$__crt_unique_heap_ptr@DU__crt_public_free_policy@@@@QEBA_NXZ 0000000140052144     libvcruntimed:std_exception.obj
 0002:00013144       $unwind$__std_exception_destroy 0000000140052144     libvcruntimed:std_exception.obj
 0002:00013144       $unwind$??1?$__crt_unique_heap_ptr@DU__crt_internal_free_policy@@@@QEAA@XZ 0000000140052144     libvcruntimed:std_type_info.obj
 0002:00013144       $unwind$??B?$__crt_unique_heap_ptr@DU__crt_internal_free_policy@@@@QEBA_NXZ 0000000140052144     libvcruntimed:std_type_info.obj
 0002:00013144       $unwind$??$__crt_interlocked_read_pointer@UHINSTANCE__@@@@YAPEAUHINSTANCE__@@PEDSEAU0@@Z 0000000140052144     libvcruntimed:winapi_downlevel.obj
 0002:00013144       $unwind$??$__crt_interlocked_read_pointer@X@@YAPEAXPEDSEAX@Z 0000000140052144     libvcruntimed:winapi_downlevel.obj
 0002:0001314c       $unwind$__ascii_towupper   000000014005214c     libucrtd:atox.obj
 0002:0001314c       $unwind$__acrt_uninitialize 000000014005214c     libucrtd:initialization.obj
 0002:0001314c       $unwind$report_memory_leaks 000000014005214c     libucrtd:initialization.obj
 0002:0001314c       $unwind$uninitialize_allocated_io_buffers 000000014005214c     libucrtd:initialization.obj
 0002:0001314c       $unwind$uninitialize_environment 000000014005214c     libucrtd:initialization.obj
 0002:0001314c       $unwind$uninitialize_vcruntime 000000014005214c     libucrtd:initialization.obj
 0002:0001314c       $unwind$__acrt_lock        000000014005214c     libucrtd:locks.obj
 0002:0001314c       $unwind$__acrt_unlock      000000014005214c     libucrtd:locks.obj
 0002:0001314c       $unwind$__acrt_uninitialize_ptd 000000014005214c     libucrtd:per_thread_data.obj
 0002:0001314c       $unwind$__ascii_towlower   000000014005214c     libucrtd:wsetlocale.obj
 0002:0001314c       $unwind$__acrt_lowio_lock_fh 000000014005214c     libucrtd:osfinfo.obj
 0002:0001314c       $unwind$__acrt_lowio_unlock_fh 000000014005214c     libucrtd:osfinfo.obj
 0002:0001314c       $unwind$?do_locale_initialization@@YAXD@Z 000000014005214c     libucrtd:argv_parsing.obj
 0002:0001314c       $unwind$_configure_narrow_argv 000000014005214c     libucrtd:argv_parsing.obj
 0002:0001314c       $unwind$?exit_or_terminate_process@@YAXI@Z 000000014005214c     libucrtd:exit.obj
 0002:0001314c       $unwind$_exit              000000014005214c     libucrtd:exit.obj
 0002:0001314c       $unwind$exit               000000014005214c     libucrtd:exit.obj
 0002:0001314c       $unwind$?is_stream_flushable_or_commitable@@YA_NJ@Z 000000014005214c     libucrtd:fflush.obj
 0002:0001314c       $unwind$??$to_abstract_status@W4__acrt_fenv_machine_sse_status@@@@YA?AW4__acrt_fenv_abstract_status@@W4__acrt_fenv_machine_sse_status@@@Z 000000014005214c     libucrtd:_fenvutils.obj
 0002:0001314c       $unwind$?__acrt_fenv_shift_abstract_sse_status@@YA?AW4__acrt_fenv_abstract_status@@W41@@Z 000000014005214c     libucrtd:_fenvutils.obj
 0002:0001314c       $unwind$?__acrt_fenv_unshift_abstract_sse_status@@YA?AW4__acrt_fenv_abstract_status@@W41@@Z 000000014005214c     libucrtd:_fenvutils.obj
 0002:0001314c       $unwind$?to_machine_sse_status@@YA?AW4__acrt_fenv_machine_sse_status@@W4__acrt_fenv_abstract_status@@@Z 000000014005214c     libucrtd:_fenvutils.obj
 0002:0001314c       $unwind$__acrt_fenv_get_common_round_control 000000014005214c     libucrtd:_fenvutils.obj
 0002:0001314c       $unwind$__acrt_fenv_set_control 000000014005214c     libucrtd:_fenvutils.obj
 0002:0001314c       $unwind$__acrt_fenv_set_status 000000014005214c     libucrtd:_fenvutils.obj
 0002:0001314c       $unwind$__report_securityfailure 000000014005214c     LIBCMTD:gs_report.obj
 0002:0001314c       $unwind$__scrt_initialize_crt 000000014005214c     LIBCMTD:utility.obj
 0002:0001314c       $unwind$__scrt_release_startup_lock 000000014005214c     LIBCMTD:utility.obj
 0002:0001314c       $unwind$__vcrt_uninitialize 000000014005214c     libvcruntimed:initialization.obj
 0002:00013154       $unwind$?parse_digit@__crt_strtox@@YAI_W@Z 0000000140052154     libucrtd:atox.obj
 0002:00013154       $unwind$?is_block_an_aligned_allocation@@YA_NQEBX@Z 0000000140052154     libucrtd:debug_heap.obj
 0002:00013154       $unwind$free               0000000140052154     libucrtd:free.obj
 0002:00013154       $unwind$_free_base         0000000140052154     libucrtd:free_base.obj
 0002:00013154       $unwind$_callnewh          0000000140052154     libucrtd:new_handler.obj
 0002:00013154       $unwind$??R<lambda_e157831efee4ea0afb0a2ace5dd5fd0d>@@QEBAXXZ 0000000140052154     libucrtd:per_thread_data.obj
 0002:00013154       $unwind$?construct_ptd_array@@YAXQEAU__acrt_ptd@@@Z 0000000140052154     libucrtd:per_thread_data.obj
 0002:00013154       $unwind$?destroy_ptd@@YAXQEAU__acrt_ptd@@@Z 0000000140052154     libucrtd:per_thread_data.obj
 0002:00013154       $unwind$?destroy_ptd_array@@YAXQEAU__acrt_ptd@@@Z 0000000140052154     libucrtd:per_thread_data.obj
 0002:00013154       $unwind$?release@?$__crt_unique_heap_ptr@U__acrt_ptd@@U__crt_internal_free_policy@@@@QEAAXXZ 0000000140052154     libucrtd:per_thread_data.obj
 0002:00013154       $unwind$?try_load_library_from_system_directory@@YAPEAUHINSTANCE__@@QEB_W@Z 0000000140052154     libucrtd:winapi_thunks.obj
 0002:00013154       $unwind$__acrt_AppPolicyGetProcessTerminationMethodInternal 0000000140052154     libucrtd:winapi_thunks.obj
 0002:00013154       $unwind$__acrt_AppPolicyGetShowDeveloperDiagnosticInternal 0000000140052154     libucrtd:winapi_thunks.obj
 0002:00013154       $unwind$__acrt_AppPolicyGetWindowingModelInternal 0000000140052154     libucrtd:winapi_thunks.obj
 0002:00013154       $unwind$__acrt_FlsAlloc    0000000140052154     libucrtd:winapi_thunks.obj
 0002:00013154       $unwind$__acrt_DownlevelLocaleNameToLCID 0000000140052154     libucrtd:lcidtoname_downlevel.obj
 0002:00013154       $unwind$__acrt_add_locale_ref 0000000140052154     libucrtd:locale_refcounting.obj
 0002:00013154       $unwind$__acrt_release_locale_ref 0000000140052154     libucrtd:locale_refcounting.obj
 0002:00013154       $unwind$?release@?$__crt_unique_heap_ptr@U__crt_multibyte_data@@U__crt_internal_free_policy@@@@QEAAXXZ 0000000140052154     libucrtd:wsetlocale.obj
 0002:00013154       $unwind$??R<lambda_4e7105787b7b0e0227fbf2b2d883fa65>@@QEBAHXZ 0000000140052154     libucrtd:close.obj
 0002:00013154       $unwind$?release@?$__crt_unique_heap_ptr@U__crt_lowio_handle_data@@U__crt_internal_free_policy@@@@QEAAXXZ 0000000140052154     libucrtd:osfinfo.obj
 0002:00013154       $unwind$??R<lambda_bd5a608237428601b7e45fbdc72b1ae8>@@QEBAXXZ 0000000140052154     libucrtd:mbctype.obj
 0002:00013154       $unwind$__acrt_initialize_invalid_parameter_handler 0000000140052154     libucrtd:invalid_parameter.obj
 0002:00013154       $unwind$??R<lambda_df1553121bfa390f1154bd84936f2730>@@QEBAHXZ 0000000140052154     libucrtd:argv_parsing.obj
 0002:00013154       $unwind$?release@?$__crt_unique_heap_ptr@EU__crt_internal_free_policy@@@@QEAAXXZ 0000000140052154     libucrtd:argv_parsing.obj
 0002:00013154       $unwind$?release@?$__crt_unique_heap_ptr@PEADU__crt_internal_free_policy@@@@QEAAXXZ 0000000140052154     libucrtd:argv_parsing.obj
 0002:00013154       $unwind$??1?$argument_list@D@?A0x5f5c8891@@QEAA@XZ 0000000140052154     libucrtd:argv_wildcards.obj
 0002:00013154       $unwind$?close@__crt_findfile_traits@@SA_NPEAX@Z 0000000140052154     libucrtd:argv_wildcards.obj
 0002:00013154       $unwind$?close@__crt_hmodule_traits@@SA_NPEAUHINSTANCE__@@@Z 0000000140052154     libucrtd:exit.obj
 0002:00013154       $unwind$_register_thread_local_exe_atexit_callback 0000000140052154     libucrtd:exit.obj
 0002:00013154       $unwind$?release@?$__crt_unique_heap_ptr@P6AXXZU__crt_internal_free_policy@@@@QEAAXXZ 0000000140052154     libucrtd:onexit.obj
 0002:00013154       $unwind$_execute_onexit_table 0000000140052154     libucrtd:onexit.obj
 0002:00013154       $unwind$_initialize_onexit_table 0000000140052154     libucrtd:onexit.obj
 0002:00013154       $unwind$?release@?$__crt_unique_heap_ptr@PEAU__crt_stdio_stream_data@@U__crt_internal_free_policy@@@@QEAAXXZ 0000000140052154     libucrtd:_file.obj
 0002:00013154       $unwind$_lock_file         0000000140052154     libucrtd:_file.obj
 0002:00013154       $unwind$_unlock_file       0000000140052154     libucrtd:_file.obj
 0002:00013154       $unwind$?is_in_use@__crt_stdio_stream@@QEBA_NXZ 0000000140052154     libucrtd:closeall.obj
 0002:00013154       $unwind$?__acrt_stdio_reset_buffer@@YAXV__crt_stdio_stream@@@Z 0000000140052154     libucrtd:fflush.obj
 0002:00013154       $unwind$_fflush_nolock     0000000140052154     libucrtd:fflush.obj
 0002:00013154       $unwind$??$scratch_data@D@formatting_buffer@__crt_stdio_output@@QEAAPEADXZ 0000000140052154     libucrtd:output.obj
 0002:00013154       $unwind$?is_string_backed@__crt_stdio_stream@@QEBA_NXZ 0000000140052154     libucrtd:output.obj
 0002:00013154       $unwind$?state_case_flag@?$output_processor@DV?$stream_output_adapter@D@__crt_stdio_output@@V?$standard_base@DV?$stream_output_adapter@D@__crt_stdio_output@@@2@@__crt_stdio_output@@AEAA_NXZ 0000000140052154     libucrtd:output.obj
 0002:00013154       $unwind$?state_case_flag@?$output_processor@DV?$string_output_adapter@D@__crt_stdio_output@@V?$format_validation_base@DV?$string_output_adapter@D@__crt_stdio_output@@@2@@__crt_stdio_output@@AEAA_NXZ 0000000140052154     libucrtd:output.obj
 0002:00013154       $unwind$?state_case_flag@?$output_processor@_WV?$string_output_adapter@_W@__crt_stdio_output@@V?$format_validation_base@_WV?$string_output_adapter@_W@__crt_stdio_output@@@2@@__crt_stdio_output@@AEAA_NXZ 0000000140052154     libucrtd:output.obj
 0002:00013154       $unwind$?type_case_Z@?$output_processor@DV?$stream_output_adapter@D@__crt_stdio_output@@V?$standard_base@DV?$stream_output_adapter@D@__crt_stdio_output@@@2@@__crt_stdio_output@@AEAA_NXZ 0000000140052154     libucrtd:output.obj
 0002:00013154       $unwind$?type_case_Z@?$output_processor@DV?$string_output_adapter@D@__crt_stdio_output@@V?$format_validation_base@DV?$string_output_adapter@D@__crt_stdio_output@@@2@@__crt_stdio_output@@AEAA_NXZ 0000000140052154     libucrtd:output.obj
 0002:00013154       $unwind$?type_case_Z@?$output_processor@_WV?$string_output_adapter@_W@__crt_stdio_output@@V?$format_validation_base@_WV?$string_output_adapter@_W@__crt_stdio_output@@@2@@__crt_stdio_output@@AEAA_NXZ 0000000140052154     libucrtd:output.obj
 0002:00013154       $unwind$?type_case_s@?$output_processor@DV?$stream_output_adapter@D@__crt_stdio_output@@V?$standard_base@DV?$stream_output_adapter@D@__crt_stdio_output@@@2@@__crt_stdio_output@@AEAA_NXZ 0000000140052154     libucrtd:output.obj
 0002:00013154       $unwind$?type_case_s@?$output_processor@DV?$string_output_adapter@D@__crt_stdio_output@@V?$format_validation_base@DV?$string_output_adapter@D@__crt_stdio_output@@@2@@__crt_stdio_output@@AEAA_NXZ 0000000140052154     libucrtd:output.obj
 0002:00013154       $unwind$?type_case_s@?$output_processor@_WV?$string_output_adapter@_W@__crt_stdio_output@@V?$format_validation_base@_WV?$string_output_adapter@_W@__crt_stdio_output@@@2@@__crt_stdio_output@@AEAA_NXZ 0000000140052154     libucrtd:output.obj
 0002:00013154       $unwind$_set_statfp        0000000140052154     libucrtd:fpctrl.obj
 0002:00013154       $unwind$??$translate_control_exception_mask@W4__acrt_fenv_abstract_control@@W4__acrt_fenv_machine_sse_control@@@@YA?AW4__acrt_fenv_abstract_control@@W4__acrt_fenv_machine_sse_control@@@Z 0000000140052154     libucrtd:_fenvutils.obj
 0002:00013154       $unwind$??$translate_control_rounding_control@W4__acrt_fenv_abstract_control@@W4__acrt_fenv_machine_sse_control@@@@YA?AW4__acrt_fenv_abstract_control@@W4__acrt_fenv_machine_sse_control@@@Z 0000000140052154     libucrtd:_fenvutils.obj
 0002:00013154       $unwind$?set_machine_sse_control@@YAXW4__acrt_fenv_machine_sse_control@@@Z 0000000140052154     libucrtd:_fenvutils.obj
 0002:00013154       $unwind$?to_abstract_control@@YA?AW4__acrt_fenv_abstract_control@@W4__acrt_fenv_machine_sse_control@@@Z 0000000140052154     libucrtd:_fenvutils.obj
 0002:00013154       $unwind$?translate_control_denormal_control_from_sse@@YA?AW4__acrt_fenv_abstract_control@@W4__acrt_fenv_machine_sse_control@@@Z 0000000140052154     libucrtd:_fenvutils.obj
 0002:00013154       $unwind$feholdexcept       0000000140052154     libucrtd:feholdexcept.obj
 0002:00013154       $unwind$__acrt_invoke_user_matherr 0000000140052154     libucrtd:matherr.obj
 0002:00013154       $unwind$__setusermatherr   0000000140052154     libucrtd:matherr.obj
 0002:00013154       $unwind$__report_gsfailure 0000000140052154     LIBCMTD:gs_report.obj
 0002:00013154       $unwind$atexit             0000000140052154     LIBCMTD:utility.obj
 0002:00013154       $unwind$__scrt_unhandled_exception_filter 0000000140052154     LIBCMTD:utility_desktop.obj
 0002:00013154       $unwind$_IsExceptionObjectToBeDestroyed 0000000140052154     libvcruntimed:ehhelpers.obj
 0002:00013154       $unwind$?getESTypes@__FrameHandler3@@SAPEBU_s_ESTypeList@@PEBU_s_FuncInfo@@@Z 0000000140052154     libvcruntimed:frame.obj
 0002:00013154       $unwind$__except_validate_context_record 0000000140052154     libvcruntimed:jbcxrval.obj
 0002:00013154       $unwind$?release@?$__crt_unique_heap_ptr@U__vcrt_ptd@@U__crt_internal_free_policy@@@@QEAAXXZ 0000000140052154     libvcruntimed:per_thread_data.obj
 0002:00013154       $unwind$_FindAndUnlinkFrame 0000000140052154     libvcruntimed:risctrnsctrl.obj
 0002:00013154       $unwind$?release@?$__crt_unique_heap_ptr@DU__crt_public_free_policy@@@@QEAAXXZ 0000000140052154     libvcruntimed:std_exception.obj
 0002:00013154       $unwind$?release@?$__crt_unique_heap_ptr@DU__crt_internal_free_policy@@@@QEAAXXZ 0000000140052154     libvcruntimed:std_type_info.obj
 0002:00013154       $unwind$?try_load_library_from_system_directory@@YAPEAUHINSTANCE__@@QEB_W@Z 0000000140052154     libvcruntimed:winapi_downlevel.obj
 0002:0001315c       $unwind$?capture_current_context@@YAXQEAU_CONTEXT@@@Z 000000014005215c     libucrtd:invalid_parameter.obj
 0002:0001315c       $unwind$__acrt_stdio_begin_temporary_buffering_nolock 000000014005215c     libucrtd:_sftbuf.obj
 0002:0001315c       $unwind$capture_current_context 000000014005215c     LIBCMTD:gs_report.obj
 0002:0001315c       $unwind$capture_previous_context 000000014005215c     LIBCMTD:gs_report.obj
 0002:00013164       $unwind$?validate@?$c_string_character_source@D@__crt_strtox@@QEBA_NXZ 0000000140052164     libucrtd:atox.obj
 0002:00013164       $unwind$?validate@?$c_string_character_source@_W@__crt_strtox@@QEBA_NXZ 0000000140052164     libucrtd:atox.obj
 0002:00013164       $unwind$?is_contraction_possible@@YA_N_K@Z 0000000140052164     libucrtd:expand.obj
 0002:00013164       $unwind$_malloc_base       0000000140052164     libucrtd:malloc_base.obj
 0002:00013164       $unwind$?issue_debug_notification@@YA_NQEB_W@Z 0000000140052164     libucrtd:report_runtime_error.obj
 0002:00013164       $unwind$_freea_crt         0000000140052164     libucrtd:getstringtypea.obj
 0002:00013164       $unwind$?GetTableIndexFromLocaleName@@YAHPEB_W@Z 0000000140052164     libucrtd:lcidtoname_downlevel.obj
 0002:00013164       $unwind$__acrt_free_locale 0000000140052164     libucrtd:locale_refcounting.obj
 0002:00013164       $unwind$??R<lambda_5533cddd4bda0037814beee657757329>@@QEBAHXZ 0000000140052164     libucrtd:commit.obj
 0002:00013164       $unwind$__acrt_lowio_destroy_handle_array 0000000140052164     libucrtd:osfinfo.obj
 0002:00013164       $unwind$__acrt_stdio_free_buffer_nolock 0000000140052164     libucrtd:_freebuf.obj
 0002:00013164       $unwind$__acrt_stdio_flush_nolock 0000000140052164     libucrtd:fflush.obj
 0002:00013164       $unwind$_fileno            0000000140052164     libucrtd:fileno.obj
 0002:00013164       $unwind$?state_case_normal@?$output_processor@DV?$stream_output_adapter@D@__crt_stdio_output@@V?$standard_base@DV?$stream_output_adapter@D@__crt_stdio_output@@@2@@__crt_stdio_output@@AEAA_NXZ 0000000140052164     libucrtd:output.obj
 0002:00013164       $unwind$?state_case_normal@?$output_processor@DV?$string_output_adapter@D@__crt_stdio_output@@V?$format_validation_base@DV?$string_output_adapter@D@__crt_stdio_output@@@2@@__crt_stdio_output@@AEAA_NXZ 0000000140052164     libucrtd:output.obj
 0002:00013164       $unwind$?state_case_normal@?$output_processor@_WV?$string_output_adapter@_W@__crt_stdio_output@@V?$format_validation_base@_WV?$string_output_adapter@_W@__crt_stdio_output@@@2@@__crt_stdio_output@@AEAA_NXZ 0000000140052164     libucrtd:output.obj
 0002:00013164       $unwind$?validate@?$stream_output_adapter@D@__crt_stdio_output@@QEBA_NXZ 0000000140052164     libucrtd:output.obj
 0002:00013164       $unwind$?validate@?$string_output_adapter@D@__crt_stdio_output@@QEBA_NXZ 0000000140052164     libucrtd:output.obj
 0002:00013164       $unwind$?validate@?$string_output_adapter@_W@__crt_stdio_output@@QEBA_NXZ 0000000140052164     libucrtd:output.obj
 0002:00013164       $unwind$?validate_and_update_state_at_end_of_format_string@?$format_validation_base@DV?$string_output_adapter@D@__crt_stdio_output@@@__crt_stdio_output@@IEBA_NXZ 0000000140052164     libucrtd:output.obj
 0002:00013164       $unwind$?validate_and_update_state_at_end_of_format_string@?$format_validation_base@_WV?$string_output_adapter@_W@__crt_stdio_output@@@__crt_stdio_output@@IEBA_NXZ 0000000140052164     libucrtd:output.obj
 0002:00013164       $unwind$_onexit            0000000140052164     LIBCMTD:utility.obj
 0002:00013164       $unwind$__FrameUnwindFilter 0000000140052164     libvcruntimed:ehhelpers.obj
 0002:00013164       $unwind$?Is_bad_exception_allowed@@YAEPEBU_s_ESTypeList@@@Z 0000000140052164     libvcruntimed:frame.obj
 0002:00013164       $unwind$__vcrt_FlsAlloc    0000000140052164     libvcruntimed:winapi_downlevel.obj
 0002:0001316c       $unwind$__scrt_is_nonwritable_in_current_image 000000014005216c     LIBCMTD:utility.obj
 0002:0001318c       $unwind$??$is_overflow_condition@K@__crt_strtox@@YA_NIK@Z 000000014005218c     libucrtd:atox.obj
 0002:0001318c       $unwind$_control87         000000014005218c     libucrtd:ieee.obj
 0002:0001318c       $unwind$__scrt_uninitialize_crt 000000014005218c     LIBCMTD:utility.obj
 0002:00013194       $unwind$__scrt_initialize_onexit_tables 0000000140052194     LIBCMTD:utility.obj
 0002:000131a0       $unwind$?is_space@__crt_strtox@@YA_N_WPEAU__crt_locale_pointers@@@Z 00000001400521a0     libucrtd:atox.obj
 0002:000131a0       $unwind$??0big_integer@__crt_strtox@@QEAA@AEBU01@@Z 00000001400521a0     libucrtd:cfout.obj
 0002:000131a0       $unwind$??4big_integer@__crt_strtox@@QEAAAEAU01@AEBU01@@Z 00000001400521a0     libucrtd:cfout.obj
 0002:000131a0       $unwind$??9__crt_strtox@@YA_NAEBUbig_integer@0@0@Z 00000001400521a0     libucrtd:cfout.obj
 0002:000131a0       $unwind$iswctype           00000001400521a0     libucrtd:iswctype.obj
 0002:000131a0       $unwind$_realloc_base      00000001400521a0     libucrtd:realloc_base.obj
 0002:000131a0       $unwind$?allocate@?$__crt_win32_buffer@DU__crt_win32_buffer_no_resizing@@@@QEAAH_K@Z 00000001400521a0     libucrtd:getmodulefilenamea.obj
 0002:000131a0       $unwind$??$uninitialize@V<lambda_af27fe6ede5d83bbdbd622796c194e9c>@@@?$dual_state_global@PEAU__crt_multibyte_data@@@__crt_state_management@@QEAAX$$QEAV<lambda_af27fe6ede5d83bbdbd622796c194e9c>@@@Z 00000001400521a0     libucrtd:initialization.obj
 0002:000131a0       $unwind$__acrt_execute_uninitializers 00000001400521a0     libucrtd:shared_initialization.obj
 0002:000131a0       $unwind$?try_get_first_available_module@@YAPEAUHINSTANCE__@@QEBW4module_id@?A0x391cf84c@@0@Z 00000001400521a0     libucrtd:winapi_thunks.obj
 0002:000131a0       $unwind$?free_crt_array_internal@@YAXQEAPEBX_K@Z 00000001400521a0     libucrtd:inittime.obj
 0002:000131a0       $unwind$_updatetlocinfoEx_nolock 00000001400521a0     libucrtd:locale_refcounting.obj
 0002:000131a0       $unwind$??$uninitialize@V<lambda_363eea9039da1e8169e2d060c7fe5cbc>@@@?$dual_state_global@PEAU__crt_locale_data@@@__crt_state_management@@QEAAX$$QEAV<lambda_363eea9039da1e8169e2d060c7fe5cbc>@@@Z 00000001400521a0     libucrtd:wsetlocale.obj
 0002:000131a0       $unwind$??$initialize_from_array@$$BY10BAA@E@?$dual_state_global@PEAE@__crt_state_management@@QEAAXAEAY10BAA@E@Z 00000001400521a0     libucrtd:mbctype.obj
 0002:000131a0       $unwind$??$initialize_from_array@$$BY10BAB@E@?$dual_state_global@PEAE@__crt_state_management@@QEAAXAEAY10BAB@E@Z 00000001400521a0     libucrtd:mbctype.obj
 0002:000131a0       $unwind$??$initialize_from_array@$$BY00Q6AXPEB_W00I_K@Z@?$dual_state_global@P6AXPEB_W00I_K@Z@__crt_state_management@@QEAAXAEAY00Q6AXPEB_W00I_K@Z@Z 00000001400521a0     libucrtd:invalid_parameter.obj
 0002:000131a0       $unwind$?allocate@?$__crt_win32_buffer@DU__crt_win32_buffer_internal_dynamic_resizing@@@@QEAAH_K@Z 00000001400521a0     libucrtd:argv_wildcards.obj
 0002:000131a0       $unwind$?allocate@?$__crt_win32_buffer@_WU__crt_win32_buffer_internal_dynamic_resizing@@@@QEAAH_K@Z 00000001400521a0     libucrtd:argv_wildcards.obj
 0002:000131a0       $unwind$?append@?$argument_list@D@?A0x5f5c8891@@QEAAHQEAD@Z 00000001400521a0     libucrtd:argv_wildcards.obj
 0002:000131a0       $unwind$?get_file_name@@YAPEADQEAV?$__crt_win32_buffer@DU__crt_win32_buffer_internal_dynamic_resizing@@@@QEA_W@Z 00000001400521a0     libucrtd:argv_wildcards.obj
 0002:000131a0       $unwind$?get_wide@@YAPEA_WQEAV?$__crt_win32_buffer@_WU__crt_win32_buffer_internal_dynamic_resizing@@@@QEAD@Z 00000001400521a0     libucrtd:argv_wildcards.obj
 0002:000131a0       $unwind$_initterm          00000001400521a0     libucrtd:initterm.obj
 0002:000131a0       $unwind$?common_flush_all_should_try_to_flush_stream@@YA_NV__crt_stdio_stream@@QEAH@Z 00000001400521a0     libucrtd:fflush.obj
 0002:000131a0       $unwind$??$extract_argument_from_va_list@U_CRT_DOUBLE@@U1@@?$standard_base@DV?$stream_output_adapter@D@__crt_stdio_output@@@__crt_stdio_output@@IEAA_NAEAU_CRT_DOUBLE@@@Z 00000001400521a0     libucrtd:output.obj
